
main:     file format elf64-tradlittlemips


Disassembly of section .text:

ffffffffa0800200 <_start>:
ffffffffa0800200:	67bdfff0 	daddiu	sp,sp,-16
ffffffffa0800204:	ffbf0008 	sd	ra,8(sp)
ffffffffa0800208:	ffbe0000 	sd	s8,0(sp)
ffffffffa080020c:	03a0f02d 	move	s8,sp
ffffffffa0800210:	0c2000ac 	jal	ffffffffa08002b0 <asm_start>
ffffffffa0800214:	00000000 	nop
ffffffffa0800218:	0c201954 	jal	ffffffffa0806550 <init_stack>
ffffffffa080021c:	00000000 	nop
ffffffffa0800220:	3c020000 	lui	v0,0x0
ffffffffa0800224:	64420000 	daddiu	v0,v0,0
ffffffffa0800228:	00021438 	dsll	v0,v0,0x10
ffffffffa080022c:	6442a081 	daddiu	v0,v0,-24447
ffffffffa0800230:	00021438 	dsll	v0,v0,0x10
ffffffffa0800234:	6444b020 	daddiu	a0,v0,-20448
ffffffffa0800238:	0c202363 	jal	ffffffffa0808d8c <printk>
ffffffffa080023c:	00000000 	nop
ffffffffa0800240:	0c2016c4 	jal	ffffffffa0805b10 <init_pcb>
ffffffffa0800244:	00000000 	nop
ffffffffa0800248:	3c020000 	lui	v0,0x0
ffffffffa080024c:	64420000 	daddiu	v0,v0,0
ffffffffa0800250:	00021438 	dsll	v0,v0,0x10
ffffffffa0800254:	6442a081 	daddiu	v0,v0,-24447
ffffffffa0800258:	00021438 	dsll	v0,v0,0x10
ffffffffa080025c:	6444b050 	daddiu	a0,v0,-20400
ffffffffa0800260:	0c202363 	jal	ffffffffa0808d8c <printk>
ffffffffa0800264:	00000000 	nop
ffffffffa0800268:	0c2014d0 	jal	ffffffffa0805340 <init_screen>
ffffffffa080026c:	00000000 	nop
ffffffffa0800270:	3c020000 	lui	v0,0x0
ffffffffa0800274:	64420000 	daddiu	v0,v0,0
ffffffffa0800278:	00021438 	dsll	v0,v0,0x10
ffffffffa080027c:	6442a081 	daddiu	v0,v0,-24447
ffffffffa0800280:	00021438 	dsll	v0,v0,0x10
ffffffffa0800284:	6444b078 	daddiu	a0,v0,-20360
ffffffffa0800288:	0c202363 	jal	ffffffffa0808d8c <printk>
ffffffffa080028c:	00000000 	nop
ffffffffa0800290:	0c20112a 	jal	ffffffffa08044a8 <read_super_block>
ffffffffa0800294:	00000000 	nop
ffffffffa0800298:	0c2000b6 	jal	ffffffffa08002d8 <do_scheduler>
ffffffffa080029c:	00000000 	nop
ffffffffa08002a0:	082000a6 	j	ffffffffa0800298 <_start+0x98>
ffffffffa08002a4:	00000000 	nop
	...

ffffffffa08002b0 <asm_start>:
ffffffffa08002b0:	40806000 	mtc0	zero,c0_status
ffffffffa08002b4:	40809000 	mtc0	zero,c0_watchlo
ffffffffa08002b8:	40809800 	mtc0	zero,c0_watchhi
ffffffffa08002bc:	40088000 	mfc0	a4,c0_config
ffffffffa08002c0:	2401fff8 	li	at,-8
ffffffffa08002c4:	01014024 	and	a4,a4,at
ffffffffa08002c8:	35080002 	ori	a4,a4,0x2
ffffffffa08002cc:	40888000 	mtc0	a4,c0_config
ffffffffa08002d0:	03e00008 	jr	ra
ffffffffa08002d4:	00000000 	nop

ffffffffa08002d8 <do_scheduler>:
ffffffffa08002d8:	3c1a0000 	lui	k0,0x0
ffffffffa08002dc:	675a0000 	daddiu	k0,k0,0
ffffffffa08002e0:	001ad438 	dsll	k0,k0,0x10
ffffffffa08002e4:	675aa081 	daddiu	k0,k0,-24447
ffffffffa08002e8:	001ad438 	dsll	k0,k0,0x10
ffffffffa08002ec:	df5a4920 	ld	k0,18720(k0)
ffffffffa08002f0:	635a0140 	daddi	k0,k0,320
ffffffffa08002f4:	ff410008 	sd	at,8(k0)
ffffffffa08002f8:	ff420010 	sd	v0,16(k0)
ffffffffa08002fc:	ff430018 	sd	v1,24(k0)
ffffffffa0800300:	ff440020 	sd	a0,32(k0)
ffffffffa0800304:	ff450028 	sd	a1,40(k0)
ffffffffa0800308:	ff460030 	sd	a2,48(k0)
ffffffffa080030c:	ff470038 	sd	a3,56(k0)
ffffffffa0800310:	ff480040 	sd	a4,64(k0)
ffffffffa0800314:	ff490048 	sd	a5,72(k0)
ffffffffa0800318:	ff4a0050 	sd	a6,80(k0)
ffffffffa080031c:	ff4b0058 	sd	a7,88(k0)
ffffffffa0800320:	ff4c0060 	sd	t0,96(k0)
ffffffffa0800324:	ff4d0068 	sd	t1,104(k0)
ffffffffa0800328:	ff4e0070 	sd	t2,112(k0)
ffffffffa080032c:	ff4f0078 	sd	t3,120(k0)
ffffffffa0800330:	ff500080 	sd	s0,128(k0)
ffffffffa0800334:	ff510088 	sd	s1,136(k0)
ffffffffa0800338:	ff520090 	sd	s2,144(k0)
ffffffffa080033c:	ff530098 	sd	s3,152(k0)
ffffffffa0800340:	ff5400a0 	sd	s4,160(k0)
ffffffffa0800344:	ff5500a8 	sd	s5,168(k0)
ffffffffa0800348:	ff5600b0 	sd	s6,176(k0)
ffffffffa080034c:	ff5700b8 	sd	s7,184(k0)
ffffffffa0800350:	ff5800c0 	sd	t8,192(k0)
ffffffffa0800354:	ff5900c8 	sd	t9,200(k0)
ffffffffa0800358:	ff5c00e0 	sd	gp,224(k0)
ffffffffa080035c:	ff5d00e8 	sd	sp,232(k0)
ffffffffa0800360:	ff5e00f0 	sd	s8,240(k0)
ffffffffa0800364:	ff5f00f8 	sd	ra,248(k0)
ffffffffa0800368:	0c201a86 	jal	ffffffffa0806a18 <scheduler>
ffffffffa080036c:	00000000 	nop
ffffffffa0800370:	3c1a0000 	lui	k0,0x0
ffffffffa0800374:	675a0000 	daddiu	k0,k0,0
ffffffffa0800378:	001ad438 	dsll	k0,k0,0x10
ffffffffa080037c:	675aa081 	daddiu	k0,k0,-24447
ffffffffa0800380:	001ad438 	dsll	k0,k0,0x10
ffffffffa0800384:	df5a4920 	ld	k0,18720(k0)
ffffffffa0800388:	635a0140 	daddi	k0,k0,320
ffffffffa080038c:	df410008 	ld	at,8(k0)
ffffffffa0800390:	df420010 	ld	v0,16(k0)
ffffffffa0800394:	df430018 	ld	v1,24(k0)
ffffffffa0800398:	df440020 	ld	a0,32(k0)
ffffffffa080039c:	df450028 	ld	a1,40(k0)
ffffffffa08003a0:	df460030 	ld	a2,48(k0)
ffffffffa08003a4:	df470038 	ld	a3,56(k0)
ffffffffa08003a8:	df480040 	ld	a4,64(k0)
ffffffffa08003ac:	df490048 	ld	a5,72(k0)
ffffffffa08003b0:	df4a0050 	ld	a6,80(k0)
ffffffffa08003b4:	df4b0058 	ld	a7,88(k0)
ffffffffa08003b8:	df4c0060 	ld	t0,96(k0)
ffffffffa08003bc:	df4d0068 	ld	t1,104(k0)
ffffffffa08003c0:	df4e0070 	ld	t2,112(k0)
ffffffffa08003c4:	df4f0078 	ld	t3,120(k0)
ffffffffa08003c8:	df500080 	ld	s0,128(k0)
ffffffffa08003cc:	df510088 	ld	s1,136(k0)
ffffffffa08003d0:	df520090 	ld	s2,144(k0)
ffffffffa08003d4:	df530098 	ld	s3,152(k0)
ffffffffa08003d8:	df5400a0 	ld	s4,160(k0)
ffffffffa08003dc:	df5500a8 	ld	s5,168(k0)
ffffffffa08003e0:	df5600b0 	ld	s6,176(k0)
ffffffffa08003e4:	df5700b8 	ld	s7,184(k0)
ffffffffa08003e8:	df5800c0 	ld	t8,192(k0)
ffffffffa08003ec:	df5900c8 	ld	t9,200(k0)
ffffffffa08003f0:	df5c00e0 	ld	gp,224(k0)
ffffffffa08003f4:	df5d00e8 	ld	sp,232(k0)
ffffffffa08003f8:	df5e00f0 	ld	s8,240(k0)
ffffffffa08003fc:	df5f00f8 	ld	ra,248(k0)
ffffffffa0800400:	03e00008 	jr	ra
ffffffffa0800404:	00000000 	nop

ffffffffa0800408 <TLBexception_handler_entry>:
	...

ffffffffa0800410 <invoke_syscall>:
ffffffffa0800410:	67bdffd0 	daddiu	sp,sp,-48
ffffffffa0800414:	ffbf0028 	sd	ra,40(sp)
ffffffffa0800418:	ffbe0020 	sd	s8,32(sp)
ffffffffa080041c:	03a0f02d 	move	s8,sp
ffffffffa0800420:	0080102d 	move	v0,a0
ffffffffa0800424:	00021000 	sll	v0,v0,0x0
ffffffffa0800428:	a3c20010 	sb	v0,16(s8)
ffffffffa080042c:	3c028f0d 	lui	v0,0x8f0d
ffffffffa0800430:	34425570 	ori	v0,v0,0x5570
ffffffffa0800434:	ffc20000 	sd	v0,0(s8)
ffffffffa0800438:	83c20010 	lb	v0,16(s8)
ffffffffa080043c:	0040182d 	move	v1,v0
ffffffffa0800440:	dfc20000 	ld	v0,0(s8)
ffffffffa0800444:	0060202d 	move	a0,v1
ffffffffa0800448:	0040f809 	jalr	v0
ffffffffa080044c:	00000000 	nop
ffffffffa0800450:	03c0e82d 	move	sp,s8
ffffffffa0800454:	dfbf0028 	ld	ra,40(sp)
ffffffffa0800458:	dfbe0020 	ld	s8,32(sp)
ffffffffa080045c:	67bd0030 	daddiu	sp,sp,48
ffffffffa0800460:	03e00008 	jr	ra
ffffffffa0800464:	00000000 	nop

ffffffffa0800468 <port_write>:
ffffffffa0800468:	67bdffd0 	daddiu	sp,sp,-48
ffffffffa080046c:	ffbf0028 	sd	ra,40(sp)
ffffffffa0800470:	ffbe0020 	sd	s8,32(sp)
ffffffffa0800474:	03a0f02d 	move	s8,sp
ffffffffa0800478:	ffc40010 	sd	a0,16(s8)
ffffffffa080047c:	3c028f0d 	lui	v0,0x8f0d
ffffffffa0800480:	34425534 	ori	v0,v0,0x5534
ffffffffa0800484:	ffc20000 	sd	v0,0(s8)
ffffffffa0800488:	dfc20000 	ld	v0,0(s8)
ffffffffa080048c:	dfc40010 	ld	a0,16(s8)
ffffffffa0800490:	0040f809 	jalr	v0
ffffffffa0800494:	00000000 	nop
ffffffffa0800498:	03c0e82d 	move	sp,s8
ffffffffa080049c:	dfbf0028 	ld	ra,40(sp)
ffffffffa08004a0:	dfbe0020 	ld	s8,32(sp)
ffffffffa08004a4:	67bd0030 	daddiu	sp,sp,48
ffffffffa08004a8:	03e00008 	jr	ra
ffffffffa08004ac:	00000000 	nop

ffffffffa08004b0 <sdwrite>:
ffffffffa08004b0:	67bdffd0 	daddiu	sp,sp,-48
ffffffffa08004b4:	ffbf0028 	sd	ra,40(sp)
ffffffffa08004b8:	ffbe0020 	sd	s8,32(sp)
ffffffffa08004bc:	03a0f02d 	move	s8,sp
ffffffffa08004c0:	ffc40010 	sd	a0,16(s8)
ffffffffa08004c4:	00a0182d 	move	v1,a1
ffffffffa08004c8:	00c0102d 	move	v0,a2
ffffffffa08004cc:	00031800 	sll	v1,v1,0x0
ffffffffa08004d0:	afc30018 	sw	v1,24(s8)
ffffffffa08004d4:	00021000 	sll	v0,v0,0x0
ffffffffa08004d8:	afc2001c 	sw	v0,28(s8)
ffffffffa08004dc:	3c028f0d 	lui	v0,0x8f0d
ffffffffa08004e0:	34425d54 	ori	v0,v0,0x5d54
ffffffffa08004e4:	ffc20000 	sd	v0,0(s8)
ffffffffa08004e8:	8fc50018 	lw	a1,24(s8)
ffffffffa08004ec:	8fc3001c 	lw	v1,28(s8)
ffffffffa08004f0:	dfc20000 	ld	v0,0(s8)
ffffffffa08004f4:	dfc40010 	ld	a0,16(s8)
ffffffffa08004f8:	0060302d 	move	a2,v1
ffffffffa08004fc:	0040f809 	jalr	v0
ffffffffa0800500:	00000000 	nop
ffffffffa0800504:	8fc2001c 	lw	v0,28(s8)
ffffffffa0800508:	03c0e82d 	move	sp,s8
ffffffffa080050c:	dfbf0028 	ld	ra,40(sp)
ffffffffa0800510:	dfbe0020 	ld	s8,32(sp)
ffffffffa0800514:	67bd0030 	daddiu	sp,sp,48
ffffffffa0800518:	03e00008 	jr	ra
ffffffffa080051c:	00000000 	nop

ffffffffa0800520 <sdread>:
ffffffffa0800520:	67bdffd0 	daddiu	sp,sp,-48
ffffffffa0800524:	ffbf0028 	sd	ra,40(sp)
ffffffffa0800528:	ffbe0020 	sd	s8,32(sp)
ffffffffa080052c:	03a0f02d 	move	s8,sp
ffffffffa0800530:	ffc40010 	sd	a0,16(s8)
ffffffffa0800534:	00a0182d 	move	v1,a1
ffffffffa0800538:	00c0102d 	move	v0,a2
ffffffffa080053c:	00031800 	sll	v1,v1,0x0
ffffffffa0800540:	afc30018 	sw	v1,24(s8)
ffffffffa0800544:	00021000 	sll	v0,v0,0x0
ffffffffa0800548:	afc2001c 	sw	v0,28(s8)
ffffffffa080054c:	3c028f0d 	lui	v0,0x8f0d
ffffffffa0800550:	34425e10 	ori	v0,v0,0x5e10
ffffffffa0800554:	ffc20000 	sd	v0,0(s8)
ffffffffa0800558:	8fc50018 	lw	a1,24(s8)
ffffffffa080055c:	8fc3001c 	lw	v1,28(s8)
ffffffffa0800560:	dfc20000 	ld	v0,0(s8)
ffffffffa0800564:	dfc40010 	ld	a0,16(s8)
ffffffffa0800568:	0060302d 	move	a2,v1
ffffffffa080056c:	0040f809 	jalr	v0
ffffffffa0800570:	00000000 	nop
ffffffffa0800574:	8fc2001c 	lw	v0,28(s8)
ffffffffa0800578:	03c0e82d 	move	sp,s8
ffffffffa080057c:	dfbf0028 	ld	ra,40(sp)
ffffffffa0800580:	dfbe0020 	ld	s8,32(sp)
ffffffffa0800584:	67bd0030 	daddiu	sp,sp,48
ffffffffa0800588:	03e00008 	jr	ra
ffffffffa080058c:	00000000 	nop

ffffffffa0800590 <sd_card_read>:
ffffffffa0800590:	67bdffe0 	daddiu	sp,sp,-32
ffffffffa0800594:	ffbf0018 	sd	ra,24(sp)
ffffffffa0800598:	ffbe0010 	sd	s8,16(sp)
ffffffffa080059c:	03a0f02d 	move	s8,sp
ffffffffa08005a0:	ffc40000 	sd	a0,0(s8)
ffffffffa08005a4:	00a0182d 	move	v1,a1
ffffffffa08005a8:	00c0102d 	move	v0,a2
ffffffffa08005ac:	00031800 	sll	v1,v1,0x0
ffffffffa08005b0:	afc30008 	sw	v1,8(s8)
ffffffffa08005b4:	00021000 	sll	v0,v0,0x0
ffffffffa08005b8:	afc2000c 	sw	v0,12(s8)
ffffffffa08005bc:	8fc2000c 	lw	v0,12(s8)
ffffffffa08005c0:	8fc30008 	lw	v1,8(s8)
ffffffffa08005c4:	dfc40000 	ld	a0,0(s8)
ffffffffa08005c8:	0060282d 	move	a1,v1
ffffffffa08005cc:	0040302d 	move	a2,v0
ffffffffa08005d0:	0c200148 	jal	ffffffffa0800520 <sdread>
ffffffffa08005d4:	00000000 	nop
ffffffffa08005d8:	03c0e82d 	move	sp,s8
ffffffffa08005dc:	dfbf0018 	ld	ra,24(sp)
ffffffffa08005e0:	dfbe0010 	ld	s8,16(sp)
ffffffffa08005e4:	67bd0020 	daddiu	sp,sp,32
ffffffffa08005e8:	03e00008 	jr	ra
ffffffffa08005ec:	00000000 	nop

ffffffffa08005f0 <sd_card_write>:
ffffffffa08005f0:	67bdffe0 	daddiu	sp,sp,-32
ffffffffa08005f4:	ffbf0018 	sd	ra,24(sp)
ffffffffa08005f8:	ffbe0010 	sd	s8,16(sp)
ffffffffa08005fc:	03a0f02d 	move	s8,sp
ffffffffa0800600:	ffc40000 	sd	a0,0(s8)
ffffffffa0800604:	00a0182d 	move	v1,a1
ffffffffa0800608:	00c0102d 	move	v0,a2
ffffffffa080060c:	00031800 	sll	v1,v1,0x0
ffffffffa0800610:	afc30008 	sw	v1,8(s8)
ffffffffa0800614:	00021000 	sll	v0,v0,0x0
ffffffffa0800618:	afc2000c 	sw	v0,12(s8)
ffffffffa080061c:	8fc2000c 	lw	v0,12(s8)
ffffffffa0800620:	8fc30008 	lw	v1,8(s8)
ffffffffa0800624:	dfc40000 	ld	a0,0(s8)
ffffffffa0800628:	0060282d 	move	a1,v1
ffffffffa080062c:	0040302d 	move	a2,v0
ffffffffa0800630:	0c20012c 	jal	ffffffffa08004b0 <sdwrite>
ffffffffa0800634:	00000000 	nop
ffffffffa0800638:	03c0e82d 	move	sp,s8
ffffffffa080063c:	dfbf0018 	ld	ra,24(sp)
ffffffffa0800640:	dfbe0010 	ld	s8,16(sp)
ffffffffa0800644:	67bd0020 	daddiu	sp,sp,32
ffffffffa0800648:	03e00008 	jr	ra
ffffffffa080064c:	00000000 	nop

ffffffffa0800650 <read_superblock>:
ffffffffa0800650:	67bdfff0 	daddiu	sp,sp,-16
ffffffffa0800654:	ffbf0008 	sd	ra,8(sp)
ffffffffa0800658:	ffbe0000 	sd	s8,0(sp)
ffffffffa080065c:	03a0f02d 	move	s8,sp
ffffffffa0800660:	3c020000 	lui	v0,0x0
ffffffffa0800664:	64420000 	daddiu	v0,v0,0
ffffffffa0800668:	00021438 	dsll	v0,v0,0x10
ffffffffa080066c:	6442a081 	daddiu	v0,v0,-24447
ffffffffa0800670:	00021438 	dsll	v0,v0,0x10
ffffffffa0800674:	dc42b700 	ld	v0,-18688(v0)
ffffffffa0800678:	0040202d 	move	a0,v0
ffffffffa080067c:	3c052000 	lui	a1,0x2000
ffffffffa0800680:	24061000 	li	a2,4096
ffffffffa0800684:	0c200164 	jal	ffffffffa0800590 <sd_card_read>
ffffffffa0800688:	00000000 	nop
ffffffffa080068c:	03c0e82d 	move	sp,s8
ffffffffa0800690:	dfbf0008 	ld	ra,8(sp)
ffffffffa0800694:	dfbe0000 	ld	s8,0(sp)
ffffffffa0800698:	67bd0010 	daddiu	sp,sp,16
ffffffffa080069c:	03e00008 	jr	ra
ffffffffa08006a0:	00000000 	nop

ffffffffa08006a4 <write_superblock>:
ffffffffa08006a4:	67bdfff0 	daddiu	sp,sp,-16
ffffffffa08006a8:	ffbf0008 	sd	ra,8(sp)
ffffffffa08006ac:	ffbe0000 	sd	s8,0(sp)
ffffffffa08006b0:	03a0f02d 	move	s8,sp
ffffffffa08006b4:	3c020000 	lui	v0,0x0
ffffffffa08006b8:	64420000 	daddiu	v0,v0,0
ffffffffa08006bc:	00021438 	dsll	v0,v0,0x10
ffffffffa08006c0:	6442a081 	daddiu	v0,v0,-24447
ffffffffa08006c4:	00021438 	dsll	v0,v0,0x10
ffffffffa08006c8:	dc42b700 	ld	v0,-18688(v0)
ffffffffa08006cc:	0040202d 	move	a0,v0
ffffffffa08006d0:	3c052000 	lui	a1,0x2000
ffffffffa08006d4:	24061000 	li	a2,4096
ffffffffa08006d8:	0c20017c 	jal	ffffffffa08005f0 <sd_card_write>
ffffffffa08006dc:	00000000 	nop
ffffffffa08006e0:	03c0e82d 	move	sp,s8
ffffffffa08006e4:	dfbf0008 	ld	ra,8(sp)
ffffffffa08006e8:	dfbe0000 	ld	s8,0(sp)
ffffffffa08006ec:	67bd0010 	daddiu	sp,sp,16
ffffffffa08006f0:	03e00008 	jr	ra
ffffffffa08006f4:	00000000 	nop

ffffffffa08006f8 <read_blockmap>:
ffffffffa08006f8:	67bdfff0 	daddiu	sp,sp,-16
ffffffffa08006fc:	ffbf0008 	sd	ra,8(sp)
ffffffffa0800700:	ffbe0000 	sd	s8,0(sp)
ffffffffa0800704:	03a0f02d 	move	s8,sp
ffffffffa0800708:	3c020000 	lui	v0,0x0
ffffffffa080070c:	64420000 	daddiu	v0,v0,0
ffffffffa0800710:	00021438 	dsll	v0,v0,0x10
ffffffffa0800714:	6442a081 	daddiu	v0,v0,-24447
ffffffffa0800718:	00021438 	dsll	v0,v0,0x10
ffffffffa080071c:	dc42b700 	ld	v0,-18688(v0)
ffffffffa0800720:	8c430010 	lw	v1,16(v0)
ffffffffa0800724:	3c020000 	lui	v0,0x0
ffffffffa0800728:	64420000 	daddiu	v0,v0,0
ffffffffa080072c:	00021438 	dsll	v0,v0,0x10
ffffffffa0800730:	6442a081 	daddiu	v0,v0,-24447
ffffffffa0800734:	00021438 	dsll	v0,v0,0x10
ffffffffa0800738:	6444d890 	daddiu	a0,v0,-10096
ffffffffa080073c:	0060282d 	move	a1,v1
ffffffffa0800740:	24064000 	li	a2,16384
ffffffffa0800744:	0c200164 	jal	ffffffffa0800590 <sd_card_read>
ffffffffa0800748:	00000000 	nop
ffffffffa080074c:	03c0e82d 	move	sp,s8
ffffffffa0800750:	dfbf0008 	ld	ra,8(sp)
ffffffffa0800754:	dfbe0000 	ld	s8,0(sp)
ffffffffa0800758:	67bd0010 	daddiu	sp,sp,16
ffffffffa080075c:	03e00008 	jr	ra
ffffffffa0800760:	00000000 	nop

ffffffffa0800764 <write_blockmap>:
ffffffffa0800764:	67bdfff0 	daddiu	sp,sp,-16
ffffffffa0800768:	ffbf0008 	sd	ra,8(sp)
ffffffffa080076c:	ffbe0000 	sd	s8,0(sp)
ffffffffa0800770:	03a0f02d 	move	s8,sp
ffffffffa0800774:	3c020000 	lui	v0,0x0
ffffffffa0800778:	64420000 	daddiu	v0,v0,0
ffffffffa080077c:	00021438 	dsll	v0,v0,0x10
ffffffffa0800780:	6442a081 	daddiu	v0,v0,-24447
ffffffffa0800784:	00021438 	dsll	v0,v0,0x10
ffffffffa0800788:	dc42b700 	ld	v0,-18688(v0)
ffffffffa080078c:	8c430010 	lw	v1,16(v0)
ffffffffa0800790:	3c020000 	lui	v0,0x0
ffffffffa0800794:	64420000 	daddiu	v0,v0,0
ffffffffa0800798:	00021438 	dsll	v0,v0,0x10
ffffffffa080079c:	6442a081 	daddiu	v0,v0,-24447
ffffffffa08007a0:	00021438 	dsll	v0,v0,0x10
ffffffffa08007a4:	6444d890 	daddiu	a0,v0,-10096
ffffffffa08007a8:	0060282d 	move	a1,v1
ffffffffa08007ac:	24064000 	li	a2,16384
ffffffffa08007b0:	0c20017c 	jal	ffffffffa08005f0 <sd_card_write>
ffffffffa08007b4:	00000000 	nop
ffffffffa08007b8:	03c0e82d 	move	sp,s8
ffffffffa08007bc:	dfbf0008 	ld	ra,8(sp)
ffffffffa08007c0:	dfbe0000 	ld	s8,0(sp)
ffffffffa08007c4:	67bd0010 	daddiu	sp,sp,16
ffffffffa08007c8:	03e00008 	jr	ra
ffffffffa08007cc:	00000000 	nop

ffffffffa08007d0 <read_inodemap>:
ffffffffa08007d0:	67bdfff0 	daddiu	sp,sp,-16
ffffffffa08007d4:	ffbf0008 	sd	ra,8(sp)
ffffffffa08007d8:	ffbe0000 	sd	s8,0(sp)
ffffffffa08007dc:	03a0f02d 	move	s8,sp
ffffffffa08007e0:	3c020000 	lui	v0,0x0
ffffffffa08007e4:	64420000 	daddiu	v0,v0,0
ffffffffa08007e8:	00021438 	dsll	v0,v0,0x10
ffffffffa08007ec:	6442a081 	daddiu	v0,v0,-24447
ffffffffa08007f0:	00021438 	dsll	v0,v0,0x10
ffffffffa08007f4:	dc42b700 	ld	v0,-18688(v0)
ffffffffa08007f8:	8c430018 	lw	v1,24(v0)
ffffffffa08007fc:	3c020000 	lui	v0,0x0
ffffffffa0800800:	64420000 	daddiu	v0,v0,0
ffffffffa0800804:	00021438 	dsll	v0,v0,0x10
ffffffffa0800808:	6442a081 	daddiu	v0,v0,-24447
ffffffffa080080c:	00021438 	dsll	v0,v0,0x10
ffffffffa0800810:	6444c890 	daddiu	a0,v0,-14192
ffffffffa0800814:	0060282d 	move	a1,v1
ffffffffa0800818:	24061000 	li	a2,4096
ffffffffa080081c:	0c200164 	jal	ffffffffa0800590 <sd_card_read>
ffffffffa0800820:	00000000 	nop
ffffffffa0800824:	03c0e82d 	move	sp,s8
ffffffffa0800828:	dfbf0008 	ld	ra,8(sp)
ffffffffa080082c:	dfbe0000 	ld	s8,0(sp)
ffffffffa0800830:	67bd0010 	daddiu	sp,sp,16
ffffffffa0800834:	03e00008 	jr	ra
ffffffffa0800838:	00000000 	nop

ffffffffa080083c <write_inodemap>:
ffffffffa080083c:	67bdfff0 	daddiu	sp,sp,-16
ffffffffa0800840:	ffbf0008 	sd	ra,8(sp)
ffffffffa0800844:	ffbe0000 	sd	s8,0(sp)
ffffffffa0800848:	03a0f02d 	move	s8,sp
ffffffffa080084c:	3c020000 	lui	v0,0x0
ffffffffa0800850:	64420000 	daddiu	v0,v0,0
ffffffffa0800854:	00021438 	dsll	v0,v0,0x10
ffffffffa0800858:	6442a081 	daddiu	v0,v0,-24447
ffffffffa080085c:	00021438 	dsll	v0,v0,0x10
ffffffffa0800860:	dc42b700 	ld	v0,-18688(v0)
ffffffffa0800864:	8c430018 	lw	v1,24(v0)
ffffffffa0800868:	3c020000 	lui	v0,0x0
ffffffffa080086c:	64420000 	daddiu	v0,v0,0
ffffffffa0800870:	00021438 	dsll	v0,v0,0x10
ffffffffa0800874:	6442a081 	daddiu	v0,v0,-24447
ffffffffa0800878:	00021438 	dsll	v0,v0,0x10
ffffffffa080087c:	6444c890 	daddiu	a0,v0,-14192
ffffffffa0800880:	0060282d 	move	a1,v1
ffffffffa0800884:	24061000 	li	a2,4096
ffffffffa0800888:	0c20017c 	jal	ffffffffa08005f0 <sd_card_write>
ffffffffa080088c:	00000000 	nop
ffffffffa0800890:	03c0e82d 	move	sp,s8
ffffffffa0800894:	dfbf0008 	ld	ra,8(sp)
ffffffffa0800898:	dfbe0000 	ld	s8,0(sp)
ffffffffa080089c:	67bd0010 	daddiu	sp,sp,16
ffffffffa08008a0:	03e00008 	jr	ra
ffffffffa08008a4:	00000000 	nop

ffffffffa08008a8 <read_inode>:
ffffffffa08008a8:	67bdffd0 	daddiu	sp,sp,-48
ffffffffa08008ac:	ffbf0028 	sd	ra,40(sp)
ffffffffa08008b0:	ffbe0020 	sd	s8,32(sp)
ffffffffa08008b4:	03a0f02d 	move	s8,sp
ffffffffa08008b8:	0080102d 	move	v0,a0
ffffffffa08008bc:	00021000 	sll	v0,v0,0x0
ffffffffa08008c0:	afc20010 	sw	v0,16(s8)
ffffffffa08008c4:	8fc20010 	lw	v0,16(s8)
ffffffffa08008c8:	00021142 	srl	v0,v0,0x5
ffffffffa08008cc:	afc20000 	sw	v0,0(s8)
ffffffffa08008d0:	8fc20010 	lw	v0,16(s8)
ffffffffa08008d4:	3042001f 	andi	v0,v0,0x1f
ffffffffa08008d8:	afc20004 	sw	v0,4(s8)
ffffffffa08008dc:	3c020000 	lui	v0,0x0
ffffffffa08008e0:	64420000 	daddiu	v0,v0,0
ffffffffa08008e4:	00021438 	dsll	v0,v0,0x10
ffffffffa08008e8:	6442a081 	daddiu	v0,v0,-24447
ffffffffa08008ec:	00021438 	dsll	v0,v0,0x10
ffffffffa08008f0:	dc42b700 	ld	v0,-18688(v0)
ffffffffa08008f4:	8c430020 	lw	v1,32(v0)
ffffffffa08008f8:	8fc20000 	lw	v0,0(s8)
ffffffffa08008fc:	00021300 	sll	v0,v0,0xc
ffffffffa0800900:	00621021 	addu	v0,v1,v0
ffffffffa0800904:	3c04a800 	lui	a0,0xa800
ffffffffa0800908:	0040282d 	move	a1,v0
ffffffffa080090c:	24061000 	li	a2,4096
ffffffffa0800910:	0c200164 	jal	ffffffffa0800590 <sd_card_read>
ffffffffa0800914:	00000000 	nop
ffffffffa0800918:	9fc20004 	lwu	v0,4(s8)
ffffffffa080091c:	000219f8 	dsll	v1,v0,0x7
ffffffffa0800920:	3c02a800 	lui	v0,0xa800
ffffffffa0800924:	0062102d 	daddu	v0,v1,v0
ffffffffa0800928:	0040182d 	move	v1,v0
ffffffffa080092c:	3c020000 	lui	v0,0x0
ffffffffa0800930:	64420000 	daddiu	v0,v0,0
ffffffffa0800934:	00021438 	dsll	v0,v0,0x10
ffffffffa0800938:	6442a081 	daddiu	v0,v0,-24447
ffffffffa080093c:	00021438 	dsll	v0,v0,0x10
ffffffffa0800940:	64441890 	daddiu	a0,v0,6288
ffffffffa0800944:	0060282d 	move	a1,v1
ffffffffa0800948:	24060080 	li	a2,128
ffffffffa080094c:	0c20206a 	jal	ffffffffa08081a8 <memcpy>
ffffffffa0800950:	00000000 	nop
ffffffffa0800954:	03c0e82d 	move	sp,s8
ffffffffa0800958:	dfbf0028 	ld	ra,40(sp)
ffffffffa080095c:	dfbe0020 	ld	s8,32(sp)
ffffffffa0800960:	67bd0030 	daddiu	sp,sp,48
ffffffffa0800964:	03e00008 	jr	ra
ffffffffa0800968:	00000000 	nop

ffffffffa080096c <write_inode>:
ffffffffa080096c:	67bdffd0 	daddiu	sp,sp,-48
ffffffffa0800970:	ffbf0028 	sd	ra,40(sp)
ffffffffa0800974:	ffbe0020 	sd	s8,32(sp)
ffffffffa0800978:	03a0f02d 	move	s8,sp
ffffffffa080097c:	0080102d 	move	v0,a0
ffffffffa0800980:	00021000 	sll	v0,v0,0x0
ffffffffa0800984:	afc20010 	sw	v0,16(s8)
ffffffffa0800988:	8fc20010 	lw	v0,16(s8)
ffffffffa080098c:	00021142 	srl	v0,v0,0x5
ffffffffa0800990:	afc20000 	sw	v0,0(s8)
ffffffffa0800994:	8fc20010 	lw	v0,16(s8)
ffffffffa0800998:	3042001f 	andi	v0,v0,0x1f
ffffffffa080099c:	afc20004 	sw	v0,4(s8)
ffffffffa08009a0:	3c020000 	lui	v0,0x0
ffffffffa08009a4:	64420000 	daddiu	v0,v0,0
ffffffffa08009a8:	00021438 	dsll	v0,v0,0x10
ffffffffa08009ac:	6442a081 	daddiu	v0,v0,-24447
ffffffffa08009b0:	00021438 	dsll	v0,v0,0x10
ffffffffa08009b4:	dc42b700 	ld	v0,-18688(v0)
ffffffffa08009b8:	8c430020 	lw	v1,32(v0)
ffffffffa08009bc:	8fc20000 	lw	v0,0(s8)
ffffffffa08009c0:	00021300 	sll	v0,v0,0xc
ffffffffa08009c4:	00621021 	addu	v0,v1,v0
ffffffffa08009c8:	3c04a800 	lui	a0,0xa800
ffffffffa08009cc:	0040282d 	move	a1,v0
ffffffffa08009d0:	24061000 	li	a2,4096
ffffffffa08009d4:	0c200164 	jal	ffffffffa0800590 <sd_card_read>
ffffffffa08009d8:	00000000 	nop
ffffffffa08009dc:	9fc20004 	lwu	v0,4(s8)
ffffffffa08009e0:	000219f8 	dsll	v1,v0,0x7
ffffffffa08009e4:	3c02a800 	lui	v0,0xa800
ffffffffa08009e8:	0062102d 	daddu	v0,v1,v0
ffffffffa08009ec:	0040202d 	move	a0,v0
ffffffffa08009f0:	3c020000 	lui	v0,0x0
ffffffffa08009f4:	64420000 	daddiu	v0,v0,0
ffffffffa08009f8:	00021438 	dsll	v0,v0,0x10
ffffffffa08009fc:	6442a081 	daddiu	v0,v0,-24447
ffffffffa0800a00:	00021438 	dsll	v0,v0,0x10
ffffffffa0800a04:	64451890 	daddiu	a1,v0,6288
ffffffffa0800a08:	24060080 	li	a2,128
ffffffffa0800a0c:	0c20206a 	jal	ffffffffa08081a8 <memcpy>
ffffffffa0800a10:	00000000 	nop
ffffffffa0800a14:	3c020000 	lui	v0,0x0
ffffffffa0800a18:	64420000 	daddiu	v0,v0,0
ffffffffa0800a1c:	00021438 	dsll	v0,v0,0x10
ffffffffa0800a20:	6442a081 	daddiu	v0,v0,-24447
ffffffffa0800a24:	00021438 	dsll	v0,v0,0x10
ffffffffa0800a28:	dc42b700 	ld	v0,-18688(v0)
ffffffffa0800a2c:	8c430020 	lw	v1,32(v0)
ffffffffa0800a30:	8fc20000 	lw	v0,0(s8)
ffffffffa0800a34:	00021300 	sll	v0,v0,0xc
ffffffffa0800a38:	00621021 	addu	v0,v1,v0
ffffffffa0800a3c:	3c04a800 	lui	a0,0xa800
ffffffffa0800a40:	0040282d 	move	a1,v0
ffffffffa0800a44:	24061000 	li	a2,4096
ffffffffa0800a48:	0c20017c 	jal	ffffffffa08005f0 <sd_card_write>
ffffffffa0800a4c:	00000000 	nop
ffffffffa0800a50:	03c0e82d 	move	sp,s8
ffffffffa0800a54:	dfbf0028 	ld	ra,40(sp)
ffffffffa0800a58:	dfbe0020 	ld	s8,32(sp)
ffffffffa0800a5c:	67bd0030 	daddiu	sp,sp,48
ffffffffa0800a60:	03e00008 	jr	ra
ffffffffa0800a64:	00000000 	nop

ffffffffa0800a68 <read_block>:
ffffffffa0800a68:	67bdffe0 	daddiu	sp,sp,-32
ffffffffa0800a6c:	ffbf0018 	sd	ra,24(sp)
ffffffffa0800a70:	ffbe0010 	sd	s8,16(sp)
ffffffffa0800a74:	03a0f02d 	move	s8,sp
ffffffffa0800a78:	0080102d 	move	v0,a0
ffffffffa0800a7c:	00021000 	sll	v0,v0,0x0
ffffffffa0800a80:	afc20000 	sw	v0,0(s8)
ffffffffa0800a84:	8fc30000 	lw	v1,0(s8)
ffffffffa0800a88:	3c020002 	lui	v0,0x2
ffffffffa0800a8c:	00621021 	addu	v0,v1,v0
ffffffffa0800a90:	00021300 	sll	v0,v0,0xc
ffffffffa0800a94:	3c04a800 	lui	a0,0xa800
ffffffffa0800a98:	0040282d 	move	a1,v0
ffffffffa0800a9c:	24061000 	li	a2,4096
ffffffffa0800aa0:	0c200164 	jal	ffffffffa0800590 <sd_card_read>
ffffffffa0800aa4:	00000000 	nop
ffffffffa0800aa8:	03c0e82d 	move	sp,s8
ffffffffa0800aac:	dfbf0018 	ld	ra,24(sp)
ffffffffa0800ab0:	dfbe0010 	ld	s8,16(sp)
ffffffffa0800ab4:	67bd0020 	daddiu	sp,sp,32
ffffffffa0800ab8:	03e00008 	jr	ra
ffffffffa0800abc:	00000000 	nop

ffffffffa0800ac0 <write_block>:
ffffffffa0800ac0:	67bdffe0 	daddiu	sp,sp,-32
ffffffffa0800ac4:	ffbf0018 	sd	ra,24(sp)
ffffffffa0800ac8:	ffbe0010 	sd	s8,16(sp)
ffffffffa0800acc:	03a0f02d 	move	s8,sp
ffffffffa0800ad0:	0080102d 	move	v0,a0
ffffffffa0800ad4:	00021000 	sll	v0,v0,0x0
ffffffffa0800ad8:	afc20000 	sw	v0,0(s8)
ffffffffa0800adc:	8fc30000 	lw	v1,0(s8)
ffffffffa0800ae0:	3c020002 	lui	v0,0x2
ffffffffa0800ae4:	00621021 	addu	v0,v1,v0
ffffffffa0800ae8:	00021300 	sll	v0,v0,0xc
ffffffffa0800aec:	3c04a800 	lui	a0,0xa800
ffffffffa0800af0:	0040282d 	move	a1,v0
ffffffffa0800af4:	24061000 	li	a2,4096
ffffffffa0800af8:	0c20017c 	jal	ffffffffa08005f0 <sd_card_write>
ffffffffa0800afc:	00000000 	nop
ffffffffa0800b00:	03c0e82d 	move	sp,s8
ffffffffa0800b04:	dfbf0018 	ld	ra,24(sp)
ffffffffa0800b08:	dfbe0010 	ld	s8,16(sp)
ffffffffa0800b0c:	67bd0020 	daddiu	sp,sp,32
ffffffffa0800b10:	03e00008 	jr	ra
ffffffffa0800b14:	00000000 	nop

ffffffffa0800b18 <alloc_inode>:
ffffffffa0800b18:	67bdffe0 	daddiu	sp,sp,-32
ffffffffa0800b1c:	ffbf0018 	sd	ra,24(sp)
ffffffffa0800b20:	ffbe0010 	sd	s8,16(sp)
ffffffffa0800b24:	03a0f02d 	move	s8,sp
ffffffffa0800b28:	0c2001f4 	jal	ffffffffa08007d0 <read_inodemap>
ffffffffa0800b2c:	00000000 	nop
ffffffffa0800b30:	afc00000 	sw	zero,0(s8)
ffffffffa0800b34:	082002e0 	j	ffffffffa0800b80 <alloc_inode+0x68>
ffffffffa0800b38:	00000000 	nop
ffffffffa0800b3c:	3c020000 	lui	v0,0x0
ffffffffa0800b40:	64420000 	daddiu	v0,v0,0
ffffffffa0800b44:	00021438 	dsll	v0,v0,0x10
ffffffffa0800b48:	6442a081 	daddiu	v0,v0,-24447
ffffffffa0800b4c:	00021438 	dsll	v0,v0,0x10
ffffffffa0800b50:	8fc30000 	lw	v1,0(s8)
ffffffffa0800b54:	6442c890 	daddiu	v0,v0,-14192
ffffffffa0800b58:	0062102d 	daddu	v0,v1,v0
ffffffffa0800b5c:	90430000 	lbu	v1,0(v0)
ffffffffa0800b60:	240200ff 	li	v0,255
ffffffffa0800b64:	10620003 	beq	v1,v0,ffffffffa0800b74 <alloc_inode+0x5c>
ffffffffa0800b68:	00000000 	nop
ffffffffa0800b6c:	082002e4 	j	ffffffffa0800b90 <alloc_inode+0x78>
ffffffffa0800b70:	00000000 	nop
ffffffffa0800b74:	8fc20000 	lw	v0,0(s8)
ffffffffa0800b78:	24420001 	addiu	v0,v0,1
ffffffffa0800b7c:	afc20000 	sw	v0,0(s8)
ffffffffa0800b80:	8fc20000 	lw	v0,0(s8)
ffffffffa0800b84:	28421000 	slti	v0,v0,4096
ffffffffa0800b88:	1440ffec 	bnez	v0,ffffffffa0800b3c <alloc_inode+0x24>
ffffffffa0800b8c:	00000000 	nop
ffffffffa0800b90:	3c020000 	lui	v0,0x0
ffffffffa0800b94:	64420000 	daddiu	v0,v0,0
ffffffffa0800b98:	00021438 	dsll	v0,v0,0x10
ffffffffa0800b9c:	6442a081 	daddiu	v0,v0,-24447
ffffffffa0800ba0:	00021438 	dsll	v0,v0,0x10
ffffffffa0800ba4:	8fc30000 	lw	v1,0(s8)
ffffffffa0800ba8:	6442c890 	daddiu	v0,v0,-14192
ffffffffa0800bac:	0062102d 	daddu	v0,v1,v0
ffffffffa0800bb0:	90420000 	lbu	v0,0(v0)
ffffffffa0800bb4:	a3c20008 	sb	v0,8(s8)
ffffffffa0800bb8:	afc00004 	sw	zero,4(s8)
ffffffffa0800bbc:	082002fd 	j	ffffffffa0800bf4 <alloc_inode+0xdc>
ffffffffa0800bc0:	00000000 	nop
ffffffffa0800bc4:	93c20008 	lbu	v0,8(s8)
ffffffffa0800bc8:	30420001 	andi	v0,v0,0x1
ffffffffa0800bcc:	14400003 	bnez	v0,ffffffffa0800bdc <alloc_inode+0xc4>
ffffffffa0800bd0:	00000000 	nop
ffffffffa0800bd4:	08200301 	j	ffffffffa0800c04 <alloc_inode+0xec>
ffffffffa0800bd8:	00000000 	nop
ffffffffa0800bdc:	93c20008 	lbu	v0,8(s8)
ffffffffa0800be0:	00021042 	srl	v0,v0,0x1
ffffffffa0800be4:	a3c20008 	sb	v0,8(s8)
ffffffffa0800be8:	8fc20004 	lw	v0,4(s8)
ffffffffa0800bec:	24420001 	addiu	v0,v0,1
ffffffffa0800bf0:	afc20004 	sw	v0,4(s8)
ffffffffa0800bf4:	8fc20004 	lw	v0,4(s8)
ffffffffa0800bf8:	28420008 	slti	v0,v0,8
ffffffffa0800bfc:	1440fff1 	bnez	v0,ffffffffa0800bc4 <alloc_inode+0xac>
ffffffffa0800c00:	00000000 	nop
ffffffffa0800c04:	24030001 	li	v1,1
ffffffffa0800c08:	8fc20004 	lw	v0,4(s8)
ffffffffa0800c0c:	00431004 	sllv	v0,v1,v0
ffffffffa0800c10:	a3c20008 	sb	v0,8(s8)
ffffffffa0800c14:	3c020000 	lui	v0,0x0
ffffffffa0800c18:	64420000 	daddiu	v0,v0,0
ffffffffa0800c1c:	00021438 	dsll	v0,v0,0x10
ffffffffa0800c20:	6442a081 	daddiu	v0,v0,-24447
ffffffffa0800c24:	00021438 	dsll	v0,v0,0x10
ffffffffa0800c28:	8fc30000 	lw	v1,0(s8)
ffffffffa0800c2c:	6442c890 	daddiu	v0,v0,-14192
ffffffffa0800c30:	0062102d 	daddu	v0,v1,v0
ffffffffa0800c34:	90430000 	lbu	v1,0(v0)
ffffffffa0800c38:	93c20008 	lbu	v0,8(s8)
ffffffffa0800c3c:	00621025 	or	v0,v1,v0
ffffffffa0800c40:	304300ff 	andi	v1,v0,0xff
ffffffffa0800c44:	3c020000 	lui	v0,0x0
ffffffffa0800c48:	64420000 	daddiu	v0,v0,0
ffffffffa0800c4c:	00021438 	dsll	v0,v0,0x10
ffffffffa0800c50:	6442a081 	daddiu	v0,v0,-24447
ffffffffa0800c54:	00021438 	dsll	v0,v0,0x10
ffffffffa0800c58:	8fc40000 	lw	a0,0(s8)
ffffffffa0800c5c:	6442c890 	daddiu	v0,v0,-14192
ffffffffa0800c60:	0082102d 	daddu	v0,a0,v0
ffffffffa0800c64:	a0430000 	sb	v1,0(v0)
ffffffffa0800c68:	0c20020f 	jal	ffffffffa080083c <write_inodemap>
ffffffffa0800c6c:	00000000 	nop
ffffffffa0800c70:	0c2001a9 	jal	ffffffffa08006a4 <write_superblock>
ffffffffa0800c74:	00000000 	nop
ffffffffa0800c78:	8fc20000 	lw	v0,0(s8)
ffffffffa0800c7c:	000210c0 	sll	v0,v0,0x3
ffffffffa0800c80:	8fc30004 	lw	v1,4(s8)
ffffffffa0800c84:	00621021 	addu	v0,v1,v0
ffffffffa0800c88:	03c0e82d 	move	sp,s8
ffffffffa0800c8c:	dfbf0018 	ld	ra,24(sp)
ffffffffa0800c90:	dfbe0010 	ld	s8,16(sp)
ffffffffa0800c94:	67bd0020 	daddiu	sp,sp,32
ffffffffa0800c98:	03e00008 	jr	ra
ffffffffa0800c9c:	00000000 	nop

ffffffffa0800ca0 <free_inode>:
ffffffffa0800ca0:	67bdffd0 	daddiu	sp,sp,-48
ffffffffa0800ca4:	ffbf0028 	sd	ra,40(sp)
ffffffffa0800ca8:	ffbe0020 	sd	s8,32(sp)
ffffffffa0800cac:	03a0f02d 	move	s8,sp
ffffffffa0800cb0:	0080102d 	move	v0,a0
ffffffffa0800cb4:	00021000 	sll	v0,v0,0x0
ffffffffa0800cb8:	afc20010 	sw	v0,16(s8)
ffffffffa0800cbc:	8fc20010 	lw	v0,16(s8)
ffffffffa0800cc0:	000210c2 	srl	v0,v0,0x3
ffffffffa0800cc4:	afc20000 	sw	v0,0(s8)
ffffffffa0800cc8:	8fc20010 	lw	v0,16(s8)
ffffffffa0800ccc:	30420007 	andi	v0,v0,0x7
ffffffffa0800cd0:	afc20004 	sw	v0,4(s8)
ffffffffa0800cd4:	24030001 	li	v1,1
ffffffffa0800cd8:	8fc20004 	lw	v0,4(s8)
ffffffffa0800cdc:	00431004 	sllv	v0,v1,v0
ffffffffa0800ce0:	a3c20008 	sb	v0,8(s8)
ffffffffa0800ce4:	0c2001f4 	jal	ffffffffa08007d0 <read_inodemap>
ffffffffa0800ce8:	00000000 	nop
ffffffffa0800cec:	3c020000 	lui	v0,0x0
ffffffffa0800cf0:	64420000 	daddiu	v0,v0,0
ffffffffa0800cf4:	00021438 	dsll	v0,v0,0x10
ffffffffa0800cf8:	6442a081 	daddiu	v0,v0,-24447
ffffffffa0800cfc:	00021438 	dsll	v0,v0,0x10
ffffffffa0800d00:	8fc30000 	lw	v1,0(s8)
ffffffffa0800d04:	6442c890 	daddiu	v0,v0,-14192
ffffffffa0800d08:	0062102d 	daddu	v0,v1,v0
ffffffffa0800d0c:	90420000 	lbu	v0,0(v0)
ffffffffa0800d10:	00021e3c 	dsll32	v1,v0,0x18
ffffffffa0800d14:	00031e3f 	dsra32	v1,v1,0x18
ffffffffa0800d18:	83c20008 	lb	v0,8(s8)
ffffffffa0800d1c:	00021027 	nor	v0,zero,v0
ffffffffa0800d20:	0002163c 	dsll32	v0,v0,0x18
ffffffffa0800d24:	0002163f 	dsra32	v0,v0,0x18
ffffffffa0800d28:	00621024 	and	v0,v1,v0
ffffffffa0800d2c:	0002163c 	dsll32	v0,v0,0x18
ffffffffa0800d30:	0002163f 	dsra32	v0,v0,0x18
ffffffffa0800d34:	304300ff 	andi	v1,v0,0xff
ffffffffa0800d38:	3c020000 	lui	v0,0x0
ffffffffa0800d3c:	64420000 	daddiu	v0,v0,0
ffffffffa0800d40:	00021438 	dsll	v0,v0,0x10
ffffffffa0800d44:	6442a081 	daddiu	v0,v0,-24447
ffffffffa0800d48:	00021438 	dsll	v0,v0,0x10
ffffffffa0800d4c:	8fc40000 	lw	a0,0(s8)
ffffffffa0800d50:	6442c890 	daddiu	v0,v0,-14192
ffffffffa0800d54:	0082102d 	daddu	v0,a0,v0
ffffffffa0800d58:	a0430000 	sb	v1,0(v0)
ffffffffa0800d5c:	0c20020f 	jal	ffffffffa080083c <write_inodemap>
ffffffffa0800d60:	00000000 	nop
ffffffffa0800d64:	0c2001a9 	jal	ffffffffa08006a4 <write_superblock>
ffffffffa0800d68:	00000000 	nop
ffffffffa0800d6c:	03c0e82d 	move	sp,s8
ffffffffa0800d70:	dfbf0028 	ld	ra,40(sp)
ffffffffa0800d74:	dfbe0020 	ld	s8,32(sp)
ffffffffa0800d78:	67bd0030 	daddiu	sp,sp,48
ffffffffa0800d7c:	03e00008 	jr	ra
ffffffffa0800d80:	00000000 	nop

ffffffffa0800d84 <alloc_block>:
ffffffffa0800d84:	67bdffe0 	daddiu	sp,sp,-32
ffffffffa0800d88:	ffbf0018 	sd	ra,24(sp)
ffffffffa0800d8c:	ffbe0010 	sd	s8,16(sp)
ffffffffa0800d90:	03a0f02d 	move	s8,sp
ffffffffa0800d94:	0c2001be 	jal	ffffffffa08006f8 <read_blockmap>
ffffffffa0800d98:	00000000 	nop
ffffffffa0800d9c:	afc00000 	sw	zero,0(s8)
ffffffffa0800da0:	0820037b 	j	ffffffffa0800dec <alloc_block+0x68>
ffffffffa0800da4:	00000000 	nop
ffffffffa0800da8:	3c020000 	lui	v0,0x0
ffffffffa0800dac:	64420000 	daddiu	v0,v0,0
ffffffffa0800db0:	00021438 	dsll	v0,v0,0x10
ffffffffa0800db4:	6442a081 	daddiu	v0,v0,-24447
ffffffffa0800db8:	00021438 	dsll	v0,v0,0x10
ffffffffa0800dbc:	8fc30000 	lw	v1,0(s8)
ffffffffa0800dc0:	6442d890 	daddiu	v0,v0,-10096
ffffffffa0800dc4:	0062102d 	daddu	v0,v1,v0
ffffffffa0800dc8:	90430000 	lbu	v1,0(v0)
ffffffffa0800dcc:	240200ff 	li	v0,255
ffffffffa0800dd0:	10620003 	beq	v1,v0,ffffffffa0800de0 <alloc_block+0x5c>
ffffffffa0800dd4:	00000000 	nop
ffffffffa0800dd8:	0820037f 	j	ffffffffa0800dfc <alloc_block+0x78>
ffffffffa0800ddc:	00000000 	nop
ffffffffa0800de0:	8fc20000 	lw	v0,0(s8)
ffffffffa0800de4:	24420001 	addiu	v0,v0,1
ffffffffa0800de8:	afc20000 	sw	v0,0(s8)
ffffffffa0800dec:	8fc20000 	lw	v0,0(s8)
ffffffffa0800df0:	28424000 	slti	v0,v0,16384
ffffffffa0800df4:	1440ffec 	bnez	v0,ffffffffa0800da8 <alloc_block+0x24>
ffffffffa0800df8:	00000000 	nop
ffffffffa0800dfc:	3c020000 	lui	v0,0x0
ffffffffa0800e00:	64420000 	daddiu	v0,v0,0
ffffffffa0800e04:	00021438 	dsll	v0,v0,0x10
ffffffffa0800e08:	6442a081 	daddiu	v0,v0,-24447
ffffffffa0800e0c:	00021438 	dsll	v0,v0,0x10
ffffffffa0800e10:	8fc30000 	lw	v1,0(s8)
ffffffffa0800e14:	6442d890 	daddiu	v0,v0,-10096
ffffffffa0800e18:	0062102d 	daddu	v0,v1,v0
ffffffffa0800e1c:	90420000 	lbu	v0,0(v0)
ffffffffa0800e20:	a3c20008 	sb	v0,8(s8)
ffffffffa0800e24:	afc00004 	sw	zero,4(s8)
ffffffffa0800e28:	08200398 	j	ffffffffa0800e60 <alloc_block+0xdc>
ffffffffa0800e2c:	00000000 	nop
ffffffffa0800e30:	93c20008 	lbu	v0,8(s8)
ffffffffa0800e34:	30420001 	andi	v0,v0,0x1
ffffffffa0800e38:	14400003 	bnez	v0,ffffffffa0800e48 <alloc_block+0xc4>
ffffffffa0800e3c:	00000000 	nop
ffffffffa0800e40:	0820039c 	j	ffffffffa0800e70 <alloc_block+0xec>
ffffffffa0800e44:	00000000 	nop
ffffffffa0800e48:	93c20008 	lbu	v0,8(s8)
ffffffffa0800e4c:	00021042 	srl	v0,v0,0x1
ffffffffa0800e50:	a3c20008 	sb	v0,8(s8)
ffffffffa0800e54:	8fc20004 	lw	v0,4(s8)
ffffffffa0800e58:	24420001 	addiu	v0,v0,1
ffffffffa0800e5c:	afc20004 	sw	v0,4(s8)
ffffffffa0800e60:	8fc20004 	lw	v0,4(s8)
ffffffffa0800e64:	28420008 	slti	v0,v0,8
ffffffffa0800e68:	1440fff1 	bnez	v0,ffffffffa0800e30 <alloc_block+0xac>
ffffffffa0800e6c:	00000000 	nop
ffffffffa0800e70:	24030001 	li	v1,1
ffffffffa0800e74:	8fc20004 	lw	v0,4(s8)
ffffffffa0800e78:	00431004 	sllv	v0,v1,v0
ffffffffa0800e7c:	a3c20008 	sb	v0,8(s8)
ffffffffa0800e80:	3c020000 	lui	v0,0x0
ffffffffa0800e84:	64420000 	daddiu	v0,v0,0
ffffffffa0800e88:	00021438 	dsll	v0,v0,0x10
ffffffffa0800e8c:	6442a081 	daddiu	v0,v0,-24447
ffffffffa0800e90:	00021438 	dsll	v0,v0,0x10
ffffffffa0800e94:	8fc30000 	lw	v1,0(s8)
ffffffffa0800e98:	6442d890 	daddiu	v0,v0,-10096
ffffffffa0800e9c:	0062102d 	daddu	v0,v1,v0
ffffffffa0800ea0:	90430000 	lbu	v1,0(v0)
ffffffffa0800ea4:	93c20008 	lbu	v0,8(s8)
ffffffffa0800ea8:	00621025 	or	v0,v1,v0
ffffffffa0800eac:	304300ff 	andi	v1,v0,0xff
ffffffffa0800eb0:	3c020000 	lui	v0,0x0
ffffffffa0800eb4:	64420000 	daddiu	v0,v0,0
ffffffffa0800eb8:	00021438 	dsll	v0,v0,0x10
ffffffffa0800ebc:	6442a081 	daddiu	v0,v0,-24447
ffffffffa0800ec0:	00021438 	dsll	v0,v0,0x10
ffffffffa0800ec4:	8fc40000 	lw	a0,0(s8)
ffffffffa0800ec8:	6442d890 	daddiu	v0,v0,-10096
ffffffffa0800ecc:	0082102d 	daddu	v0,a0,v0
ffffffffa0800ed0:	a0430000 	sb	v1,0(v0)
ffffffffa0800ed4:	0c2001d9 	jal	ffffffffa0800764 <write_blockmap>
ffffffffa0800ed8:	00000000 	nop
ffffffffa0800edc:	3c020000 	lui	v0,0x0
ffffffffa0800ee0:	64420000 	daddiu	v0,v0,0
ffffffffa0800ee4:	00021438 	dsll	v0,v0,0x10
ffffffffa0800ee8:	6442a081 	daddiu	v0,v0,-24447
ffffffffa0800eec:	00021438 	dsll	v0,v0,0x10
ffffffffa0800ef0:	dc42b700 	ld	v0,-18688(v0)
ffffffffa0800ef4:	8c43000c 	lw	v1,12(v0)
ffffffffa0800ef8:	24630001 	addiu	v1,v1,1
ffffffffa0800efc:	ac43000c 	sw	v1,12(v0)
ffffffffa0800f00:	0c2001a9 	jal	ffffffffa08006a4 <write_superblock>
ffffffffa0800f04:	00000000 	nop
ffffffffa0800f08:	8fc20000 	lw	v0,0(s8)
ffffffffa0800f0c:	000210c0 	sll	v0,v0,0x3
ffffffffa0800f10:	8fc30004 	lw	v1,4(s8)
ffffffffa0800f14:	00621021 	addu	v0,v1,v0
ffffffffa0800f18:	03c0e82d 	move	sp,s8
ffffffffa0800f1c:	dfbf0018 	ld	ra,24(sp)
ffffffffa0800f20:	dfbe0010 	ld	s8,16(sp)
ffffffffa0800f24:	67bd0020 	daddiu	sp,sp,32
ffffffffa0800f28:	03e00008 	jr	ra
ffffffffa0800f2c:	00000000 	nop

ffffffffa0800f30 <free_block>:
ffffffffa0800f30:	67bdffd0 	daddiu	sp,sp,-48
ffffffffa0800f34:	ffbf0028 	sd	ra,40(sp)
ffffffffa0800f38:	ffbe0020 	sd	s8,32(sp)
ffffffffa0800f3c:	03a0f02d 	move	s8,sp
ffffffffa0800f40:	0080102d 	move	v0,a0
ffffffffa0800f44:	00021000 	sll	v0,v0,0x0
ffffffffa0800f48:	afc20010 	sw	v0,16(s8)
ffffffffa0800f4c:	8fc20010 	lw	v0,16(s8)
ffffffffa0800f50:	000210c2 	srl	v0,v0,0x3
ffffffffa0800f54:	afc20000 	sw	v0,0(s8)
ffffffffa0800f58:	8fc20010 	lw	v0,16(s8)
ffffffffa0800f5c:	30420007 	andi	v0,v0,0x7
ffffffffa0800f60:	afc20004 	sw	v0,4(s8)
ffffffffa0800f64:	24030001 	li	v1,1
ffffffffa0800f68:	8fc20004 	lw	v0,4(s8)
ffffffffa0800f6c:	00431004 	sllv	v0,v1,v0
ffffffffa0800f70:	a3c20008 	sb	v0,8(s8)
ffffffffa0800f74:	0c2001be 	jal	ffffffffa08006f8 <read_blockmap>
ffffffffa0800f78:	00000000 	nop
ffffffffa0800f7c:	3c020000 	lui	v0,0x0
ffffffffa0800f80:	64420000 	daddiu	v0,v0,0
ffffffffa0800f84:	00021438 	dsll	v0,v0,0x10
ffffffffa0800f88:	6442a081 	daddiu	v0,v0,-24447
ffffffffa0800f8c:	00021438 	dsll	v0,v0,0x10
ffffffffa0800f90:	8fc30000 	lw	v1,0(s8)
ffffffffa0800f94:	6442d890 	daddiu	v0,v0,-10096
ffffffffa0800f98:	0062102d 	daddu	v0,v1,v0
ffffffffa0800f9c:	90420000 	lbu	v0,0(v0)
ffffffffa0800fa0:	00021e3c 	dsll32	v1,v0,0x18
ffffffffa0800fa4:	00031e3f 	dsra32	v1,v1,0x18
ffffffffa0800fa8:	83c20008 	lb	v0,8(s8)
ffffffffa0800fac:	00021027 	nor	v0,zero,v0
ffffffffa0800fb0:	0002163c 	dsll32	v0,v0,0x18
ffffffffa0800fb4:	0002163f 	dsra32	v0,v0,0x18
ffffffffa0800fb8:	00621024 	and	v0,v1,v0
ffffffffa0800fbc:	0002163c 	dsll32	v0,v0,0x18
ffffffffa0800fc0:	0002163f 	dsra32	v0,v0,0x18
ffffffffa0800fc4:	304300ff 	andi	v1,v0,0xff
ffffffffa0800fc8:	3c020000 	lui	v0,0x0
ffffffffa0800fcc:	64420000 	daddiu	v0,v0,0
ffffffffa0800fd0:	00021438 	dsll	v0,v0,0x10
ffffffffa0800fd4:	6442a081 	daddiu	v0,v0,-24447
ffffffffa0800fd8:	00021438 	dsll	v0,v0,0x10
ffffffffa0800fdc:	8fc40000 	lw	a0,0(s8)
ffffffffa0800fe0:	6442d890 	daddiu	v0,v0,-10096
ffffffffa0800fe4:	0082102d 	daddu	v0,a0,v0
ffffffffa0800fe8:	a0430000 	sb	v1,0(v0)
ffffffffa0800fec:	0c2001d9 	jal	ffffffffa0800764 <write_blockmap>
ffffffffa0800ff0:	00000000 	nop
ffffffffa0800ff4:	3c020000 	lui	v0,0x0
ffffffffa0800ff8:	64420000 	daddiu	v0,v0,0
ffffffffa0800ffc:	00021438 	dsll	v0,v0,0x10
ffffffffa0801000:	6442a081 	daddiu	v0,v0,-24447
ffffffffa0801004:	00021438 	dsll	v0,v0,0x10
ffffffffa0801008:	dc42b700 	ld	v0,-18688(v0)
ffffffffa080100c:	8c43000c 	lw	v1,12(v0)
ffffffffa0801010:	2463ffff 	addiu	v1,v1,-1
ffffffffa0801014:	ac43000c 	sw	v1,12(v0)
ffffffffa0801018:	0c2001a9 	jal	ffffffffa08006a4 <write_superblock>
ffffffffa080101c:	00000000 	nop
ffffffffa0801020:	03c0e82d 	move	sp,s8
ffffffffa0801024:	dfbf0028 	ld	ra,40(sp)
ffffffffa0801028:	dfbe0020 	ld	s8,32(sp)
ffffffffa080102c:	67bd0030 	daddiu	sp,sp,48
ffffffffa0801030:	03e00008 	jr	ra
ffffffffa0801034:	00000000 	nop

ffffffffa0801038 <init_superblock>:
ffffffffa0801038:	67bdfff0 	daddiu	sp,sp,-16
ffffffffa080103c:	ffbf0008 	sd	ra,8(sp)
ffffffffa0801040:	ffbe0000 	sd	s8,0(sp)
ffffffffa0801044:	03a0f02d 	move	s8,sp
ffffffffa0801048:	3c020000 	lui	v0,0x0
ffffffffa080104c:	64420000 	daddiu	v0,v0,0
ffffffffa0801050:	00021438 	dsll	v0,v0,0x10
ffffffffa0801054:	6442a081 	daddiu	v0,v0,-24447
ffffffffa0801058:	00021438 	dsll	v0,v0,0x10
ffffffffa080105c:	6444b890 	daddiu	a0,v0,-18288
ffffffffa0801060:	24051000 	li	a1,4096
ffffffffa0801064:	0c2020a5 	jal	ffffffffa0808294 <bzero>
ffffffffa0801068:	00000000 	nop
ffffffffa080106c:	3c020000 	lui	v0,0x0
ffffffffa0801070:	64420000 	daddiu	v0,v0,0
ffffffffa0801074:	00021438 	dsll	v0,v0,0x10
ffffffffa0801078:	6442a081 	daddiu	v0,v0,-24447
ffffffffa080107c:	00021438 	dsll	v0,v0,0x10
ffffffffa0801080:	dc42b700 	ld	v0,-18688(v0)
ffffffffa0801084:	3c036666 	lui	v1,0x6666
ffffffffa0801088:	34636666 	ori	v1,v1,0x6666
ffffffffa080108c:	ac430000 	sw	v1,0(v0)
ffffffffa0801090:	3c020000 	lui	v0,0x0
ffffffffa0801094:	64420000 	daddiu	v0,v0,0
ffffffffa0801098:	00021438 	dsll	v0,v0,0x10
ffffffffa080109c:	6442a081 	daddiu	v0,v0,-24447
ffffffffa08010a0:	00021438 	dsll	v0,v0,0x10
ffffffffa08010a4:	dc42b700 	ld	v0,-18688(v0)
ffffffffa08010a8:	3c032000 	lui	v1,0x2000
ffffffffa08010ac:	ac430004 	sw	v1,4(v0)
ffffffffa08010b0:	3c020000 	lui	v0,0x0
ffffffffa08010b4:	64420000 	daddiu	v0,v0,0
ffffffffa08010b8:	00021438 	dsll	v0,v0,0x10
ffffffffa08010bc:	6442a081 	daddiu	v0,v0,-24447
ffffffffa08010c0:	00021438 	dsll	v0,v0,0x10
ffffffffa08010c4:	dc42b700 	ld	v0,-18688(v0)
ffffffffa08010c8:	3c030002 	lui	v1,0x2
ffffffffa08010cc:	ac430008 	sw	v1,8(v0)
ffffffffa08010d0:	3c020000 	lui	v0,0x0
ffffffffa08010d4:	64420000 	daddiu	v0,v0,0
ffffffffa08010d8:	00021438 	dsll	v0,v0,0x10
ffffffffa08010dc:	6442a081 	daddiu	v0,v0,-24447
ffffffffa08010e0:	00021438 	dsll	v0,v0,0x10
ffffffffa08010e4:	dc42b700 	ld	v0,-18688(v0)
ffffffffa08010e8:	3c032000 	lui	v1,0x2000
ffffffffa08010ec:	34631000 	ori	v1,v1,0x1000
ffffffffa08010f0:	ac430010 	sw	v1,16(v0)
ffffffffa08010f4:	3c020000 	lui	v0,0x0
ffffffffa08010f8:	64420000 	daddiu	v0,v0,0
ffffffffa08010fc:	00021438 	dsll	v0,v0,0x10
ffffffffa0801100:	6442a081 	daddiu	v0,v0,-24447
ffffffffa0801104:	00021438 	dsll	v0,v0,0x10
ffffffffa0801108:	dc42b700 	ld	v0,-18688(v0)
ffffffffa080110c:	24034000 	li	v1,16384
ffffffffa0801110:	ac430014 	sw	v1,20(v0)
ffffffffa0801114:	3c020000 	lui	v0,0x0
ffffffffa0801118:	64420000 	daddiu	v0,v0,0
ffffffffa080111c:	00021438 	dsll	v0,v0,0x10
ffffffffa0801120:	6442a081 	daddiu	v0,v0,-24447
ffffffffa0801124:	00021438 	dsll	v0,v0,0x10
ffffffffa0801128:	dc42b700 	ld	v0,-18688(v0)
ffffffffa080112c:	3c030000 	lui	v1,0x0
ffffffffa0801130:	64630000 	daddiu	v1,v1,0
ffffffffa0801134:	00031c38 	dsll	v1,v1,0x10
ffffffffa0801138:	6463a081 	daddiu	v1,v1,-24447
ffffffffa080113c:	00031c38 	dsll	v1,v1,0x10
ffffffffa0801140:	dc63b700 	ld	v1,-18688(v1)
ffffffffa0801144:	8c640010 	lw	a0,16(v1)
ffffffffa0801148:	3c030000 	lui	v1,0x0
ffffffffa080114c:	64630000 	daddiu	v1,v1,0
ffffffffa0801150:	00031c38 	dsll	v1,v1,0x10
ffffffffa0801154:	6463a081 	daddiu	v1,v1,-24447
ffffffffa0801158:	00031c38 	dsll	v1,v1,0x10
ffffffffa080115c:	dc63b700 	ld	v1,-18688(v1)
ffffffffa0801160:	8c630014 	lw	v1,20(v1)
ffffffffa0801164:	00831821 	addu	v1,a0,v1
ffffffffa0801168:	ac430018 	sw	v1,24(v0)
ffffffffa080116c:	3c020000 	lui	v0,0x0
ffffffffa0801170:	64420000 	daddiu	v0,v0,0
ffffffffa0801174:	00021438 	dsll	v0,v0,0x10
ffffffffa0801178:	6442a081 	daddiu	v0,v0,-24447
ffffffffa080117c:	00021438 	dsll	v0,v0,0x10
ffffffffa0801180:	dc42b700 	ld	v0,-18688(v0)
ffffffffa0801184:	24031000 	li	v1,4096
ffffffffa0801188:	ac43001c 	sw	v1,28(v0)
ffffffffa080118c:	3c020000 	lui	v0,0x0
ffffffffa0801190:	64420000 	daddiu	v0,v0,0
ffffffffa0801194:	00021438 	dsll	v0,v0,0x10
ffffffffa0801198:	6442a081 	daddiu	v0,v0,-24447
ffffffffa080119c:	00021438 	dsll	v0,v0,0x10
ffffffffa08011a0:	dc42b700 	ld	v0,-18688(v0)
ffffffffa08011a4:	3c030000 	lui	v1,0x0
ffffffffa08011a8:	64630000 	daddiu	v1,v1,0
ffffffffa08011ac:	00031c38 	dsll	v1,v1,0x10
ffffffffa08011b0:	6463a081 	daddiu	v1,v1,-24447
ffffffffa08011b4:	00031c38 	dsll	v1,v1,0x10
ffffffffa08011b8:	dc63b700 	ld	v1,-18688(v1)
ffffffffa08011bc:	8c640018 	lw	a0,24(v1)
ffffffffa08011c0:	3c030000 	lui	v1,0x0
ffffffffa08011c4:	64630000 	daddiu	v1,v1,0
ffffffffa08011c8:	00031c38 	dsll	v1,v1,0x10
ffffffffa08011cc:	6463a081 	daddiu	v1,v1,-24447
ffffffffa08011d0:	00031c38 	dsll	v1,v1,0x10
ffffffffa08011d4:	dc63b700 	ld	v1,-18688(v1)
ffffffffa08011d8:	8c63001c 	lw	v1,28(v1)
ffffffffa08011dc:	00831821 	addu	v1,a0,v1
ffffffffa08011e0:	ac430020 	sw	v1,32(v0)
ffffffffa08011e4:	3c020000 	lui	v0,0x0
ffffffffa08011e8:	64420000 	daddiu	v0,v0,0
ffffffffa08011ec:	00021438 	dsll	v0,v0,0x10
ffffffffa08011f0:	6442a081 	daddiu	v0,v0,-24447
ffffffffa08011f4:	00021438 	dsll	v0,v0,0x10
ffffffffa08011f8:	dc42b700 	ld	v0,-18688(v0)
ffffffffa08011fc:	3c030020 	lui	v1,0x20
ffffffffa0801200:	ac430024 	sw	v1,36(v0)
ffffffffa0801204:	3c020000 	lui	v0,0x0
ffffffffa0801208:	64420000 	daddiu	v0,v0,0
ffffffffa080120c:	00021438 	dsll	v0,v0,0x10
ffffffffa0801210:	6442a081 	daddiu	v0,v0,-24447
ffffffffa0801214:	00021438 	dsll	v0,v0,0x10
ffffffffa0801218:	dc42b700 	ld	v0,-18688(v0)
ffffffffa080121c:	3c030000 	lui	v1,0x0
ffffffffa0801220:	64630000 	daddiu	v1,v1,0
ffffffffa0801224:	00031c38 	dsll	v1,v1,0x10
ffffffffa0801228:	6463a081 	daddiu	v1,v1,-24447
ffffffffa080122c:	00031c38 	dsll	v1,v1,0x10
ffffffffa0801230:	dc63b700 	ld	v1,-18688(v1)
ffffffffa0801234:	8c640020 	lw	a0,32(v1)
ffffffffa0801238:	3c030000 	lui	v1,0x0
ffffffffa080123c:	64630000 	daddiu	v1,v1,0
ffffffffa0801240:	00031c38 	dsll	v1,v1,0x10
ffffffffa0801244:	6463a081 	daddiu	v1,v1,-24447
ffffffffa0801248:	00031c38 	dsll	v1,v1,0x10
ffffffffa080124c:	dc63b700 	ld	v1,-18688(v1)
ffffffffa0801250:	8c630024 	lw	v1,36(v1)
ffffffffa0801254:	00831821 	addu	v1,a0,v1
ffffffffa0801258:	ac430028 	sw	v1,40(v0)
ffffffffa080125c:	3c020000 	lui	v0,0x0
ffffffffa0801260:	64420000 	daddiu	v0,v0,0
ffffffffa0801264:	00021438 	dsll	v0,v0,0x10
ffffffffa0801268:	6442a081 	daddiu	v0,v0,-24447
ffffffffa080126c:	00021438 	dsll	v0,v0,0x10
ffffffffa0801270:	dc42b700 	ld	v0,-18688(v0)
ffffffffa0801274:	3c030000 	lui	v1,0x0
ffffffffa0801278:	64630000 	daddiu	v1,v1,0
ffffffffa080127c:	00031c38 	dsll	v1,v1,0x10
ffffffffa0801280:	6463a081 	daddiu	v1,v1,-24447
ffffffffa0801284:	00031c38 	dsll	v1,v1,0x10
ffffffffa0801288:	dc63b700 	ld	v1,-18688(v1)
ffffffffa080128c:	8c630028 	lw	v1,40(v1)
ffffffffa0801290:	3c044000 	lui	a0,0x4000
ffffffffa0801294:	00831823 	subu	v1,a0,v1
ffffffffa0801298:	ac43002c 	sw	v1,44(v0)
ffffffffa080129c:	3c020000 	lui	v0,0x0
ffffffffa08012a0:	64420000 	daddiu	v0,v0,0
ffffffffa08012a4:	00021438 	dsll	v0,v0,0x10
ffffffffa08012a8:	6442a081 	daddiu	v0,v0,-24447
ffffffffa08012ac:	00021438 	dsll	v0,v0,0x10
ffffffffa08012b0:	dc42b700 	ld	v0,-18688(v0)
ffffffffa08012b4:	24030206 	li	v1,518
ffffffffa08012b8:	ac43000c 	sw	v1,12(v0)
ffffffffa08012bc:	3c020000 	lui	v0,0x0
ffffffffa08012c0:	64420000 	daddiu	v0,v0,0
ffffffffa08012c4:	00021438 	dsll	v0,v0,0x10
ffffffffa08012c8:	6442a081 	daddiu	v0,v0,-24447
ffffffffa08012cc:	00021438 	dsll	v0,v0,0x10
ffffffffa08012d0:	dc42b700 	ld	v0,-18688(v0)
ffffffffa08012d4:	24030080 	li	v1,128
ffffffffa08012d8:	ac430030 	sw	v1,48(v0)
ffffffffa08012dc:	3c020000 	lui	v0,0x0
ffffffffa08012e0:	64420000 	daddiu	v0,v0,0
ffffffffa08012e4:	00021438 	dsll	v0,v0,0x10
ffffffffa08012e8:	6442a081 	daddiu	v0,v0,-24447
ffffffffa08012ec:	00021438 	dsll	v0,v0,0x10
ffffffffa08012f0:	dc42b700 	ld	v0,-18688(v0)
ffffffffa08012f4:	24030020 	li	v1,32
ffffffffa08012f8:	ac430034 	sw	v1,52(v0)
ffffffffa08012fc:	0c2001a9 	jal	ffffffffa08006a4 <write_superblock>
ffffffffa0801300:	00000000 	nop
ffffffffa0801304:	03c0e82d 	move	sp,s8
ffffffffa0801308:	dfbf0008 	ld	ra,8(sp)
ffffffffa080130c:	dfbe0000 	ld	s8,0(sp)
ffffffffa0801310:	67bd0010 	daddiu	sp,sp,16
ffffffffa0801314:	03e00008 	jr	ra
ffffffffa0801318:	00000000 	nop

ffffffffa080131c <init_inodemap>:
ffffffffa080131c:	67bdfff0 	daddiu	sp,sp,-16
ffffffffa0801320:	ffbf0008 	sd	ra,8(sp)
ffffffffa0801324:	ffbe0000 	sd	s8,0(sp)
ffffffffa0801328:	03a0f02d 	move	s8,sp
ffffffffa080132c:	3c020000 	lui	v0,0x0
ffffffffa0801330:	64420000 	daddiu	v0,v0,0
ffffffffa0801334:	00021438 	dsll	v0,v0,0x10
ffffffffa0801338:	6442a081 	daddiu	v0,v0,-24447
ffffffffa080133c:	00021438 	dsll	v0,v0,0x10
ffffffffa0801340:	6444c890 	daddiu	a0,v0,-14192
ffffffffa0801344:	24051000 	li	a1,4096
ffffffffa0801348:	0c2020a5 	jal	ffffffffa0808294 <bzero>
ffffffffa080134c:	00000000 	nop
ffffffffa0801350:	0c20020f 	jal	ffffffffa080083c <write_inodemap>
ffffffffa0801354:	00000000 	nop
ffffffffa0801358:	03c0e82d 	move	sp,s8
ffffffffa080135c:	dfbf0008 	ld	ra,8(sp)
ffffffffa0801360:	dfbe0000 	ld	s8,0(sp)
ffffffffa0801364:	67bd0010 	daddiu	sp,sp,16
ffffffffa0801368:	03e00008 	jr	ra
ffffffffa080136c:	00000000 	nop

ffffffffa0801370 <init_blockmap>:
ffffffffa0801370:	67bdffe0 	daddiu	sp,sp,-32
ffffffffa0801374:	ffbf0018 	sd	ra,24(sp)
ffffffffa0801378:	ffbe0010 	sd	s8,16(sp)
ffffffffa080137c:	03a0f02d 	move	s8,sp
ffffffffa0801380:	3c020000 	lui	v0,0x0
ffffffffa0801384:	64420000 	daddiu	v0,v0,0
ffffffffa0801388:	00021438 	dsll	v0,v0,0x10
ffffffffa080138c:	6442a081 	daddiu	v0,v0,-24447
ffffffffa0801390:	00021438 	dsll	v0,v0,0x10
ffffffffa0801394:	6444d890 	daddiu	a0,v0,-10096
ffffffffa0801398:	24054000 	li	a1,16384
ffffffffa080139c:	0c2020a5 	jal	ffffffffa0808294 <bzero>
ffffffffa08013a0:	00000000 	nop
ffffffffa08013a4:	afc00000 	sw	zero,0(s8)
ffffffffa08013a8:	082004f9 	j	ffffffffa08013e4 <init_blockmap+0x74>
ffffffffa08013ac:	00000000 	nop
ffffffffa08013b0:	3c020000 	lui	v0,0x0
ffffffffa08013b4:	64420000 	daddiu	v0,v0,0
ffffffffa08013b8:	00021438 	dsll	v0,v0,0x10
ffffffffa08013bc:	6442a081 	daddiu	v0,v0,-24447
ffffffffa08013c0:	00021438 	dsll	v0,v0,0x10
ffffffffa08013c4:	8fc30000 	lw	v1,0(s8)
ffffffffa08013c8:	6442d890 	daddiu	v0,v0,-10096
ffffffffa08013cc:	0062102d 	daddu	v0,v1,v0
ffffffffa08013d0:	2403ffff 	li	v1,-1
ffffffffa08013d4:	a0430000 	sb	v1,0(v0)
ffffffffa08013d8:	8fc20000 	lw	v0,0(s8)
ffffffffa08013dc:	24420001 	addiu	v0,v0,1
ffffffffa08013e0:	afc20000 	sw	v0,0(s8)
ffffffffa08013e4:	8fc20000 	lw	v0,0(s8)
ffffffffa08013e8:	28420040 	slti	v0,v0,64
ffffffffa08013ec:	1440fff0 	bnez	v0,ffffffffa08013b0 <init_blockmap+0x40>
ffffffffa08013f0:	00000000 	nop
ffffffffa08013f4:	afc00004 	sw	zero,4(s8)
ffffffffa08013f8:	08200520 	j	ffffffffa0801480 <init_blockmap+0x110>
ffffffffa08013fc:	00000000 	nop
ffffffffa0801400:	3c020000 	lui	v0,0x0
ffffffffa0801404:	64420000 	daddiu	v0,v0,0
ffffffffa0801408:	00021438 	dsll	v0,v0,0x10
ffffffffa080140c:	6442a081 	daddiu	v0,v0,-24447
ffffffffa0801410:	00021438 	dsll	v0,v0,0x10
ffffffffa0801414:	8fc30000 	lw	v1,0(s8)
ffffffffa0801418:	6442d890 	daddiu	v0,v0,-10096
ffffffffa080141c:	0062102d 	daddu	v0,v1,v0
ffffffffa0801420:	90420000 	lbu	v0,0(v0)
ffffffffa0801424:	00021e3c 	dsll32	v1,v0,0x18
ffffffffa0801428:	00031e3f 	dsra32	v1,v1,0x18
ffffffffa080142c:	24040001 	li	a0,1
ffffffffa0801430:	8fc20004 	lw	v0,4(s8)
ffffffffa0801434:	00441004 	sllv	v0,a0,v0
ffffffffa0801438:	0002163c 	dsll32	v0,v0,0x18
ffffffffa080143c:	0002163f 	dsra32	v0,v0,0x18
ffffffffa0801440:	00621025 	or	v0,v1,v0
ffffffffa0801444:	0002163c 	dsll32	v0,v0,0x18
ffffffffa0801448:	0002163f 	dsra32	v0,v0,0x18
ffffffffa080144c:	304300ff 	andi	v1,v0,0xff
ffffffffa0801450:	3c020000 	lui	v0,0x0
ffffffffa0801454:	64420000 	daddiu	v0,v0,0
ffffffffa0801458:	00021438 	dsll	v0,v0,0x10
ffffffffa080145c:	6442a081 	daddiu	v0,v0,-24447
ffffffffa0801460:	00021438 	dsll	v0,v0,0x10
ffffffffa0801464:	8fc40000 	lw	a0,0(s8)
ffffffffa0801468:	6442d890 	daddiu	v0,v0,-10096
ffffffffa080146c:	0082102d 	daddu	v0,a0,v0
ffffffffa0801470:	a0430000 	sb	v1,0(v0)
ffffffffa0801474:	8fc20004 	lw	v0,4(s8)
ffffffffa0801478:	24420001 	addiu	v0,v0,1
ffffffffa080147c:	afc20004 	sw	v0,4(s8)
ffffffffa0801480:	8fc20004 	lw	v0,4(s8)
ffffffffa0801484:	28420006 	slti	v0,v0,6
ffffffffa0801488:	1440ffdd 	bnez	v0,ffffffffa0801400 <init_blockmap+0x90>
ffffffffa080148c:	00000000 	nop
ffffffffa0801490:	0c2001d9 	jal	ffffffffa0800764 <write_blockmap>
ffffffffa0801494:	00000000 	nop
ffffffffa0801498:	03c0e82d 	move	sp,s8
ffffffffa080149c:	dfbf0018 	ld	ra,24(sp)
ffffffffa08014a0:	dfbe0010 	ld	s8,16(sp)
ffffffffa08014a4:	67bd0020 	daddiu	sp,sp,32
ffffffffa08014a8:	03e00008 	jr	ra
ffffffffa08014ac:	00000000 	nop

ffffffffa08014b0 <init_inode>:
ffffffffa08014b0:	67bdffc0 	daddiu	sp,sp,-64
ffffffffa08014b4:	ffbf0038 	sd	ra,56(sp)
ffffffffa08014b8:	ffbe0030 	sd	s8,48(sp)
ffffffffa08014bc:	03a0f02d 	move	s8,sp
ffffffffa08014c0:	0080482d 	move	a5,a0
ffffffffa08014c4:	00c0202d 	move	a0,a2
ffffffffa08014c8:	00e0182d 	move	v1,a3
ffffffffa08014cc:	0100102d 	move	v0,a4
ffffffffa08014d0:	00093000 	sll	a2,a5,0x0
ffffffffa08014d4:	afc60010 	sw	a2,16(s8)
ffffffffa08014d8:	00052800 	sll	a1,a1,0x0
ffffffffa08014dc:	afc50014 	sw	a1,20(s8)
ffffffffa08014e0:	00042000 	sll	a0,a0,0x0
ffffffffa08014e4:	afc40018 	sw	a0,24(s8)
ffffffffa08014e8:	00031800 	sll	v1,v1,0x0
ffffffffa08014ec:	afc3001c 	sw	v1,28(s8)
ffffffffa08014f0:	00021000 	sll	v0,v0,0x0
ffffffffa08014f4:	afc20020 	sw	v0,32(s8)
ffffffffa08014f8:	3c020000 	lui	v0,0x0
ffffffffa08014fc:	64420000 	daddiu	v0,v0,0
ffffffffa0801500:	00021438 	dsll	v0,v0,0x10
ffffffffa0801504:	6442a081 	daddiu	v0,v0,-24447
ffffffffa0801508:	00021438 	dsll	v0,v0,0x10
ffffffffa080150c:	8fc30018 	lw	v1,24(s8)
ffffffffa0801510:	ac431890 	sw	v1,6288(v0)
ffffffffa0801514:	3c020000 	lui	v0,0x0
ffffffffa0801518:	64420000 	daddiu	v0,v0,0
ffffffffa080151c:	00021438 	dsll	v0,v0,0x10
ffffffffa0801520:	6442a081 	daddiu	v0,v0,-24447
ffffffffa0801524:	00021438 	dsll	v0,v0,0x10
ffffffffa0801528:	64421890 	daddiu	v0,v0,6288
ffffffffa080152c:	8fc30020 	lw	v1,32(s8)
ffffffffa0801530:	ac430004 	sw	v1,4(v0)
ffffffffa0801534:	3c020000 	lui	v0,0x0
ffffffffa0801538:	64420000 	daddiu	v0,v0,0
ffffffffa080153c:	00021438 	dsll	v0,v0,0x10
ffffffffa0801540:	6442a081 	daddiu	v0,v0,-24447
ffffffffa0801544:	00021438 	dsll	v0,v0,0x10
ffffffffa0801548:	64421890 	daddiu	v0,v0,6288
ffffffffa080154c:	8fc3001c 	lw	v1,28(s8)
ffffffffa0801550:	ac430008 	sw	v1,8(v0)
ffffffffa0801554:	3c020000 	lui	v0,0x0
ffffffffa0801558:	64420000 	daddiu	v0,v0,0
ffffffffa080155c:	00021438 	dsll	v0,v0,0x10
ffffffffa0801560:	6442a081 	daddiu	v0,v0,-24447
ffffffffa0801564:	00021438 	dsll	v0,v0,0x10
ffffffffa0801568:	64421890 	daddiu	v0,v0,6288
ffffffffa080156c:	ac400010 	sw	zero,16(v0)
ffffffffa0801570:	8fc30020 	lw	v1,32(s8)
ffffffffa0801574:	24020002 	li	v0,2
ffffffffa0801578:	10620005 	beq	v1,v0,ffffffffa0801590 <init_inode+0xe0>
ffffffffa080157c:	00000000 	nop
ffffffffa0801580:	8fc30020 	lw	v1,32(s8)
ffffffffa0801584:	24020005 	li	v0,5
ffffffffa0801588:	1462000b 	bne	v1,v0,ffffffffa08015b8 <init_inode+0x108>
ffffffffa080158c:	00000000 	nop
ffffffffa0801590:	3c020000 	lui	v0,0x0
ffffffffa0801594:	64420000 	daddiu	v0,v0,0
ffffffffa0801598:	00021438 	dsll	v0,v0,0x10
ffffffffa080159c:	6442a081 	daddiu	v0,v0,-24447
ffffffffa08015a0:	00021438 	dsll	v0,v0,0x10
ffffffffa08015a4:	64421890 	daddiu	v0,v0,6288
ffffffffa08015a8:	24030040 	li	v1,64
ffffffffa08015ac:	ac430014 	sw	v1,20(v0)
ffffffffa08015b0:	08200575 	j	ffffffffa08015d4 <init_inode+0x124>
ffffffffa08015b4:	00000000 	nop
ffffffffa08015b8:	3c020000 	lui	v0,0x0
ffffffffa08015bc:	64420000 	daddiu	v0,v0,0
ffffffffa08015c0:	00021438 	dsll	v0,v0,0x10
ffffffffa08015c4:	6442a081 	daddiu	v0,v0,-24447
ffffffffa08015c8:	00021438 	dsll	v0,v0,0x10
ffffffffa08015cc:	64421890 	daddiu	v0,v0,6288
ffffffffa08015d0:	ac400014 	sw	zero,20(v0)
ffffffffa08015d4:	3c020000 	lui	v0,0x0
ffffffffa08015d8:	64420000 	daddiu	v0,v0,0
ffffffffa08015dc:	00021438 	dsll	v0,v0,0x10
ffffffffa08015e0:	6442a081 	daddiu	v0,v0,-24447
ffffffffa08015e4:	00021438 	dsll	v0,v0,0x10
ffffffffa08015e8:	64421890 	daddiu	v0,v0,6288
ffffffffa08015ec:	ac400018 	sw	zero,24(v0)
ffffffffa08015f0:	3c020000 	lui	v0,0x0
ffffffffa08015f4:	64420000 	daddiu	v0,v0,0
ffffffffa08015f8:	00021438 	dsll	v0,v0,0x10
ffffffffa08015fc:	6442a081 	daddiu	v0,v0,-24447
ffffffffa0801600:	00021438 	dsll	v0,v0,0x10
ffffffffa0801604:	64421890 	daddiu	v0,v0,6288
ffffffffa0801608:	8fc30010 	lw	v1,16(s8)
ffffffffa080160c:	ac43001c 	sw	v1,28(v0)
ffffffffa0801610:	24020001 	li	v0,1
ffffffffa0801614:	afc20000 	sw	v0,0(s8)
ffffffffa0801618:	08200596 	j	ffffffffa0801658 <init_inode+0x1a8>
ffffffffa080161c:	00000000 	nop
ffffffffa0801620:	3c020000 	lui	v0,0x0
ffffffffa0801624:	64420000 	daddiu	v0,v0,0
ffffffffa0801628:	00021438 	dsll	v0,v0,0x10
ffffffffa080162c:	6442a081 	daddiu	v0,v0,-24447
ffffffffa0801630:	00021438 	dsll	v0,v0,0x10
ffffffffa0801634:	8fc30000 	lw	v1,0(s8)
ffffffffa0801638:	64630004 	daddiu	v1,v1,4
ffffffffa080163c:	000318b8 	dsll	v1,v1,0x2
ffffffffa0801640:	64421890 	daddiu	v0,v0,6288
ffffffffa0801644:	0062102d 	daddu	v0,v1,v0
ffffffffa0801648:	ac40000c 	sw	zero,12(v0)
ffffffffa080164c:	8fc20000 	lw	v0,0(s8)
ffffffffa0801650:	24420001 	addiu	v0,v0,1
ffffffffa0801654:	afc20000 	sw	v0,0(s8)
ffffffffa0801658:	8fc20000 	lw	v0,0(s8)
ffffffffa080165c:	2842000a 	slti	v0,v0,10
ffffffffa0801660:	1440ffef 	bnez	v0,ffffffffa0801620 <init_inode+0x170>
ffffffffa0801664:	00000000 	nop
ffffffffa0801668:	3c020000 	lui	v0,0x0
ffffffffa080166c:	64420000 	daddiu	v0,v0,0
ffffffffa0801670:	00021438 	dsll	v0,v0,0x10
ffffffffa0801674:	6442a081 	daddiu	v0,v0,-24447
ffffffffa0801678:	00021438 	dsll	v0,v0,0x10
ffffffffa080167c:	64421890 	daddiu	v0,v0,6288
ffffffffa0801680:	ac400044 	sw	zero,68(v0)
ffffffffa0801684:	3c020000 	lui	v0,0x0
ffffffffa0801688:	64420000 	daddiu	v0,v0,0
ffffffffa080168c:	00021438 	dsll	v0,v0,0x10
ffffffffa0801690:	6442a081 	daddiu	v0,v0,-24447
ffffffffa0801694:	00021438 	dsll	v0,v0,0x10
ffffffffa0801698:	64421890 	daddiu	v0,v0,6288
ffffffffa080169c:	ac400048 	sw	zero,72(v0)
ffffffffa08016a0:	3c020000 	lui	v0,0x0
ffffffffa08016a4:	64420000 	daddiu	v0,v0,0
ffffffffa08016a8:	00021438 	dsll	v0,v0,0x10
ffffffffa08016ac:	6442a081 	daddiu	v0,v0,-24447
ffffffffa08016b0:	00021438 	dsll	v0,v0,0x10
ffffffffa08016b4:	64421890 	daddiu	v0,v0,6288
ffffffffa08016b8:	ac40004c 	sw	zero,76(v0)
ffffffffa08016bc:	3c020000 	lui	v0,0x0
ffffffffa08016c0:	64420000 	daddiu	v0,v0,0
ffffffffa08016c4:	00021438 	dsll	v0,v0,0x10
ffffffffa08016c8:	6442a081 	daddiu	v0,v0,-24447
ffffffffa08016cc:	00021438 	dsll	v0,v0,0x10
ffffffffa08016d0:	8c421890 	lw	v0,6288(v0)
ffffffffa08016d4:	0040202d 	move	a0,v0
ffffffffa08016d8:	0c20025b 	jal	ffffffffa080096c <write_inode>
ffffffffa08016dc:	00000000 	nop
ffffffffa08016e0:	03c0e82d 	move	sp,s8
ffffffffa08016e4:	dfbf0038 	ld	ra,56(sp)
ffffffffa08016e8:	dfbe0030 	ld	s8,48(sp)
ffffffffa08016ec:	67bd0040 	daddiu	sp,sp,64
ffffffffa08016f0:	03e00008 	jr	ra
ffffffffa08016f4:	00000000 	nop

ffffffffa08016f8 <init_dir_block>:
ffffffffa08016f8:	67bdffd0 	daddiu	sp,sp,-48
ffffffffa08016fc:	ffbf0028 	sd	ra,40(sp)
ffffffffa0801700:	ffbe0020 	sd	s8,32(sp)
ffffffffa0801704:	03a0f02d 	move	s8,sp
ffffffffa0801708:	00a0182d 	move	v1,a1
ffffffffa080170c:	00c0102d 	move	v0,a2
ffffffffa0801710:	00042000 	sll	a0,a0,0x0
ffffffffa0801714:	afc40010 	sw	a0,16(s8)
ffffffffa0801718:	00031800 	sll	v1,v1,0x0
ffffffffa080171c:	a7c30014 	sh	v1,20(s8)
ffffffffa0801720:	00021000 	sll	v0,v0,0x0
ffffffffa0801724:	a7c20018 	sh	v0,24(s8)
ffffffffa0801728:	8fc20010 	lw	v0,16(s8)
ffffffffa080172c:	0040202d 	move	a0,v0
ffffffffa0801730:	0c20029a 	jal	ffffffffa0800a68 <read_block>
ffffffffa0801734:	00000000 	nop
ffffffffa0801738:	3c02a800 	lui	v0,0xa800
ffffffffa080173c:	ffc20000 	sd	v0,0(s8)
ffffffffa0801740:	dfc20000 	ld	v0,0(s8)
ffffffffa0801744:	2403002e 	li	v1,46
ffffffffa0801748:	a043000c 	sb	v1,12(v0)
ffffffffa080174c:	dfc20000 	ld	v0,0(s8)
ffffffffa0801750:	2403002e 	li	v1,46
ffffffffa0801754:	a043000d 	sb	v1,13(v0)
ffffffffa0801758:	dfc20000 	ld	v0,0(s8)
ffffffffa080175c:	a040000e 	sb	zero,14(v0)
ffffffffa0801760:	97c20014 	lhu	v0,20(s8)
ffffffffa0801764:	0040182d 	move	v1,v0
ffffffffa0801768:	dfc20000 	ld	v0,0(s8)
ffffffffa080176c:	ac430000 	sw	v1,0(v0)
ffffffffa0801770:	dfc20000 	ld	v0,0(s8)
ffffffffa0801774:	24030004 	li	v1,4
ffffffffa0801778:	ac430004 	sw	v1,4(v0)
ffffffffa080177c:	dfc20000 	ld	v0,0(s8)
ffffffffa0801780:	24030003 	li	v1,3
ffffffffa0801784:	ac430008 	sw	v1,8(v0)
ffffffffa0801788:	3c02a800 	lui	v0,0xa800
ffffffffa080178c:	34420020 	ori	v0,v0,0x20
ffffffffa0801790:	ffc20000 	sd	v0,0(s8)
ffffffffa0801794:	dfc20000 	ld	v0,0(s8)
ffffffffa0801798:	2403002e 	li	v1,46
ffffffffa080179c:	a043000c 	sb	v1,12(v0)
ffffffffa08017a0:	dfc20000 	ld	v0,0(s8)
ffffffffa08017a4:	a040000d 	sb	zero,13(v0)
ffffffffa08017a8:	97c20018 	lhu	v0,24(s8)
ffffffffa08017ac:	0040182d 	move	v1,v0
ffffffffa08017b0:	dfc20000 	ld	v0,0(s8)
ffffffffa08017b4:	ac430000 	sw	v1,0(v0)
ffffffffa08017b8:	dfc20000 	ld	v0,0(s8)
ffffffffa08017bc:	24030003 	li	v1,3
ffffffffa08017c0:	ac430004 	sw	v1,4(v0)
ffffffffa08017c4:	dfc20000 	ld	v0,0(s8)
ffffffffa08017c8:	24030003 	li	v1,3
ffffffffa08017cc:	ac430008 	sw	v1,8(v0)
ffffffffa08017d0:	8fc20010 	lw	v0,16(s8)
ffffffffa08017d4:	0040202d 	move	a0,v0
ffffffffa08017d8:	0c2002b0 	jal	ffffffffa0800ac0 <write_block>
ffffffffa08017dc:	00000000 	nop
ffffffffa08017e0:	03c0e82d 	move	sp,s8
ffffffffa08017e4:	dfbf0028 	ld	ra,40(sp)
ffffffffa08017e8:	dfbe0020 	ld	s8,32(sp)
ffffffffa08017ec:	67bd0030 	daddiu	sp,sp,48
ffffffffa08017f0:	03e00008 	jr	ra
ffffffffa08017f4:	00000000 	nop

ffffffffa08017f8 <init_rootdir>:
ffffffffa08017f8:	67bdffe0 	daddiu	sp,sp,-32
ffffffffa08017fc:	ffbf0018 	sd	ra,24(sp)
ffffffffa0801800:	ffbe0010 	sd	s8,16(sp)
ffffffffa0801804:	03a0f02d 	move	s8,sp
ffffffffa0801808:	0c2002c6 	jal	ffffffffa0800b18 <alloc_inode>
ffffffffa080180c:	00000000 	nop
ffffffffa0801810:	afc20000 	sw	v0,0(s8)
ffffffffa0801814:	8fc20000 	lw	v0,0(s8)
ffffffffa0801818:	1040000b 	beqz	v0,ffffffffa0801848 <init_rootdir+0x50>
ffffffffa080181c:	00000000 	nop
ffffffffa0801820:	8fc30000 	lw	v1,0(s8)
ffffffffa0801824:	3c020000 	lui	v0,0x0
ffffffffa0801828:	64420000 	daddiu	v0,v0,0
ffffffffa080182c:	00021438 	dsll	v0,v0,0x10
ffffffffa0801830:	6442a081 	daddiu	v0,v0,-24447
ffffffffa0801834:	00021438 	dsll	v0,v0,0x10
ffffffffa0801838:	6444aa00 	daddiu	a0,v0,-22016
ffffffffa080183c:	0060282d 	move	a1,v1
ffffffffa0801840:	0c2023af 	jal	ffffffffa0808ebc <kprintf>
ffffffffa0801844:	00000000 	nop
ffffffffa0801848:	0c200361 	jal	ffffffffa0800d84 <alloc_block>
ffffffffa080184c:	00000000 	nop
ffffffffa0801850:	afc20004 	sw	v0,4(s8)
ffffffffa0801854:	8fc40004 	lw	a0,4(s8)
ffffffffa0801858:	8fc30000 	lw	v1,0(s8)
ffffffffa080185c:	8fc20000 	lw	v0,0(s8)
ffffffffa0801860:	0060282d 	move	a1,v1
ffffffffa0801864:	0040302d 	move	a2,v0
ffffffffa0801868:	24070003 	li	a3,3
ffffffffa080186c:	24080005 	li	a4,5
ffffffffa0801870:	0c20052c 	jal	ffffffffa08014b0 <init_inode>
ffffffffa0801874:	00000000 	nop
ffffffffa0801878:	8fc20000 	lw	v0,0(s8)
ffffffffa080187c:	3042ffff 	andi	v0,v0,0xffff
ffffffffa0801880:	0040182d 	move	v1,v0
ffffffffa0801884:	8fc20000 	lw	v0,0(s8)
ffffffffa0801888:	3042ffff 	andi	v0,v0,0xffff
ffffffffa080188c:	8fc40004 	lw	a0,4(s8)
ffffffffa0801890:	0060282d 	move	a1,v1
ffffffffa0801894:	0040302d 	move	a2,v0
ffffffffa0801898:	0c2005be 	jal	ffffffffa08016f8 <init_dir_block>
ffffffffa080189c:	00000000 	nop
ffffffffa08018a0:	3c020000 	lui	v0,0x0
ffffffffa08018a4:	64420000 	daddiu	v0,v0,0
ffffffffa08018a8:	00021438 	dsll	v0,v0,0x10
ffffffffa08018ac:	6442a081 	daddiu	v0,v0,-24447
ffffffffa08018b0:	00021438 	dsll	v0,v0,0x10
ffffffffa08018b4:	64441a08 	daddiu	a0,v0,6664
ffffffffa08018b8:	3c020000 	lui	v0,0x0
ffffffffa08018bc:	64420000 	daddiu	v0,v0,0
ffffffffa08018c0:	00021438 	dsll	v0,v0,0x10
ffffffffa08018c4:	6442a081 	daddiu	v0,v0,-24447
ffffffffa08018c8:	00021438 	dsll	v0,v0,0x10
ffffffffa08018cc:	64451890 	daddiu	a1,v0,6288
ffffffffa08018d0:	24060080 	li	a2,128
ffffffffa08018d4:	0c20206a 	jal	ffffffffa08081a8 <memcpy>
ffffffffa08018d8:	00000000 	nop
ffffffffa08018dc:	03c0e82d 	move	sp,s8
ffffffffa08018e0:	dfbf0018 	ld	ra,24(sp)
ffffffffa08018e4:	dfbe0010 	ld	s8,16(sp)
ffffffffa08018e8:	67bd0020 	daddiu	sp,sp,32
ffffffffa08018ec:	03e00008 	jr	ra
ffffffffa08018f0:	00000000 	nop

ffffffffa08018f4 <is_name_in_dir>:
ffffffffa08018f4:	67bdffd0 	daddiu	sp,sp,-48
ffffffffa08018f8:	ffbf0028 	sd	ra,40(sp)
ffffffffa08018fc:	ffbe0020 	sd	s8,32(sp)
ffffffffa0801900:	03a0f02d 	move	s8,sp
ffffffffa0801904:	ffc40010 	sd	a0,16(s8)
ffffffffa0801908:	3c020000 	lui	v0,0x0
ffffffffa080190c:	64420000 	daddiu	v0,v0,0
ffffffffa0801910:	00021438 	dsll	v0,v0,0x10
ffffffffa0801914:	6442a081 	daddiu	v0,v0,-24447
ffffffffa0801918:	00021438 	dsll	v0,v0,0x10
ffffffffa080191c:	64421a08 	daddiu	v0,v0,6664
ffffffffa0801920:	8c42001c 	lw	v0,28(v0)
ffffffffa0801924:	0040202d 	move	a0,v0
ffffffffa0801928:	0c20029a 	jal	ffffffffa0800a68 <read_block>
ffffffffa080192c:	00000000 	nop
ffffffffa0801930:	afc00000 	sw	zero,0(s8)
ffffffffa0801934:	08200662 	j	ffffffffa0801988 <is_name_in_dir+0x94>
ffffffffa0801938:	00000000 	nop
ffffffffa080193c:	8fc20000 	lw	v0,0(s8)
ffffffffa0801940:	24420002 	addiu	v0,v0,2
ffffffffa0801944:	00021978 	dsll	v1,v0,0x5
ffffffffa0801948:	3c02a800 	lui	v0,0xa800
ffffffffa080194c:	0062102d 	daddu	v0,v1,v0
ffffffffa0801950:	ffc20008 	sd	v0,8(s8)
ffffffffa0801954:	dfc20008 	ld	v0,8(s8)
ffffffffa0801958:	6442000c 	daddiu	v0,v0,12
ffffffffa080195c:	0040202d 	move	a0,v0
ffffffffa0801960:	dfc50010 	ld	a1,16(s8)
ffffffffa0801964:	0c2020b9 	jal	ffffffffa08082e4 <strcmp>
ffffffffa0801968:	00000000 	nop
ffffffffa080196c:	14400003 	bnez	v0,ffffffffa080197c <is_name_in_dir+0x88>
ffffffffa0801970:	00000000 	nop
ffffffffa0801974:	0820066d 	j	ffffffffa08019b4 <is_name_in_dir+0xc0>
ffffffffa0801978:	00000000 	nop
ffffffffa080197c:	8fc20000 	lw	v0,0(s8)
ffffffffa0801980:	24420001 	addiu	v0,v0,1
ffffffffa0801984:	afc20000 	sw	v0,0(s8)
ffffffffa0801988:	8fc30000 	lw	v1,0(s8)
ffffffffa080198c:	3c020000 	lui	v0,0x0
ffffffffa0801990:	64420000 	daddiu	v0,v0,0
ffffffffa0801994:	00021438 	dsll	v0,v0,0x10
ffffffffa0801998:	6442a081 	daddiu	v0,v0,-24447
ffffffffa080199c:	00021438 	dsll	v0,v0,0x10
ffffffffa08019a0:	64421a08 	daddiu	v0,v0,6664
ffffffffa08019a4:	8c420018 	lw	v0,24(v0)
ffffffffa08019a8:	0062102b 	sltu	v0,v1,v0
ffffffffa08019ac:	1440ffe3 	bnez	v0,ffffffffa080193c <is_name_in_dir+0x48>
ffffffffa08019b0:	00000000 	nop
ffffffffa08019b4:	8fc20000 	lw	v0,0(s8)
ffffffffa08019b8:	3c030000 	lui	v1,0x0
ffffffffa08019bc:	64630000 	daddiu	v1,v1,0
ffffffffa08019c0:	00031c38 	dsll	v1,v1,0x10
ffffffffa08019c4:	6463a081 	daddiu	v1,v1,-24447
ffffffffa08019c8:	00031c38 	dsll	v1,v1,0x10
ffffffffa08019cc:	64631a08 	daddiu	v1,v1,6664
ffffffffa08019d0:	8c630018 	lw	v1,24(v1)
ffffffffa08019d4:	14430004 	bne	v0,v1,ffffffffa08019e8 <is_name_in_dir+0xf4>
ffffffffa08019d8:	00000000 	nop
ffffffffa08019dc:	2402ffff 	li	v0,-1
ffffffffa08019e0:	0820067b 	j	ffffffffa08019ec <is_name_in_dir+0xf8>
ffffffffa08019e4:	00000000 	nop
ffffffffa08019e8:	8fc20000 	lw	v0,0(s8)
ffffffffa08019ec:	03c0e82d 	move	sp,s8
ffffffffa08019f0:	dfbf0028 	ld	ra,40(sp)
ffffffffa08019f4:	dfbe0020 	ld	s8,32(sp)
ffffffffa08019f8:	67bd0030 	daddiu	sp,sp,48
ffffffffa08019fc:	03e00008 	jr	ra
ffffffffa0801a00:	00000000 	nop

ffffffffa0801a04 <enter_dir>:
ffffffffa0801a04:	67bdffa0 	daddiu	sp,sp,-96
ffffffffa0801a08:	ffbf0058 	sd	ra,88(sp)
ffffffffa0801a0c:	ffbe0050 	sd	s8,80(sp)
ffffffffa0801a10:	03a0f02d 	move	s8,sp
ffffffffa0801a14:	ffc40040 	sd	a0,64(s8)
ffffffffa0801a18:	dfc40040 	ld	a0,64(s8)
ffffffffa0801a1c:	0c202054 	jal	ffffffffa0808150 <strlen>
ffffffffa0801a20:	00000000 	nop
ffffffffa0801a24:	6442ffff 	daddiu	v0,v0,-1
ffffffffa0801a28:	dfc30040 	ld	v1,64(s8)
ffffffffa0801a2c:	0062102d 	daddu	v0,v1,v0
ffffffffa0801a30:	80430000 	lb	v1,0(v0)
ffffffffa0801a34:	2402002f 	li	v0,47
ffffffffa0801a38:	1462000f 	bne	v1,v0,ffffffffa0801a78 <enter_dir+0x74>
ffffffffa0801a3c:	00000000 	nop
ffffffffa0801a40:	dfc40040 	ld	a0,64(s8)
ffffffffa0801a44:	0c202054 	jal	ffffffffa0808150 <strlen>
ffffffffa0801a48:	00000000 	nop
ffffffffa0801a4c:	0040182d 	move	v1,v0
ffffffffa0801a50:	24020001 	li	v0,1
ffffffffa0801a54:	10620008 	beq	v1,v0,ffffffffa0801a78 <enter_dir+0x74>
ffffffffa0801a58:	00000000 	nop
ffffffffa0801a5c:	dfc40040 	ld	a0,64(s8)
ffffffffa0801a60:	0c202054 	jal	ffffffffa0808150 <strlen>
ffffffffa0801a64:	00000000 	nop
ffffffffa0801a68:	6442ffff 	daddiu	v0,v0,-1
ffffffffa0801a6c:	dfc30040 	ld	v1,64(s8)
ffffffffa0801a70:	0062102d 	daddu	v0,v1,v0
ffffffffa0801a74:	a0400000 	sb	zero,0(v0)
ffffffffa0801a78:	082007db 	j	ffffffffa0801f6c <enter_dir+0x568>
ffffffffa0801a7c:	00000000 	nop
ffffffffa0801a80:	dfc20040 	ld	v0,64(s8)
ffffffffa0801a84:	80430000 	lb	v1,0(v0)
ffffffffa0801a88:	2402002f 	li	v0,47
ffffffffa0801a8c:	14620011 	bne	v1,v0,ffffffffa0801ad4 <enter_dir+0xd0>
ffffffffa0801a90:	00000000 	nop
ffffffffa0801a94:	afc00000 	sw	zero,0(s8)
ffffffffa0801a98:	67c20030 	daddiu	v0,s8,48
ffffffffa0801a9c:	0040202d 	move	a0,v0
ffffffffa0801aa0:	3c020000 	lui	v0,0x0
ffffffffa0801aa4:	64420000 	daddiu	v0,v0,0
ffffffffa0801aa8:	00021438 	dsll	v0,v0,0x10
ffffffffa0801aac:	6442a081 	daddiu	v0,v0,-24447
ffffffffa0801ab0:	00021438 	dsll	v0,v0,0x10
ffffffffa0801ab4:	6445aa30 	daddiu	a1,v0,-21968
ffffffffa0801ab8:	0c20212f 	jal	ffffffffa08084bc <strcpy>
ffffffffa0801abc:	00000000 	nop
ffffffffa0801ac0:	dfc20040 	ld	v0,64(s8)
ffffffffa0801ac4:	64420001 	daddiu	v0,v0,1
ffffffffa0801ac8:	ffc20040 	sd	v0,64(s8)
ffffffffa0801acc:	082007bd 	j	ffffffffa0801ef4 <enter_dir+0x4f0>
ffffffffa0801ad0:	00000000 	nop
ffffffffa0801ad4:	dfc20040 	ld	v0,64(s8)
ffffffffa0801ad8:	80430000 	lb	v1,0(v0)
ffffffffa0801adc:	2402002e 	li	v0,46
ffffffffa0801ae0:	14620048 	bne	v1,v0,ffffffffa0801c04 <enter_dir+0x200>
ffffffffa0801ae4:	00000000 	nop
ffffffffa0801ae8:	dfc20040 	ld	v0,64(s8)
ffffffffa0801aec:	64420001 	daddiu	v0,v0,1
ffffffffa0801af0:	80430000 	lb	v1,0(v0)
ffffffffa0801af4:	2402002e 	li	v0,46
ffffffffa0801af8:	14620042 	bne	v1,v0,ffffffffa0801c04 <enter_dir+0x200>
ffffffffa0801afc:	00000000 	nop
ffffffffa0801b00:	dfc20040 	ld	v0,64(s8)
ffffffffa0801b04:	64420002 	daddiu	v0,v0,2
ffffffffa0801b08:	80430000 	lb	v1,0(v0)
ffffffffa0801b0c:	2402002f 	li	v0,47
ffffffffa0801b10:	10620006 	beq	v1,v0,ffffffffa0801b2c <enter_dir+0x128>
ffffffffa0801b14:	00000000 	nop
ffffffffa0801b18:	dfc20040 	ld	v0,64(s8)
ffffffffa0801b1c:	64420002 	daddiu	v0,v0,2
ffffffffa0801b20:	80420000 	lb	v0,0(v0)
ffffffffa0801b24:	1440002b 	bnez	v0,ffffffffa0801bd4 <enter_dir+0x1d0>
ffffffffa0801b28:	00000000 	nop
ffffffffa0801b2c:	3c020000 	lui	v0,0x0
ffffffffa0801b30:	64420000 	daddiu	v0,v0,0
ffffffffa0801b34:	00021438 	dsll	v0,v0,0x10
ffffffffa0801b38:	6442a081 	daddiu	v0,v0,-24447
ffffffffa0801b3c:	00021438 	dsll	v0,v0,0x10
ffffffffa0801b40:	64421a08 	daddiu	v0,v0,6664
ffffffffa0801b44:	8c42001c 	lw	v0,28(v0)
ffffffffa0801b48:	0040202d 	move	a0,v0
ffffffffa0801b4c:	0c20029a 	jal	ffffffffa0800a68 <read_block>
ffffffffa0801b50:	00000000 	nop
ffffffffa0801b54:	3c02a800 	lui	v0,0xa800
ffffffffa0801b58:	ffc20008 	sd	v0,8(s8)
ffffffffa0801b5c:	dfc20008 	ld	v0,8(s8)
ffffffffa0801b60:	8c420000 	lw	v0,0(v0)
ffffffffa0801b64:	afc20000 	sw	v0,0(s8)
ffffffffa0801b68:	dfc20040 	ld	v0,64(s8)
ffffffffa0801b6c:	64420002 	daddiu	v0,v0,2
ffffffffa0801b70:	80430000 	lb	v1,0(v0)
ffffffffa0801b74:	2402002f 	li	v0,47
ffffffffa0801b78:	14620006 	bne	v1,v0,ffffffffa0801b94 <enter_dir+0x190>
ffffffffa0801b7c:	00000000 	nop
ffffffffa0801b80:	dfc20040 	ld	v0,64(s8)
ffffffffa0801b84:	64420003 	daddiu	v0,v0,3
ffffffffa0801b88:	ffc20040 	sd	v0,64(s8)
ffffffffa0801b8c:	082006e8 	j	ffffffffa0801ba0 <enter_dir+0x19c>
ffffffffa0801b90:	00000000 	nop
ffffffffa0801b94:	dfc20040 	ld	v0,64(s8)
ffffffffa0801b98:	64420002 	daddiu	v0,v0,2
ffffffffa0801b9c:	ffc20040 	sd	v0,64(s8)
ffffffffa0801ba0:	67c20030 	daddiu	v0,s8,48
ffffffffa0801ba4:	0040202d 	move	a0,v0
ffffffffa0801ba8:	3c020000 	lui	v0,0x0
ffffffffa0801bac:	64420000 	daddiu	v0,v0,0
ffffffffa0801bb0:	00021438 	dsll	v0,v0,0x10
ffffffffa0801bb4:	6442a081 	daddiu	v0,v0,-24447
ffffffffa0801bb8:	00021438 	dsll	v0,v0,0x10
ffffffffa0801bbc:	6445aa38 	daddiu	a1,v0,-21960
ffffffffa0801bc0:	0c20212f 	jal	ffffffffa08084bc <strcpy>
ffffffffa0801bc4:	00000000 	nop
ffffffffa0801bc8:	00000000 	nop
ffffffffa0801bcc:	082007bd 	j	ffffffffa0801ef4 <enter_dir+0x4f0>
ffffffffa0801bd0:	00000000 	nop
ffffffffa0801bd4:	3c020000 	lui	v0,0x0
ffffffffa0801bd8:	64420000 	daddiu	v0,v0,0
ffffffffa0801bdc:	00021438 	dsll	v0,v0,0x10
ffffffffa0801be0:	6442a081 	daddiu	v0,v0,-24447
ffffffffa0801be4:	00021438 	dsll	v0,v0,0x10
ffffffffa0801be8:	6444aa40 	daddiu	a0,v0,-21952
ffffffffa0801bec:	dfc50040 	ld	a1,64(s8)
ffffffffa0801bf0:	0c2023af 	jal	ffffffffa0808ebc <kprintf>
ffffffffa0801bf4:	00000000 	nop
ffffffffa0801bf8:	2402ffff 	li	v0,-1
ffffffffa0801bfc:	082007e3 	j	ffffffffa0801f8c <enter_dir+0x588>
ffffffffa0801c00:	00000000 	nop
ffffffffa0801c04:	dfc20040 	ld	v0,64(s8)
ffffffffa0801c08:	80430000 	lb	v1,0(v0)
ffffffffa0801c0c:	2402002e 	li	v0,46
ffffffffa0801c10:	14620029 	bne	v1,v0,ffffffffa0801cb8 <enter_dir+0x2b4>
ffffffffa0801c14:	00000000 	nop
ffffffffa0801c18:	dfc20040 	ld	v0,64(s8)
ffffffffa0801c1c:	64420001 	daddiu	v0,v0,1
ffffffffa0801c20:	80430000 	lb	v1,0(v0)
ffffffffa0801c24:	2402002f 	li	v0,47
ffffffffa0801c28:	10620006 	beq	v1,v0,ffffffffa0801c44 <enter_dir+0x240>
ffffffffa0801c2c:	00000000 	nop
ffffffffa0801c30:	dfc20040 	ld	v0,64(s8)
ffffffffa0801c34:	64420001 	daddiu	v0,v0,1
ffffffffa0801c38:	80420000 	lb	v0,0(v0)
ffffffffa0801c3c:	14400012 	bnez	v0,ffffffffa0801c88 <enter_dir+0x284>
ffffffffa0801c40:	00000000 	nop
ffffffffa0801c44:	dfc20040 	ld	v0,64(s8)
ffffffffa0801c48:	64420001 	daddiu	v0,v0,1
ffffffffa0801c4c:	80430000 	lb	v1,0(v0)
ffffffffa0801c50:	2402002f 	li	v0,47
ffffffffa0801c54:	14620007 	bne	v1,v0,ffffffffa0801c74 <enter_dir+0x270>
ffffffffa0801c58:	00000000 	nop
ffffffffa0801c5c:	dfc20040 	ld	v0,64(s8)
ffffffffa0801c60:	64420002 	daddiu	v0,v0,2
ffffffffa0801c64:	ffc20040 	sd	v0,64(s8)
ffffffffa0801c68:	00000000 	nop
ffffffffa0801c6c:	082007db 	j	ffffffffa0801f6c <enter_dir+0x568>
ffffffffa0801c70:	00000000 	nop
ffffffffa0801c74:	dfc20040 	ld	v0,64(s8)
ffffffffa0801c78:	64420001 	daddiu	v0,v0,1
ffffffffa0801c7c:	ffc20040 	sd	v0,64(s8)
ffffffffa0801c80:	082007e0 	j	ffffffffa0801f80 <enter_dir+0x57c>
ffffffffa0801c84:	00000000 	nop
ffffffffa0801c88:	3c020000 	lui	v0,0x0
ffffffffa0801c8c:	64420000 	daddiu	v0,v0,0
ffffffffa0801c90:	00021438 	dsll	v0,v0,0x10
ffffffffa0801c94:	6442a081 	daddiu	v0,v0,-24447
ffffffffa0801c98:	00021438 	dsll	v0,v0,0x10
ffffffffa0801c9c:	6444aa58 	daddiu	a0,v0,-21928
ffffffffa0801ca0:	dfc50040 	ld	a1,64(s8)
ffffffffa0801ca4:	0c2023af 	jal	ffffffffa0808ebc <kprintf>
ffffffffa0801ca8:	00000000 	nop
ffffffffa0801cac:	2402ffff 	li	v0,-1
ffffffffa0801cb0:	082007e3 	j	ffffffffa0801f8c <enter_dir+0x588>
ffffffffa0801cb4:	00000000 	nop
ffffffffa0801cb8:	afc00004 	sw	zero,4(s8)
ffffffffa0801cbc:	0820073b 	j	ffffffffa0801cec <enter_dir+0x2e8>
ffffffffa0801cc0:	00000000 	nop
ffffffffa0801cc4:	8fc20004 	lw	v0,4(s8)
ffffffffa0801cc8:	dfc30040 	ld	v1,64(s8)
ffffffffa0801ccc:	0062102d 	daddu	v0,v1,v0
ffffffffa0801cd0:	80430000 	lb	v1,0(v0)
ffffffffa0801cd4:	8fc20004 	lw	v0,4(s8)
ffffffffa0801cd8:	03c2102d 	daddu	v0,s8,v0
ffffffffa0801cdc:	a0430030 	sb	v1,48(v0)
ffffffffa0801ce0:	8fc20004 	lw	v0,4(s8)
ffffffffa0801ce4:	24420001 	addiu	v0,v0,1
ffffffffa0801ce8:	afc20004 	sw	v0,4(s8)
ffffffffa0801cec:	dfc40040 	ld	a0,64(s8)
ffffffffa0801cf0:	0c202054 	jal	ffffffffa0808150 <strlen>
ffffffffa0801cf4:	00000000 	nop
ffffffffa0801cf8:	0040182d 	move	v1,v0
ffffffffa0801cfc:	8fc20004 	lw	v0,4(s8)
ffffffffa0801d00:	0043102a 	slt	v0,v0,v1
ffffffffa0801d04:	10400008 	beqz	v0,ffffffffa0801d28 <enter_dir+0x324>
ffffffffa0801d08:	00000000 	nop
ffffffffa0801d0c:	8fc20004 	lw	v0,4(s8)
ffffffffa0801d10:	dfc30040 	ld	v1,64(s8)
ffffffffa0801d14:	0062102d 	daddu	v0,v1,v0
ffffffffa0801d18:	80430000 	lb	v1,0(v0)
ffffffffa0801d1c:	2402002f 	li	v0,47
ffffffffa0801d20:	1462ffe8 	bne	v1,v0,ffffffffa0801cc4 <enter_dir+0x2c0>
ffffffffa0801d24:	00000000 	nop
ffffffffa0801d28:	8fc20004 	lw	v0,4(s8)
ffffffffa0801d2c:	03c2102d 	daddu	v0,s8,v0
ffffffffa0801d30:	a0400030 	sb	zero,48(v0)
ffffffffa0801d34:	67c20030 	daddiu	v0,s8,48
ffffffffa0801d38:	0040202d 	move	a0,v0
ffffffffa0801d3c:	0c20063d 	jal	ffffffffa08018f4 <is_name_in_dir>
ffffffffa0801d40:	00000000 	nop
ffffffffa0801d44:	afc20010 	sw	v0,16(s8)
ffffffffa0801d48:	8fc30010 	lw	v1,16(s8)
ffffffffa0801d4c:	2402ffff 	li	v0,-1
ffffffffa0801d50:	1462000d 	bne	v1,v0,ffffffffa0801d88 <enter_dir+0x384>
ffffffffa0801d54:	00000000 	nop
ffffffffa0801d58:	3c020000 	lui	v0,0x0
ffffffffa0801d5c:	64420000 	daddiu	v0,v0,0
ffffffffa0801d60:	00021438 	dsll	v0,v0,0x10
ffffffffa0801d64:	6442a081 	daddiu	v0,v0,-24447
ffffffffa0801d68:	00021438 	dsll	v0,v0,0x10
ffffffffa0801d6c:	6444aa70 	daddiu	a0,v0,-21904
ffffffffa0801d70:	dfc50040 	ld	a1,64(s8)
ffffffffa0801d74:	0c2023af 	jal	ffffffffa0808ebc <kprintf>
ffffffffa0801d78:	00000000 	nop
ffffffffa0801d7c:	2402ffff 	li	v0,-1
ffffffffa0801d80:	082007e3 	j	ffffffffa0801f8c <enter_dir+0x588>
ffffffffa0801d84:	00000000 	nop
ffffffffa0801d88:	8fc20010 	lw	v0,16(s8)
ffffffffa0801d8c:	24420002 	addiu	v0,v0,2
ffffffffa0801d90:	00021978 	dsll	v1,v0,0x5
ffffffffa0801d94:	3c02a800 	lui	v0,0xa800
ffffffffa0801d98:	0062102d 	daddu	v0,v1,v0
ffffffffa0801d9c:	ffc20018 	sd	v0,24(s8)
ffffffffa0801da0:	dfc20018 	ld	v0,24(s8)
ffffffffa0801da4:	8c420000 	lw	v0,0(v0)
ffffffffa0801da8:	afc20000 	sw	v0,0(s8)
ffffffffa0801dac:	dfc20018 	ld	v0,24(s8)
ffffffffa0801db0:	8c430004 	lw	v1,4(v0)
ffffffffa0801db4:	24020001 	li	v0,1
ffffffffa0801db8:	1462000c 	bne	v1,v0,ffffffffa0801dec <enter_dir+0x3e8>
ffffffffa0801dbc:	00000000 	nop
ffffffffa0801dc0:	3c020000 	lui	v0,0x0
ffffffffa0801dc4:	64420000 	daddiu	v0,v0,0
ffffffffa0801dc8:	00021438 	dsll	v0,v0,0x10
ffffffffa0801dcc:	6442a081 	daddiu	v0,v0,-24447
ffffffffa0801dd0:	00021438 	dsll	v0,v0,0x10
ffffffffa0801dd4:	6444aa88 	daddiu	a0,v0,-21880
ffffffffa0801dd8:	dfc50040 	ld	a1,64(s8)
ffffffffa0801ddc:	0c2023af 	jal	ffffffffa0808ebc <kprintf>
ffffffffa0801de0:	00000000 	nop
ffffffffa0801de4:	082007e3 	j	ffffffffa0801f8c <enter_dir+0x588>
ffffffffa0801de8:	00000000 	nop
ffffffffa0801dec:	dfc20018 	ld	v0,24(s8)
ffffffffa0801df0:	8c430004 	lw	v1,4(v0)
ffffffffa0801df4:	24020006 	li	v0,6
ffffffffa0801df8:	1462002d 	bne	v1,v0,ffffffffa0801eb0 <enter_dir+0x4ac>
ffffffffa0801dfc:	00000000 	nop
ffffffffa0801e00:	8fc20000 	lw	v0,0(s8)
ffffffffa0801e04:	0040202d 	move	a0,v0
ffffffffa0801e08:	0c20022a 	jal	ffffffffa08008a8 <read_inode>
ffffffffa0801e0c:	00000000 	nop
ffffffffa0801e10:	3c020000 	lui	v0,0x0
ffffffffa0801e14:	64420000 	daddiu	v0,v0,0
ffffffffa0801e18:	00021438 	dsll	v0,v0,0x10
ffffffffa0801e1c:	6442a081 	daddiu	v0,v0,-24447
ffffffffa0801e20:	00021438 	dsll	v0,v0,0x10
ffffffffa0801e24:	64421890 	daddiu	v0,v0,6288
ffffffffa0801e28:	8c42001c 	lw	v0,28(v0)
ffffffffa0801e2c:	0040202d 	move	a0,v0
ffffffffa0801e30:	0c20029a 	jal	ffffffffa0800a68 <read_block>
ffffffffa0801e34:	00000000 	nop
ffffffffa0801e38:	3c02a800 	lui	v0,0xa800
ffffffffa0801e3c:	ffc20020 	sd	v0,32(s8)
ffffffffa0801e40:	dfc20020 	ld	v0,32(s8)
ffffffffa0801e44:	8c420000 	lw	v0,0(v0)
ffffffffa0801e48:	afc20000 	sw	v0,0(s8)
ffffffffa0801e4c:	8fc20000 	lw	v0,0(s8)
ffffffffa0801e50:	24420002 	addiu	v0,v0,2
ffffffffa0801e54:	00021978 	dsll	v1,v0,0x5
ffffffffa0801e58:	3c02a800 	lui	v0,0xa800
ffffffffa0801e5c:	0062102d 	daddu	v0,v1,v0
ffffffffa0801e60:	ffc20028 	sd	v0,40(s8)
ffffffffa0801e64:	3c020000 	lui	v0,0x0
ffffffffa0801e68:	64420000 	daddiu	v0,v0,0
ffffffffa0801e6c:	00021438 	dsll	v0,v0,0x10
ffffffffa0801e70:	6442a081 	daddiu	v0,v0,-24447
ffffffffa0801e74:	00021438 	dsll	v0,v0,0x10
ffffffffa0801e78:	64421a08 	daddiu	v0,v0,6664
ffffffffa0801e7c:	8c42000c 	lw	v0,12(v0)
ffffffffa0801e80:	1440000b 	bnez	v0,ffffffffa0801eb0 <enter_dir+0x4ac>
ffffffffa0801e84:	00000000 	nop
ffffffffa0801e88:	3c020000 	lui	v0,0x0
ffffffffa0801e8c:	64420000 	daddiu	v0,v0,0
ffffffffa0801e90:	00021438 	dsll	v0,v0,0x10
ffffffffa0801e94:	6442a081 	daddiu	v0,v0,-24447
ffffffffa0801e98:	00021438 	dsll	v0,v0,0x10
ffffffffa0801e9c:	6444aaa0 	daddiu	a0,v0,-21856
ffffffffa0801ea0:	0c2023af 	jal	ffffffffa0808ebc <kprintf>
ffffffffa0801ea4:	00000000 	nop
ffffffffa0801ea8:	082007e3 	j	ffffffffa0801f8c <enter_dir+0x588>
ffffffffa0801eac:	00000000 	nop
ffffffffa0801eb0:	8fc20004 	lw	v0,4(s8)
ffffffffa0801eb4:	dfc30040 	ld	v1,64(s8)
ffffffffa0801eb8:	0062102d 	daddu	v0,v1,v0
ffffffffa0801ebc:	80420000 	lb	v0,0(v0)
ffffffffa0801ec0:	14400007 	bnez	v0,ffffffffa0801ee0 <enter_dir+0x4dc>
ffffffffa0801ec4:	00000000 	nop
ffffffffa0801ec8:	8fc20004 	lw	v0,4(s8)
ffffffffa0801ecc:	dfc30040 	ld	v1,64(s8)
ffffffffa0801ed0:	0062102d 	daddu	v0,v1,v0
ffffffffa0801ed4:	ffc20040 	sd	v0,64(s8)
ffffffffa0801ed8:	082007bd 	j	ffffffffa0801ef4 <enter_dir+0x4f0>
ffffffffa0801edc:	00000000 	nop
ffffffffa0801ee0:	8fc20004 	lw	v0,4(s8)
ffffffffa0801ee4:	64420001 	daddiu	v0,v0,1
ffffffffa0801ee8:	dfc30040 	ld	v1,64(s8)
ffffffffa0801eec:	0062102d 	daddu	v0,v1,v0
ffffffffa0801ef0:	ffc20040 	sd	v0,64(s8)
ffffffffa0801ef4:	67c50030 	daddiu	a1,s8,48
ffffffffa0801ef8:	8fc30000 	lw	v1,0(s8)
ffffffffa0801efc:	3c020000 	lui	v0,0x0
ffffffffa0801f00:	64420000 	daddiu	v0,v0,0
ffffffffa0801f04:	00021438 	dsll	v0,v0,0x10
ffffffffa0801f08:	6442a081 	daddiu	v0,v0,-24447
ffffffffa0801f0c:	00021438 	dsll	v0,v0,0x10
ffffffffa0801f10:	6444aab8 	daddiu	a0,v0,-21832
ffffffffa0801f14:	0060302d 	move	a2,v1
ffffffffa0801f18:	0c2023af 	jal	ffffffffa0808ebc <kprintf>
ffffffffa0801f1c:	00000000 	nop
ffffffffa0801f20:	8fc20000 	lw	v0,0(s8)
ffffffffa0801f24:	0040202d 	move	a0,v0
ffffffffa0801f28:	0c20022a 	jal	ffffffffa08008a8 <read_inode>
ffffffffa0801f2c:	00000000 	nop
ffffffffa0801f30:	3c020000 	lui	v0,0x0
ffffffffa0801f34:	64420000 	daddiu	v0,v0,0
ffffffffa0801f38:	00021438 	dsll	v0,v0,0x10
ffffffffa0801f3c:	6442a081 	daddiu	v0,v0,-24447
ffffffffa0801f40:	00021438 	dsll	v0,v0,0x10
ffffffffa0801f44:	64441a08 	daddiu	a0,v0,6664
ffffffffa0801f48:	3c020000 	lui	v0,0x0
ffffffffa0801f4c:	64420000 	daddiu	v0,v0,0
ffffffffa0801f50:	00021438 	dsll	v0,v0,0x10
ffffffffa0801f54:	6442a081 	daddiu	v0,v0,-24447
ffffffffa0801f58:	00021438 	dsll	v0,v0,0x10
ffffffffa0801f5c:	64451890 	daddiu	a1,v0,6288
ffffffffa0801f60:	24060080 	li	a2,128
ffffffffa0801f64:	0c20206a 	jal	ffffffffa08081a8 <memcpy>
ffffffffa0801f68:	00000000 	nop
ffffffffa0801f6c:	dfc40040 	ld	a0,64(s8)
ffffffffa0801f70:	0c202054 	jal	ffffffffa0808150 <strlen>
ffffffffa0801f74:	00000000 	nop
ffffffffa0801f78:	1440fec1 	bnez	v0,ffffffffa0801a80 <enter_dir+0x7c>
ffffffffa0801f7c:	00000000 	nop
ffffffffa0801f80:	0000102d 	move	v0,zero
ffffffffa0801f84:	082007e3 	j	ffffffffa0801f8c <enter_dir+0x588>
ffffffffa0801f88:	00000000 	nop
ffffffffa0801f8c:	03c0e82d 	move	sp,s8
ffffffffa0801f90:	dfbf0058 	ld	ra,88(sp)
ffffffffa0801f94:	dfbe0050 	ld	s8,80(sp)
ffffffffa0801f98:	67bd0060 	daddiu	sp,sp,96
ffffffffa0801f9c:	03e00008 	jr	ra
ffffffffa0801fa0:	00000000 	nop

ffffffffa0801fa4 <readdir>:
ffffffffa0801fa4:	67bdffd0 	daddiu	sp,sp,-48
ffffffffa0801fa8:	ffbf0028 	sd	ra,40(sp)
ffffffffa0801fac:	ffbe0020 	sd	s8,32(sp)
ffffffffa0801fb0:	03a0f02d 	move	s8,sp
ffffffffa0801fb4:	3c020000 	lui	v0,0x0
ffffffffa0801fb8:	64420000 	daddiu	v0,v0,0
ffffffffa0801fbc:	00021438 	dsll	v0,v0,0x10
ffffffffa0801fc0:	6442a081 	daddiu	v0,v0,-24447
ffffffffa0801fc4:	00021438 	dsll	v0,v0,0x10
ffffffffa0801fc8:	64421a08 	daddiu	v0,v0,6664
ffffffffa0801fcc:	8c42001c 	lw	v0,28(v0)
ffffffffa0801fd0:	0040202d 	move	a0,v0
ffffffffa0801fd4:	0c20029a 	jal	ffffffffa0800a68 <read_block>
ffffffffa0801fd8:	00000000 	nop
ffffffffa0801fdc:	3c02a800 	lui	v0,0xa800
ffffffffa0801fe0:	34420040 	ori	v0,v0,0x40
ffffffffa0801fe4:	ffc20008 	sd	v0,8(s8)
ffffffffa0801fe8:	3c020000 	lui	v0,0x0
ffffffffa0801fec:	64420000 	daddiu	v0,v0,0
ffffffffa0801ff0:	00021438 	dsll	v0,v0,0x10
ffffffffa0801ff4:	6442a081 	daddiu	v0,v0,-24447
ffffffffa0801ff8:	00021438 	dsll	v0,v0,0x10
ffffffffa0801ffc:	64421a08 	daddiu	v0,v0,6664
ffffffffa0802000:	8c420018 	lw	v0,24(v0)
ffffffffa0802004:	1040004b 	beqz	v0,ffffffffa0802134 <readdir+0x190>
ffffffffa0802008:	00000000 	nop
ffffffffa080200c:	afc00000 	sw	zero,0(s8)
ffffffffa0802010:	0820083a 	j	ffffffffa08020e8 <readdir+0x144>
ffffffffa0802014:	00000000 	nop
ffffffffa0802018:	8fc20000 	lw	v0,0(s8)
ffffffffa080201c:	24420002 	addiu	v0,v0,2
ffffffffa0802020:	00021978 	dsll	v1,v0,0x5
ffffffffa0802024:	3c02a800 	lui	v0,0xa800
ffffffffa0802028:	0062102d 	daddu	v0,v1,v0
ffffffffa080202c:	ffc20010 	sd	v0,16(s8)
ffffffffa0802030:	dfc20010 	ld	v0,16(s8)
ffffffffa0802034:	6445000c 	daddiu	a1,v0,12
ffffffffa0802038:	dfc20010 	ld	v0,16(s8)
ffffffffa080203c:	8c430004 	lw	v1,4(v0)
ffffffffa0802040:	24020002 	li	v0,2
ffffffffa0802044:	10620016 	beq	v1,v0,ffffffffa08020a0 <readdir+0xfc>
ffffffffa0802048:	00000000 	nop
ffffffffa080204c:	dfc20010 	ld	v0,16(s8)
ffffffffa0802050:	8c430004 	lw	v1,4(v0)
ffffffffa0802054:	24020001 	li	v0,1
ffffffffa0802058:	14620009 	bne	v1,v0,ffffffffa0802080 <readdir+0xdc>
ffffffffa080205c:	00000000 	nop
ffffffffa0802060:	3c020000 	lui	v0,0x0
ffffffffa0802064:	64420000 	daddiu	v0,v0,0
ffffffffa0802068:	00021438 	dsll	v0,v0,0x10
ffffffffa080206c:	6442a081 	daddiu	v0,v0,-24447
ffffffffa0802070:	00021438 	dsll	v0,v0,0x10
ffffffffa0802074:	6442aad8 	daddiu	v0,v0,-21800
ffffffffa0802078:	0820082e 	j	ffffffffa08020b8 <readdir+0x114>
ffffffffa080207c:	00000000 	nop
ffffffffa0802080:	3c020000 	lui	v0,0x0
ffffffffa0802084:	64420000 	daddiu	v0,v0,0
ffffffffa0802088:	00021438 	dsll	v0,v0,0x10
ffffffffa080208c:	6442a081 	daddiu	v0,v0,-24447
ffffffffa0802090:	00021438 	dsll	v0,v0,0x10
ffffffffa0802094:	6442aae0 	daddiu	v0,v0,-21792
ffffffffa0802098:	0820082e 	j	ffffffffa08020b8 <readdir+0x114>
ffffffffa080209c:	00000000 	nop
ffffffffa08020a0:	3c020000 	lui	v0,0x0
ffffffffa08020a4:	64420000 	daddiu	v0,v0,0
ffffffffa08020a8:	00021438 	dsll	v0,v0,0x10
ffffffffa08020ac:	6442a081 	daddiu	v0,v0,-24447
ffffffffa08020b0:	00021438 	dsll	v0,v0,0x10
ffffffffa08020b4:	6442aae8 	daddiu	v0,v0,-21784
ffffffffa08020b8:	3c030000 	lui	v1,0x0
ffffffffa08020bc:	64630000 	daddiu	v1,v1,0
ffffffffa08020c0:	00031c38 	dsll	v1,v1,0x10
ffffffffa08020c4:	6463a081 	daddiu	v1,v1,-24447
ffffffffa08020c8:	00031c38 	dsll	v1,v1,0x10
ffffffffa08020cc:	6464aaf0 	daddiu	a0,v1,-21776
ffffffffa08020d0:	0040302d 	move	a2,v0
ffffffffa08020d4:	0c2023af 	jal	ffffffffa0808ebc <kprintf>
ffffffffa08020d8:	00000000 	nop
ffffffffa08020dc:	8fc20000 	lw	v0,0(s8)
ffffffffa08020e0:	24420001 	addiu	v0,v0,1
ffffffffa08020e4:	afc20000 	sw	v0,0(s8)
ffffffffa08020e8:	8fc30000 	lw	v1,0(s8)
ffffffffa08020ec:	3c020000 	lui	v0,0x0
ffffffffa08020f0:	64420000 	daddiu	v0,v0,0
ffffffffa08020f4:	00021438 	dsll	v0,v0,0x10
ffffffffa08020f8:	6442a081 	daddiu	v0,v0,-24447
ffffffffa08020fc:	00021438 	dsll	v0,v0,0x10
ffffffffa0802100:	64421a08 	daddiu	v0,v0,6664
ffffffffa0802104:	8c420018 	lw	v0,24(v0)
ffffffffa0802108:	0062102b 	sltu	v0,v1,v0
ffffffffa080210c:	1440ffc2 	bnez	v0,ffffffffa0802018 <readdir+0x74>
ffffffffa0802110:	00000000 	nop
ffffffffa0802114:	3c020000 	lui	v0,0x0
ffffffffa0802118:	64420000 	daddiu	v0,v0,0
ffffffffa080211c:	00021438 	dsll	v0,v0,0x10
ffffffffa0802120:	6442a081 	daddiu	v0,v0,-24447
ffffffffa0802124:	00021438 	dsll	v0,v0,0x10
ffffffffa0802128:	6444ab00 	daddiu	a0,v0,-21760
ffffffffa080212c:	0c2023af 	jal	ffffffffa0808ebc <kprintf>
ffffffffa0802130:	00000000 	nop
ffffffffa0802134:	0000102d 	move	v0,zero
ffffffffa0802138:	03c0e82d 	move	sp,s8
ffffffffa080213c:	dfbf0028 	ld	ra,40(sp)
ffffffffa0802140:	dfbe0020 	ld	s8,32(sp)
ffffffffa0802144:	67bd0030 	daddiu	sp,sp,48
ffffffffa0802148:	03e00008 	jr	ra
ffffffffa080214c:	00000000 	nop

ffffffffa0802150 <mkdir>:
ffffffffa0802150:	67bdffd0 	daddiu	sp,sp,-48
ffffffffa0802154:	ffbf0028 	sd	ra,40(sp)
ffffffffa0802158:	ffbe0020 	sd	s8,32(sp)
ffffffffa080215c:	03a0f02d 	move	s8,sp
ffffffffa0802160:	ffc40010 	sd	a0,16(s8)
ffffffffa0802164:	0c2002c6 	jal	ffffffffa0800b18 <alloc_inode>
ffffffffa0802168:	00000000 	nop
ffffffffa080216c:	afc20000 	sw	v0,0(s8)
ffffffffa0802170:	0c200361 	jal	ffffffffa0800d84 <alloc_block>
ffffffffa0802174:	00000000 	nop
ffffffffa0802178:	afc20004 	sw	v0,4(s8)
ffffffffa080217c:	3c020000 	lui	v0,0x0
ffffffffa0802180:	64420000 	daddiu	v0,v0,0
ffffffffa0802184:	00021438 	dsll	v0,v0,0x10
ffffffffa0802188:	6442a081 	daddiu	v0,v0,-24447
ffffffffa080218c:	00021438 	dsll	v0,v0,0x10
ffffffffa0802190:	8c431a08 	lw	v1,6664(v0)
ffffffffa0802194:	8fc40004 	lw	a0,4(s8)
ffffffffa0802198:	8fc20000 	lw	v0,0(s8)
ffffffffa080219c:	0060282d 	move	a1,v1
ffffffffa08021a0:	0040302d 	move	a2,v0
ffffffffa08021a4:	24070003 	li	a3,3
ffffffffa08021a8:	24080002 	li	a4,2
ffffffffa08021ac:	0c20052c 	jal	ffffffffa08014b0 <init_inode>
ffffffffa08021b0:	00000000 	nop
ffffffffa08021b4:	3c020000 	lui	v0,0x0
ffffffffa08021b8:	64420000 	daddiu	v0,v0,0
ffffffffa08021bc:	00021438 	dsll	v0,v0,0x10
ffffffffa08021c0:	6442a081 	daddiu	v0,v0,-24447
ffffffffa08021c4:	00021438 	dsll	v0,v0,0x10
ffffffffa08021c8:	8c421a08 	lw	v0,6664(v0)
ffffffffa08021cc:	3042ffff 	andi	v0,v0,0xffff
ffffffffa08021d0:	0040182d 	move	v1,v0
ffffffffa08021d4:	8fc20000 	lw	v0,0(s8)
ffffffffa08021d8:	3042ffff 	andi	v0,v0,0xffff
ffffffffa08021dc:	8fc40004 	lw	a0,4(s8)
ffffffffa08021e0:	0060282d 	move	a1,v1
ffffffffa08021e4:	0040302d 	move	a2,v0
ffffffffa08021e8:	0c2005be 	jal	ffffffffa08016f8 <init_dir_block>
ffffffffa08021ec:	00000000 	nop
ffffffffa08021f0:	3c020000 	lui	v0,0x0
ffffffffa08021f4:	64420000 	daddiu	v0,v0,0
ffffffffa08021f8:	00021438 	dsll	v0,v0,0x10
ffffffffa08021fc:	6442a081 	daddiu	v0,v0,-24447
ffffffffa0802200:	00021438 	dsll	v0,v0,0x10
ffffffffa0802204:	64421a08 	daddiu	v0,v0,6664
ffffffffa0802208:	8c42001c 	lw	v0,28(v0)
ffffffffa080220c:	0040202d 	move	a0,v0
ffffffffa0802210:	0c20029a 	jal	ffffffffa0800a68 <read_block>
ffffffffa0802214:	00000000 	nop
ffffffffa0802218:	3c020000 	lui	v0,0x0
ffffffffa080221c:	64420000 	daddiu	v0,v0,0
ffffffffa0802220:	00021438 	dsll	v0,v0,0x10
ffffffffa0802224:	6442a081 	daddiu	v0,v0,-24447
ffffffffa0802228:	00021438 	dsll	v0,v0,0x10
ffffffffa080222c:	64421a08 	daddiu	v0,v0,6664
ffffffffa0802230:	8c420018 	lw	v0,24(v0)
ffffffffa0802234:	24420002 	addiu	v0,v0,2
ffffffffa0802238:	0002103c 	dsll32	v0,v0,0x0
ffffffffa080223c:	0002103e 	dsrl32	v0,v0,0x0
ffffffffa0802240:	00021978 	dsll	v1,v0,0x5
ffffffffa0802244:	3c02a800 	lui	v0,0xa800
ffffffffa0802248:	0062102d 	daddu	v0,v1,v0
ffffffffa080224c:	ffc20008 	sd	v0,8(s8)
ffffffffa0802250:	dfc20008 	ld	v0,8(s8)
ffffffffa0802254:	8fc30000 	lw	v1,0(s8)
ffffffffa0802258:	ac430000 	sw	v1,0(v0)
ffffffffa080225c:	dfc20008 	ld	v0,8(s8)
ffffffffa0802260:	24030002 	li	v1,2
ffffffffa0802264:	ac430004 	sw	v1,4(v0)
ffffffffa0802268:	dfc20008 	ld	v0,8(s8)
ffffffffa080226c:	24030003 	li	v1,3
ffffffffa0802270:	ac430008 	sw	v1,8(v0)
ffffffffa0802274:	dfc20008 	ld	v0,8(s8)
ffffffffa0802278:	6442000c 	daddiu	v0,v0,12
ffffffffa080227c:	0040202d 	move	a0,v0
ffffffffa0802280:	dfc50010 	ld	a1,16(s8)
ffffffffa0802284:	0c20212f 	jal	ffffffffa08084bc <strcpy>
ffffffffa0802288:	00000000 	nop
ffffffffa080228c:	3c020000 	lui	v0,0x0
ffffffffa0802290:	64420000 	daddiu	v0,v0,0
ffffffffa0802294:	00021438 	dsll	v0,v0,0x10
ffffffffa0802298:	6442a081 	daddiu	v0,v0,-24447
ffffffffa080229c:	00021438 	dsll	v0,v0,0x10
ffffffffa08022a0:	64421a08 	daddiu	v0,v0,6664
ffffffffa08022a4:	8c42001c 	lw	v0,28(v0)
ffffffffa08022a8:	0040202d 	move	a0,v0
ffffffffa08022ac:	0c2002b0 	jal	ffffffffa0800ac0 <write_block>
ffffffffa08022b0:	00000000 	nop
ffffffffa08022b4:	3c020000 	lui	v0,0x0
ffffffffa08022b8:	64420000 	daddiu	v0,v0,0
ffffffffa08022bc:	00021438 	dsll	v0,v0,0x10
ffffffffa08022c0:	6442a081 	daddiu	v0,v0,-24447
ffffffffa08022c4:	00021438 	dsll	v0,v0,0x10
ffffffffa08022c8:	64421a08 	daddiu	v0,v0,6664
ffffffffa08022cc:	8c420014 	lw	v0,20(v0)
ffffffffa08022d0:	24420020 	addiu	v0,v0,32
ffffffffa08022d4:	0040182d 	move	v1,v0
ffffffffa08022d8:	3c020000 	lui	v0,0x0
ffffffffa08022dc:	64420000 	daddiu	v0,v0,0
ffffffffa08022e0:	00021438 	dsll	v0,v0,0x10
ffffffffa08022e4:	6442a081 	daddiu	v0,v0,-24447
ffffffffa08022e8:	00021438 	dsll	v0,v0,0x10
ffffffffa08022ec:	64421a08 	daddiu	v0,v0,6664
ffffffffa08022f0:	ac430014 	sw	v1,20(v0)
ffffffffa08022f4:	3c020000 	lui	v0,0x0
ffffffffa08022f8:	64420000 	daddiu	v0,v0,0
ffffffffa08022fc:	00021438 	dsll	v0,v0,0x10
ffffffffa0802300:	6442a081 	daddiu	v0,v0,-24447
ffffffffa0802304:	00021438 	dsll	v0,v0,0x10
ffffffffa0802308:	64421a08 	daddiu	v0,v0,6664
ffffffffa080230c:	8c420018 	lw	v0,24(v0)
ffffffffa0802310:	24420001 	addiu	v0,v0,1
ffffffffa0802314:	0040182d 	move	v1,v0
ffffffffa0802318:	3c020000 	lui	v0,0x0
ffffffffa080231c:	64420000 	daddiu	v0,v0,0
ffffffffa0802320:	00021438 	dsll	v0,v0,0x10
ffffffffa0802324:	6442a081 	daddiu	v0,v0,-24447
ffffffffa0802328:	00021438 	dsll	v0,v0,0x10
ffffffffa080232c:	64421a08 	daddiu	v0,v0,6664
ffffffffa0802330:	ac430018 	sw	v1,24(v0)
ffffffffa0802334:	3c020000 	lui	v0,0x0
ffffffffa0802338:	64420000 	daddiu	v0,v0,0
ffffffffa080233c:	00021438 	dsll	v0,v0,0x10
ffffffffa0802340:	6442a081 	daddiu	v0,v0,-24447
ffffffffa0802344:	00021438 	dsll	v0,v0,0x10
ffffffffa0802348:	64421a08 	daddiu	v0,v0,6664
ffffffffa080234c:	8c42000c 	lw	v0,12(v0)
ffffffffa0802350:	24420001 	addiu	v0,v0,1
ffffffffa0802354:	0040182d 	move	v1,v0
ffffffffa0802358:	3c020000 	lui	v0,0x0
ffffffffa080235c:	64420000 	daddiu	v0,v0,0
ffffffffa0802360:	00021438 	dsll	v0,v0,0x10
ffffffffa0802364:	6442a081 	daddiu	v0,v0,-24447
ffffffffa0802368:	00021438 	dsll	v0,v0,0x10
ffffffffa080236c:	64421a08 	daddiu	v0,v0,6664
ffffffffa0802370:	ac43000c 	sw	v1,12(v0)
ffffffffa0802374:	3c020000 	lui	v0,0x0
ffffffffa0802378:	64420000 	daddiu	v0,v0,0
ffffffffa080237c:	00021438 	dsll	v0,v0,0x10
ffffffffa0802380:	6442a081 	daddiu	v0,v0,-24447
ffffffffa0802384:	00021438 	dsll	v0,v0,0x10
ffffffffa0802388:	64421a08 	daddiu	v0,v0,6664
ffffffffa080238c:	8c420010 	lw	v0,16(v0)
ffffffffa0802390:	24420001 	addiu	v0,v0,1
ffffffffa0802394:	0040182d 	move	v1,v0
ffffffffa0802398:	3c020000 	lui	v0,0x0
ffffffffa080239c:	64420000 	daddiu	v0,v0,0
ffffffffa08023a0:	00021438 	dsll	v0,v0,0x10
ffffffffa08023a4:	6442a081 	daddiu	v0,v0,-24447
ffffffffa08023a8:	00021438 	dsll	v0,v0,0x10
ffffffffa08023ac:	64421a08 	daddiu	v0,v0,6664
ffffffffa08023b0:	ac430010 	sw	v1,16(v0)
ffffffffa08023b4:	3c020000 	lui	v0,0x0
ffffffffa08023b8:	64420000 	daddiu	v0,v0,0
ffffffffa08023bc:	00021438 	dsll	v0,v0,0x10
ffffffffa08023c0:	6442a081 	daddiu	v0,v0,-24447
ffffffffa08023c4:	00021438 	dsll	v0,v0,0x10
ffffffffa08023c8:	64441890 	daddiu	a0,v0,6288
ffffffffa08023cc:	3c020000 	lui	v0,0x0
ffffffffa08023d0:	64420000 	daddiu	v0,v0,0
ffffffffa08023d4:	00021438 	dsll	v0,v0,0x10
ffffffffa08023d8:	6442a081 	daddiu	v0,v0,-24447
ffffffffa08023dc:	00021438 	dsll	v0,v0,0x10
ffffffffa08023e0:	64451a08 	daddiu	a1,v0,6664
ffffffffa08023e4:	24060080 	li	a2,128
ffffffffa08023e8:	0c20206a 	jal	ffffffffa08081a8 <memcpy>
ffffffffa08023ec:	00000000 	nop
ffffffffa08023f0:	3c020000 	lui	v0,0x0
ffffffffa08023f4:	64420000 	daddiu	v0,v0,0
ffffffffa08023f8:	00021438 	dsll	v0,v0,0x10
ffffffffa08023fc:	6442a081 	daddiu	v0,v0,-24447
ffffffffa0802400:	00021438 	dsll	v0,v0,0x10
ffffffffa0802404:	8c421a08 	lw	v0,6664(v0)
ffffffffa0802408:	0040202d 	move	a0,v0
ffffffffa080240c:	0c20025b 	jal	ffffffffa080096c <write_inode>
ffffffffa0802410:	00000000 	nop
ffffffffa0802414:	0000102d 	move	v0,zero
ffffffffa0802418:	03c0e82d 	move	sp,s8
ffffffffa080241c:	dfbf0028 	ld	ra,40(sp)
ffffffffa0802420:	dfbe0020 	ld	s8,32(sp)
ffffffffa0802424:	67bd0030 	daddiu	sp,sp,48
ffffffffa0802428:	03e00008 	jr	ra
ffffffffa080242c:	00000000 	nop

ffffffffa0802430 <rmdir>:
ffffffffa0802430:	67bdffd0 	daddiu	sp,sp,-48
ffffffffa0802434:	ffbf0028 	sd	ra,40(sp)
ffffffffa0802438:	ffbe0020 	sd	s8,32(sp)
ffffffffa080243c:	03a0f02d 	move	s8,sp
ffffffffa0802440:	ffc40010 	sd	a0,16(s8)
ffffffffa0802444:	dfc40010 	ld	a0,16(s8)
ffffffffa0802448:	0c20063d 	jal	ffffffffa08018f4 <is_name_in_dir>
ffffffffa080244c:	00000000 	nop
ffffffffa0802450:	afc20000 	sw	v0,0(s8)
ffffffffa0802454:	8fc20000 	lw	v0,0(s8)
ffffffffa0802458:	24420002 	addiu	v0,v0,2
ffffffffa080245c:	00021978 	dsll	v1,v0,0x5
ffffffffa0802460:	3c02a800 	lui	v0,0xa800
ffffffffa0802464:	0062102d 	daddu	v0,v1,v0
ffffffffa0802468:	ffc20008 	sd	v0,8(s8)
ffffffffa080246c:	8fc30000 	lw	v1,0(s8)
ffffffffa0802470:	2402ffff 	li	v0,-1
ffffffffa0802474:	1462000d 	bne	v1,v0,ffffffffa08024ac <rmdir+0x7c>
ffffffffa0802478:	00000000 	nop
ffffffffa080247c:	3c020000 	lui	v0,0x0
ffffffffa0802480:	64420000 	daddiu	v0,v0,0
ffffffffa0802484:	00021438 	dsll	v0,v0,0x10
ffffffffa0802488:	6442a081 	daddiu	v0,v0,-24447
ffffffffa080248c:	00021438 	dsll	v0,v0,0x10
ffffffffa0802490:	6444ab08 	daddiu	a0,v0,-21752
ffffffffa0802494:	dfc50010 	ld	a1,16(s8)
ffffffffa0802498:	0c2023af 	jal	ffffffffa0808ebc <kprintf>
ffffffffa080249c:	00000000 	nop
ffffffffa08024a0:	2402ffff 	li	v0,-1
ffffffffa08024a4:	082009e5 	j	ffffffffa0802794 <rmdir+0x364>
ffffffffa08024a8:	00000000 	nop
ffffffffa08024ac:	dfc20008 	ld	v0,8(s8)
ffffffffa08024b0:	8c430004 	lw	v1,4(v0)
ffffffffa08024b4:	24020002 	li	v0,2
ffffffffa08024b8:	1062000c 	beq	v1,v0,ffffffffa08024ec <rmdir+0xbc>
ffffffffa08024bc:	00000000 	nop
ffffffffa08024c0:	3c020000 	lui	v0,0x0
ffffffffa08024c4:	64420000 	daddiu	v0,v0,0
ffffffffa08024c8:	00021438 	dsll	v0,v0,0x10
ffffffffa08024cc:	6442a081 	daddiu	v0,v0,-24447
ffffffffa08024d0:	00021438 	dsll	v0,v0,0x10
ffffffffa08024d4:	6444ab28 	daddiu	a0,v0,-21720
ffffffffa08024d8:	dfc50010 	ld	a1,16(s8)
ffffffffa08024dc:	0c2023af 	jal	ffffffffa0808ebc <kprintf>
ffffffffa08024e0:	00000000 	nop
ffffffffa08024e4:	082009e5 	j	ffffffffa0802794 <rmdir+0x364>
ffffffffa08024e8:	00000000 	nop
ffffffffa08024ec:	3c020000 	lui	v0,0x0
ffffffffa08024f0:	64420000 	daddiu	v0,v0,0
ffffffffa08024f4:	00021438 	dsll	v0,v0,0x10
ffffffffa08024f8:	6442a081 	daddiu	v0,v0,-24447
ffffffffa08024fc:	00021438 	dsll	v0,v0,0x10
ffffffffa0802500:	64421a08 	daddiu	v0,v0,6664
ffffffffa0802504:	8c420014 	lw	v0,20(v0)
ffffffffa0802508:	2442ffe0 	addiu	v0,v0,-32
ffffffffa080250c:	0040182d 	move	v1,v0
ffffffffa0802510:	3c020000 	lui	v0,0x0
ffffffffa0802514:	64420000 	daddiu	v0,v0,0
ffffffffa0802518:	00021438 	dsll	v0,v0,0x10
ffffffffa080251c:	6442a081 	daddiu	v0,v0,-24447
ffffffffa0802520:	00021438 	dsll	v0,v0,0x10
ffffffffa0802524:	64421a08 	daddiu	v0,v0,6664
ffffffffa0802528:	ac430014 	sw	v1,20(v0)
ffffffffa080252c:	3c020000 	lui	v0,0x0
ffffffffa0802530:	64420000 	daddiu	v0,v0,0
ffffffffa0802534:	00021438 	dsll	v0,v0,0x10
ffffffffa0802538:	6442a081 	daddiu	v0,v0,-24447
ffffffffa080253c:	00021438 	dsll	v0,v0,0x10
ffffffffa0802540:	64421a08 	daddiu	v0,v0,6664
ffffffffa0802544:	8c420018 	lw	v0,24(v0)
ffffffffa0802548:	2442ffff 	addiu	v0,v0,-1
ffffffffa080254c:	0040182d 	move	v1,v0
ffffffffa0802550:	3c020000 	lui	v0,0x0
ffffffffa0802554:	64420000 	daddiu	v0,v0,0
ffffffffa0802558:	00021438 	dsll	v0,v0,0x10
ffffffffa080255c:	6442a081 	daddiu	v0,v0,-24447
ffffffffa0802560:	00021438 	dsll	v0,v0,0x10
ffffffffa0802564:	64421a08 	daddiu	v0,v0,6664
ffffffffa0802568:	ac430018 	sw	v1,24(v0)
ffffffffa080256c:	3c020000 	lui	v0,0x0
ffffffffa0802570:	64420000 	daddiu	v0,v0,0
ffffffffa0802574:	00021438 	dsll	v0,v0,0x10
ffffffffa0802578:	6442a081 	daddiu	v0,v0,-24447
ffffffffa080257c:	00021438 	dsll	v0,v0,0x10
ffffffffa0802580:	64421a08 	daddiu	v0,v0,6664
ffffffffa0802584:	8c42000c 	lw	v0,12(v0)
ffffffffa0802588:	2442ffff 	addiu	v0,v0,-1
ffffffffa080258c:	0040182d 	move	v1,v0
ffffffffa0802590:	3c020000 	lui	v0,0x0
ffffffffa0802594:	64420000 	daddiu	v0,v0,0
ffffffffa0802598:	00021438 	dsll	v0,v0,0x10
ffffffffa080259c:	6442a081 	daddiu	v0,v0,-24447
ffffffffa08025a0:	00021438 	dsll	v0,v0,0x10
ffffffffa08025a4:	64421a08 	daddiu	v0,v0,6664
ffffffffa08025a8:	ac43000c 	sw	v1,12(v0)
ffffffffa08025ac:	3c020000 	lui	v0,0x0
ffffffffa08025b0:	64420000 	daddiu	v0,v0,0
ffffffffa08025b4:	00021438 	dsll	v0,v0,0x10
ffffffffa08025b8:	6442a081 	daddiu	v0,v0,-24447
ffffffffa08025bc:	00021438 	dsll	v0,v0,0x10
ffffffffa08025c0:	64421a08 	daddiu	v0,v0,6664
ffffffffa08025c4:	8c420010 	lw	v0,16(v0)
ffffffffa08025c8:	2442ffff 	addiu	v0,v0,-1
ffffffffa08025cc:	0040182d 	move	v1,v0
ffffffffa08025d0:	3c020000 	lui	v0,0x0
ffffffffa08025d4:	64420000 	daddiu	v0,v0,0
ffffffffa08025d8:	00021438 	dsll	v0,v0,0x10
ffffffffa08025dc:	6442a081 	daddiu	v0,v0,-24447
ffffffffa08025e0:	00021438 	dsll	v0,v0,0x10
ffffffffa08025e4:	64421a08 	daddiu	v0,v0,6664
ffffffffa08025e8:	ac430010 	sw	v1,16(v0)
ffffffffa08025ec:	3c020000 	lui	v0,0x0
ffffffffa08025f0:	64420000 	daddiu	v0,v0,0
ffffffffa08025f4:	00021438 	dsll	v0,v0,0x10
ffffffffa08025f8:	6442a081 	daddiu	v0,v0,-24447
ffffffffa08025fc:	00021438 	dsll	v0,v0,0x10
ffffffffa0802600:	64441890 	daddiu	a0,v0,6288
ffffffffa0802604:	3c020000 	lui	v0,0x0
ffffffffa0802608:	64420000 	daddiu	v0,v0,0
ffffffffa080260c:	00021438 	dsll	v0,v0,0x10
ffffffffa0802610:	6442a081 	daddiu	v0,v0,-24447
ffffffffa0802614:	00021438 	dsll	v0,v0,0x10
ffffffffa0802618:	64451a08 	daddiu	a1,v0,6664
ffffffffa080261c:	24060080 	li	a2,128
ffffffffa0802620:	0c20206a 	jal	ffffffffa08081a8 <memcpy>
ffffffffa0802624:	00000000 	nop
ffffffffa0802628:	3c020000 	lui	v0,0x0
ffffffffa080262c:	64420000 	daddiu	v0,v0,0
ffffffffa0802630:	00021438 	dsll	v0,v0,0x10
ffffffffa0802634:	6442a081 	daddiu	v0,v0,-24447
ffffffffa0802638:	00021438 	dsll	v0,v0,0x10
ffffffffa080263c:	8c421a08 	lw	v0,6664(v0)
ffffffffa0802640:	0040202d 	move	a0,v0
ffffffffa0802644:	0c20025b 	jal	ffffffffa080096c <write_inode>
ffffffffa0802648:	00000000 	nop
ffffffffa080264c:	3c020000 	lui	v0,0x0
ffffffffa0802650:	64420000 	daddiu	v0,v0,0
ffffffffa0802654:	00021438 	dsll	v0,v0,0x10
ffffffffa0802658:	6442a081 	daddiu	v0,v0,-24447
ffffffffa080265c:	00021438 	dsll	v0,v0,0x10
ffffffffa0802660:	64421a08 	daddiu	v0,v0,6664
ffffffffa0802664:	8c420010 	lw	v0,16(v0)
ffffffffa0802668:	14400015 	bnez	v0,ffffffffa08026c0 <rmdir+0x290>
ffffffffa080266c:	00000000 	nop
ffffffffa0802670:	dfc20008 	ld	v0,8(s8)
ffffffffa0802674:	8c420000 	lw	v0,0(v0)
ffffffffa0802678:	0040202d 	move	a0,v0
ffffffffa080267c:	0c20022a 	jal	ffffffffa08008a8 <read_inode>
ffffffffa0802680:	00000000 	nop
ffffffffa0802684:	3c020000 	lui	v0,0x0
ffffffffa0802688:	64420000 	daddiu	v0,v0,0
ffffffffa080268c:	00021438 	dsll	v0,v0,0x10
ffffffffa0802690:	6442a081 	daddiu	v0,v0,-24447
ffffffffa0802694:	00021438 	dsll	v0,v0,0x10
ffffffffa0802698:	64421890 	daddiu	v0,v0,6288
ffffffffa080269c:	8c42001c 	lw	v0,28(v0)
ffffffffa08026a0:	0040202d 	move	a0,v0
ffffffffa08026a4:	0c2003cc 	jal	ffffffffa0800f30 <free_block>
ffffffffa08026a8:	00000000 	nop
ffffffffa08026ac:	dfc20008 	ld	v0,8(s8)
ffffffffa08026b0:	8c420000 	lw	v0,0(v0)
ffffffffa08026b4:	0040202d 	move	a0,v0
ffffffffa08026b8:	0c200328 	jal	ffffffffa0800ca0 <free_inode>
ffffffffa08026bc:	00000000 	nop
ffffffffa08026c0:	3c020000 	lui	v0,0x0
ffffffffa08026c4:	64420000 	daddiu	v0,v0,0
ffffffffa08026c8:	00021438 	dsll	v0,v0,0x10
ffffffffa08026cc:	6442a081 	daddiu	v0,v0,-24447
ffffffffa08026d0:	00021438 	dsll	v0,v0,0x10
ffffffffa08026d4:	64421a08 	daddiu	v0,v0,6664
ffffffffa08026d8:	8c42001c 	lw	v0,28(v0)
ffffffffa08026dc:	0040202d 	move	a0,v0
ffffffffa08026e0:	0c20029a 	jal	ffffffffa0800a68 <read_block>
ffffffffa08026e4:	00000000 	nop
ffffffffa08026e8:	dfc40008 	ld	a0,8(s8)
ffffffffa08026ec:	24050020 	li	a1,32
ffffffffa08026f0:	0c2020a5 	jal	ffffffffa0808294 <bzero>
ffffffffa08026f4:	00000000 	nop
ffffffffa08026f8:	8fc20000 	lw	v0,0(s8)
ffffffffa08026fc:	3c030000 	lui	v1,0x0
ffffffffa0802700:	64630000 	daddiu	v1,v1,0
ffffffffa0802704:	00031c38 	dsll	v1,v1,0x10
ffffffffa0802708:	6463a081 	daddiu	v1,v1,-24447
ffffffffa080270c:	00031c38 	dsll	v1,v1,0x10
ffffffffa0802710:	64631a08 	daddiu	v1,v1,6664
ffffffffa0802714:	8c630018 	lw	v1,24(v1)
ffffffffa0802718:	10430013 	beq	v0,v1,ffffffffa0802768 <rmdir+0x338>
ffffffffa080271c:	00000000 	nop
ffffffffa0802720:	3c020000 	lui	v0,0x0
ffffffffa0802724:	64420000 	daddiu	v0,v0,0
ffffffffa0802728:	00021438 	dsll	v0,v0,0x10
ffffffffa080272c:	6442a081 	daddiu	v0,v0,-24447
ffffffffa0802730:	00021438 	dsll	v0,v0,0x10
ffffffffa0802734:	64421a08 	daddiu	v0,v0,6664
ffffffffa0802738:	8c420018 	lw	v0,24(v0)
ffffffffa080273c:	24420002 	addiu	v0,v0,2
ffffffffa0802740:	0002103c 	dsll32	v0,v0,0x0
ffffffffa0802744:	0002103e 	dsrl32	v0,v0,0x0
ffffffffa0802748:	00021978 	dsll	v1,v0,0x5
ffffffffa080274c:	3c02a800 	lui	v0,0xa800
ffffffffa0802750:	0062102d 	daddu	v0,v1,v0
ffffffffa0802754:	dfc40008 	ld	a0,8(s8)
ffffffffa0802758:	0040282d 	move	a1,v0
ffffffffa080275c:	24060020 	li	a2,32
ffffffffa0802760:	0c20206a 	jal	ffffffffa08081a8 <memcpy>
ffffffffa0802764:	00000000 	nop
ffffffffa0802768:	3c020000 	lui	v0,0x0
ffffffffa080276c:	64420000 	daddiu	v0,v0,0
ffffffffa0802770:	00021438 	dsll	v0,v0,0x10
ffffffffa0802774:	6442a081 	daddiu	v0,v0,-24447
ffffffffa0802778:	00021438 	dsll	v0,v0,0x10
ffffffffa080277c:	64421a08 	daddiu	v0,v0,6664
ffffffffa0802780:	8c42001c 	lw	v0,28(v0)
ffffffffa0802784:	0040202d 	move	a0,v0
ffffffffa0802788:	0c2002b0 	jal	ffffffffa0800ac0 <write_block>
ffffffffa080278c:	00000000 	nop
ffffffffa0802790:	0000102d 	move	v0,zero
ffffffffa0802794:	03c0e82d 	move	sp,s8
ffffffffa0802798:	dfbf0028 	ld	ra,40(sp)
ffffffffa080279c:	dfbe0020 	ld	s8,32(sp)
ffffffffa08027a0:	67bd0030 	daddiu	sp,sp,48
ffffffffa08027a4:	03e00008 	jr	ra
ffffffffa08027a8:	00000000 	nop

ffffffffa08027ac <rm>:
ffffffffa08027ac:	67bdffd0 	daddiu	sp,sp,-48
ffffffffa08027b0:	ffbf0028 	sd	ra,40(sp)
ffffffffa08027b4:	ffbe0020 	sd	s8,32(sp)
ffffffffa08027b8:	03a0f02d 	move	s8,sp
ffffffffa08027bc:	ffc40010 	sd	a0,16(s8)
ffffffffa08027c0:	dfc40010 	ld	a0,16(s8)
ffffffffa08027c4:	0c20063d 	jal	ffffffffa08018f4 <is_name_in_dir>
ffffffffa08027c8:	00000000 	nop
ffffffffa08027cc:	afc20000 	sw	v0,0(s8)
ffffffffa08027d0:	8fc20000 	lw	v0,0(s8)
ffffffffa08027d4:	24420002 	addiu	v0,v0,2
ffffffffa08027d8:	00021978 	dsll	v1,v0,0x5
ffffffffa08027dc:	3c02a800 	lui	v0,0xa800
ffffffffa08027e0:	0062102d 	daddu	v0,v1,v0
ffffffffa08027e4:	ffc20008 	sd	v0,8(s8)
ffffffffa08027e8:	8fc30000 	lw	v1,0(s8)
ffffffffa08027ec:	2402ffff 	li	v0,-1
ffffffffa08027f0:	1462000d 	bne	v1,v0,ffffffffa0802828 <rm+0x7c>
ffffffffa08027f4:	00000000 	nop
ffffffffa08027f8:	3c020000 	lui	v0,0x0
ffffffffa08027fc:	64420000 	daddiu	v0,v0,0
ffffffffa0802800:	00021438 	dsll	v0,v0,0x10
ffffffffa0802804:	6442a081 	daddiu	v0,v0,-24447
ffffffffa0802808:	00021438 	dsll	v0,v0,0x10
ffffffffa080280c:	6444ab58 	daddiu	a0,v0,-21672
ffffffffa0802810:	dfc50010 	ld	a1,16(s8)
ffffffffa0802814:	0c2023af 	jal	ffffffffa0808ebc <kprintf>
ffffffffa0802818:	00000000 	nop
ffffffffa080281c:	2402ffff 	li	v0,-1
ffffffffa0802820:	08200ac4 	j	ffffffffa0802b10 <rm+0x364>
ffffffffa0802824:	00000000 	nop
ffffffffa0802828:	dfc20008 	ld	v0,8(s8)
ffffffffa080282c:	8c430004 	lw	v1,4(v0)
ffffffffa0802830:	24020002 	li	v0,2
ffffffffa0802834:	1462000c 	bne	v1,v0,ffffffffa0802868 <rm+0xbc>
ffffffffa0802838:	00000000 	nop
ffffffffa080283c:	3c020000 	lui	v0,0x0
ffffffffa0802840:	64420000 	daddiu	v0,v0,0
ffffffffa0802844:	00021438 	dsll	v0,v0,0x10
ffffffffa0802848:	6442a081 	daddiu	v0,v0,-24447
ffffffffa080284c:	00021438 	dsll	v0,v0,0x10
ffffffffa0802850:	6444ab78 	daddiu	a0,v0,-21640
ffffffffa0802854:	dfc50010 	ld	a1,16(s8)
ffffffffa0802858:	0c2023af 	jal	ffffffffa0808ebc <kprintf>
ffffffffa080285c:	00000000 	nop
ffffffffa0802860:	08200ac4 	j	ffffffffa0802b10 <rm+0x364>
ffffffffa0802864:	00000000 	nop
ffffffffa0802868:	3c020000 	lui	v0,0x0
ffffffffa080286c:	64420000 	daddiu	v0,v0,0
ffffffffa0802870:	00021438 	dsll	v0,v0,0x10
ffffffffa0802874:	6442a081 	daddiu	v0,v0,-24447
ffffffffa0802878:	00021438 	dsll	v0,v0,0x10
ffffffffa080287c:	64421a08 	daddiu	v0,v0,6664
ffffffffa0802880:	8c420014 	lw	v0,20(v0)
ffffffffa0802884:	2442ffe0 	addiu	v0,v0,-32
ffffffffa0802888:	0040182d 	move	v1,v0
ffffffffa080288c:	3c020000 	lui	v0,0x0
ffffffffa0802890:	64420000 	daddiu	v0,v0,0
ffffffffa0802894:	00021438 	dsll	v0,v0,0x10
ffffffffa0802898:	6442a081 	daddiu	v0,v0,-24447
ffffffffa080289c:	00021438 	dsll	v0,v0,0x10
ffffffffa08028a0:	64421a08 	daddiu	v0,v0,6664
ffffffffa08028a4:	ac430014 	sw	v1,20(v0)
ffffffffa08028a8:	3c020000 	lui	v0,0x0
ffffffffa08028ac:	64420000 	daddiu	v0,v0,0
ffffffffa08028b0:	00021438 	dsll	v0,v0,0x10
ffffffffa08028b4:	6442a081 	daddiu	v0,v0,-24447
ffffffffa08028b8:	00021438 	dsll	v0,v0,0x10
ffffffffa08028bc:	64421a08 	daddiu	v0,v0,6664
ffffffffa08028c0:	8c420018 	lw	v0,24(v0)
ffffffffa08028c4:	2442ffff 	addiu	v0,v0,-1
ffffffffa08028c8:	0040182d 	move	v1,v0
ffffffffa08028cc:	3c020000 	lui	v0,0x0
ffffffffa08028d0:	64420000 	daddiu	v0,v0,0
ffffffffa08028d4:	00021438 	dsll	v0,v0,0x10
ffffffffa08028d8:	6442a081 	daddiu	v0,v0,-24447
ffffffffa08028dc:	00021438 	dsll	v0,v0,0x10
ffffffffa08028e0:	64421a08 	daddiu	v0,v0,6664
ffffffffa08028e4:	ac430018 	sw	v1,24(v0)
ffffffffa08028e8:	3c020000 	lui	v0,0x0
ffffffffa08028ec:	64420000 	daddiu	v0,v0,0
ffffffffa08028f0:	00021438 	dsll	v0,v0,0x10
ffffffffa08028f4:	6442a081 	daddiu	v0,v0,-24447
ffffffffa08028f8:	00021438 	dsll	v0,v0,0x10
ffffffffa08028fc:	64421a08 	daddiu	v0,v0,6664
ffffffffa0802900:	8c42000c 	lw	v0,12(v0)
ffffffffa0802904:	2442ffff 	addiu	v0,v0,-1
ffffffffa0802908:	0040182d 	move	v1,v0
ffffffffa080290c:	3c020000 	lui	v0,0x0
ffffffffa0802910:	64420000 	daddiu	v0,v0,0
ffffffffa0802914:	00021438 	dsll	v0,v0,0x10
ffffffffa0802918:	6442a081 	daddiu	v0,v0,-24447
ffffffffa080291c:	00021438 	dsll	v0,v0,0x10
ffffffffa0802920:	64421a08 	daddiu	v0,v0,6664
ffffffffa0802924:	ac43000c 	sw	v1,12(v0)
ffffffffa0802928:	3c020000 	lui	v0,0x0
ffffffffa080292c:	64420000 	daddiu	v0,v0,0
ffffffffa0802930:	00021438 	dsll	v0,v0,0x10
ffffffffa0802934:	6442a081 	daddiu	v0,v0,-24447
ffffffffa0802938:	00021438 	dsll	v0,v0,0x10
ffffffffa080293c:	64421a08 	daddiu	v0,v0,6664
ffffffffa0802940:	8c420010 	lw	v0,16(v0)
ffffffffa0802944:	2442ffff 	addiu	v0,v0,-1
ffffffffa0802948:	0040182d 	move	v1,v0
ffffffffa080294c:	3c020000 	lui	v0,0x0
ffffffffa0802950:	64420000 	daddiu	v0,v0,0
ffffffffa0802954:	00021438 	dsll	v0,v0,0x10
ffffffffa0802958:	6442a081 	daddiu	v0,v0,-24447
ffffffffa080295c:	00021438 	dsll	v0,v0,0x10
ffffffffa0802960:	64421a08 	daddiu	v0,v0,6664
ffffffffa0802964:	ac430010 	sw	v1,16(v0)
ffffffffa0802968:	3c020000 	lui	v0,0x0
ffffffffa080296c:	64420000 	daddiu	v0,v0,0
ffffffffa0802970:	00021438 	dsll	v0,v0,0x10
ffffffffa0802974:	6442a081 	daddiu	v0,v0,-24447
ffffffffa0802978:	00021438 	dsll	v0,v0,0x10
ffffffffa080297c:	64441890 	daddiu	a0,v0,6288
ffffffffa0802980:	3c020000 	lui	v0,0x0
ffffffffa0802984:	64420000 	daddiu	v0,v0,0
ffffffffa0802988:	00021438 	dsll	v0,v0,0x10
ffffffffa080298c:	6442a081 	daddiu	v0,v0,-24447
ffffffffa0802990:	00021438 	dsll	v0,v0,0x10
ffffffffa0802994:	64451a08 	daddiu	a1,v0,6664
ffffffffa0802998:	24060080 	li	a2,128
ffffffffa080299c:	0c20206a 	jal	ffffffffa08081a8 <memcpy>
ffffffffa08029a0:	00000000 	nop
ffffffffa08029a4:	3c020000 	lui	v0,0x0
ffffffffa08029a8:	64420000 	daddiu	v0,v0,0
ffffffffa08029ac:	00021438 	dsll	v0,v0,0x10
ffffffffa08029b0:	6442a081 	daddiu	v0,v0,-24447
ffffffffa08029b4:	00021438 	dsll	v0,v0,0x10
ffffffffa08029b8:	8c421a08 	lw	v0,6664(v0)
ffffffffa08029bc:	0040202d 	move	a0,v0
ffffffffa08029c0:	0c20025b 	jal	ffffffffa080096c <write_inode>
ffffffffa08029c4:	00000000 	nop
ffffffffa08029c8:	3c020000 	lui	v0,0x0
ffffffffa08029cc:	64420000 	daddiu	v0,v0,0
ffffffffa08029d0:	00021438 	dsll	v0,v0,0x10
ffffffffa08029d4:	6442a081 	daddiu	v0,v0,-24447
ffffffffa08029d8:	00021438 	dsll	v0,v0,0x10
ffffffffa08029dc:	64421a08 	daddiu	v0,v0,6664
ffffffffa08029e0:	8c420010 	lw	v0,16(v0)
ffffffffa08029e4:	14400015 	bnez	v0,ffffffffa0802a3c <rm+0x290>
ffffffffa08029e8:	00000000 	nop
ffffffffa08029ec:	dfc20008 	ld	v0,8(s8)
ffffffffa08029f0:	8c420000 	lw	v0,0(v0)
ffffffffa08029f4:	0040202d 	move	a0,v0
ffffffffa08029f8:	0c20022a 	jal	ffffffffa08008a8 <read_inode>
ffffffffa08029fc:	00000000 	nop
ffffffffa0802a00:	3c020000 	lui	v0,0x0
ffffffffa0802a04:	64420000 	daddiu	v0,v0,0
ffffffffa0802a08:	00021438 	dsll	v0,v0,0x10
ffffffffa0802a0c:	6442a081 	daddiu	v0,v0,-24447
ffffffffa0802a10:	00021438 	dsll	v0,v0,0x10
ffffffffa0802a14:	64421890 	daddiu	v0,v0,6288
ffffffffa0802a18:	8c42001c 	lw	v0,28(v0)
ffffffffa0802a1c:	0040202d 	move	a0,v0
ffffffffa0802a20:	0c2003cc 	jal	ffffffffa0800f30 <free_block>
ffffffffa0802a24:	00000000 	nop
ffffffffa0802a28:	dfc20008 	ld	v0,8(s8)
ffffffffa0802a2c:	8c420000 	lw	v0,0(v0)
ffffffffa0802a30:	0040202d 	move	a0,v0
ffffffffa0802a34:	0c200328 	jal	ffffffffa0800ca0 <free_inode>
ffffffffa0802a38:	00000000 	nop
ffffffffa0802a3c:	3c020000 	lui	v0,0x0
ffffffffa0802a40:	64420000 	daddiu	v0,v0,0
ffffffffa0802a44:	00021438 	dsll	v0,v0,0x10
ffffffffa0802a48:	6442a081 	daddiu	v0,v0,-24447
ffffffffa0802a4c:	00021438 	dsll	v0,v0,0x10
ffffffffa0802a50:	64421a08 	daddiu	v0,v0,6664
ffffffffa0802a54:	8c42001c 	lw	v0,28(v0)
ffffffffa0802a58:	0040202d 	move	a0,v0
ffffffffa0802a5c:	0c20029a 	jal	ffffffffa0800a68 <read_block>
ffffffffa0802a60:	00000000 	nop
ffffffffa0802a64:	dfc40008 	ld	a0,8(s8)
ffffffffa0802a68:	24050020 	li	a1,32
ffffffffa0802a6c:	0c2020a5 	jal	ffffffffa0808294 <bzero>
ffffffffa0802a70:	00000000 	nop
ffffffffa0802a74:	8fc20000 	lw	v0,0(s8)
ffffffffa0802a78:	3c030000 	lui	v1,0x0
ffffffffa0802a7c:	64630000 	daddiu	v1,v1,0
ffffffffa0802a80:	00031c38 	dsll	v1,v1,0x10
ffffffffa0802a84:	6463a081 	daddiu	v1,v1,-24447
ffffffffa0802a88:	00031c38 	dsll	v1,v1,0x10
ffffffffa0802a8c:	64631a08 	daddiu	v1,v1,6664
ffffffffa0802a90:	8c630018 	lw	v1,24(v1)
ffffffffa0802a94:	10430013 	beq	v0,v1,ffffffffa0802ae4 <rm+0x338>
ffffffffa0802a98:	00000000 	nop
ffffffffa0802a9c:	3c020000 	lui	v0,0x0
ffffffffa0802aa0:	64420000 	daddiu	v0,v0,0
ffffffffa0802aa4:	00021438 	dsll	v0,v0,0x10
ffffffffa0802aa8:	6442a081 	daddiu	v0,v0,-24447
ffffffffa0802aac:	00021438 	dsll	v0,v0,0x10
ffffffffa0802ab0:	64421a08 	daddiu	v0,v0,6664
ffffffffa0802ab4:	8c420018 	lw	v0,24(v0)
ffffffffa0802ab8:	24420002 	addiu	v0,v0,2
ffffffffa0802abc:	0002103c 	dsll32	v0,v0,0x0
ffffffffa0802ac0:	0002103e 	dsrl32	v0,v0,0x0
ffffffffa0802ac4:	00021978 	dsll	v1,v0,0x5
ffffffffa0802ac8:	3c02a800 	lui	v0,0xa800
ffffffffa0802acc:	0062102d 	daddu	v0,v1,v0
ffffffffa0802ad0:	dfc40008 	ld	a0,8(s8)
ffffffffa0802ad4:	0040282d 	move	a1,v0
ffffffffa0802ad8:	24060020 	li	a2,32
ffffffffa0802adc:	0c20206a 	jal	ffffffffa08081a8 <memcpy>
ffffffffa0802ae0:	00000000 	nop
ffffffffa0802ae4:	3c020000 	lui	v0,0x0
ffffffffa0802ae8:	64420000 	daddiu	v0,v0,0
ffffffffa0802aec:	00021438 	dsll	v0,v0,0x10
ffffffffa0802af0:	6442a081 	daddiu	v0,v0,-24447
ffffffffa0802af4:	00021438 	dsll	v0,v0,0x10
ffffffffa0802af8:	64421a08 	daddiu	v0,v0,6664
ffffffffa0802afc:	8c42001c 	lw	v0,28(v0)
ffffffffa0802b00:	0040202d 	move	a0,v0
ffffffffa0802b04:	0c2002b0 	jal	ffffffffa0800ac0 <write_block>
ffffffffa0802b08:	00000000 	nop
ffffffffa0802b0c:	0000102d 	move	v0,zero
ffffffffa0802b10:	03c0e82d 	move	sp,s8
ffffffffa0802b14:	dfbf0028 	ld	ra,40(sp)
ffffffffa0802b18:	dfbe0020 	ld	s8,32(sp)
ffffffffa0802b1c:	67bd0030 	daddiu	sp,sp,48
ffffffffa0802b20:	03e00008 	jr	ra
ffffffffa0802b24:	00000000 	nop

ffffffffa0802b28 <mknod>:
ffffffffa0802b28:	67bdffd0 	daddiu	sp,sp,-48
ffffffffa0802b2c:	ffbf0028 	sd	ra,40(sp)
ffffffffa0802b30:	ffbe0020 	sd	s8,32(sp)
ffffffffa0802b34:	03a0f02d 	move	s8,sp
ffffffffa0802b38:	ffc40010 	sd	a0,16(s8)
ffffffffa0802b3c:	dfc40010 	ld	a0,16(s8)
ffffffffa0802b40:	0c20063d 	jal	ffffffffa08018f4 <is_name_in_dir>
ffffffffa0802b44:	00000000 	nop
ffffffffa0802b48:	afc20000 	sw	v0,0(s8)
ffffffffa0802b4c:	8fc30000 	lw	v1,0(s8)
ffffffffa0802b50:	2402ffff 	li	v0,-1
ffffffffa0802b54:	14620009 	bne	v1,v0,ffffffffa0802b7c <mknod+0x54>
ffffffffa0802b58:	00000000 	nop
ffffffffa0802b5c:	dfc40010 	ld	a0,16(s8)
ffffffffa0802b60:	24050003 	li	a1,3
ffffffffa0802b64:	0c200aef 	jal	ffffffffa0802bbc <init_file>
ffffffffa0802b68:	00000000 	nop
ffffffffa0802b6c:	afc20000 	sw	v0,0(s8)
ffffffffa0802b70:	0000102d 	move	v0,zero
ffffffffa0802b74:	08200ae9 	j	ffffffffa0802ba4 <mknod+0x7c>
ffffffffa0802b78:	00000000 	nop
ffffffffa0802b7c:	3c020000 	lui	v0,0x0
ffffffffa0802b80:	64420000 	daddiu	v0,v0,0
ffffffffa0802b84:	00021438 	dsll	v0,v0,0x10
ffffffffa0802b88:	6442a081 	daddiu	v0,v0,-24447
ffffffffa0802b8c:	00021438 	dsll	v0,v0,0x10
ffffffffa0802b90:	6444aba0 	daddiu	a0,v0,-21600
ffffffffa0802b94:	dfc50010 	ld	a1,16(s8)
ffffffffa0802b98:	0c2023af 	jal	ffffffffa0808ebc <kprintf>
ffffffffa0802b9c:	00000000 	nop
ffffffffa0802ba0:	2402ffff 	li	v0,-1
ffffffffa0802ba4:	03c0e82d 	move	sp,s8
ffffffffa0802ba8:	dfbf0028 	ld	ra,40(sp)
ffffffffa0802bac:	dfbe0020 	ld	s8,32(sp)
ffffffffa0802bb0:	67bd0030 	daddiu	sp,sp,48
ffffffffa0802bb4:	03e00008 	jr	ra
ffffffffa0802bb8:	00000000 	nop

ffffffffa0802bbc <init_file>:
ffffffffa0802bbc:	67bdffd0 	daddiu	sp,sp,-48
ffffffffa0802bc0:	ffbf0028 	sd	ra,40(sp)
ffffffffa0802bc4:	ffbe0020 	sd	s8,32(sp)
ffffffffa0802bc8:	03a0f02d 	move	s8,sp
ffffffffa0802bcc:	ffc40010 	sd	a0,16(s8)
ffffffffa0802bd0:	00a0102d 	move	v0,a1
ffffffffa0802bd4:	00021000 	sll	v0,v0,0x0
ffffffffa0802bd8:	afc20018 	sw	v0,24(s8)
ffffffffa0802bdc:	3c020000 	lui	v0,0x0
ffffffffa0802be0:	64420000 	daddiu	v0,v0,0
ffffffffa0802be4:	00021438 	dsll	v0,v0,0x10
ffffffffa0802be8:	6442a081 	daddiu	v0,v0,-24447
ffffffffa0802bec:	00021438 	dsll	v0,v0,0x10
ffffffffa0802bf0:	6444abb8 	daddiu	a0,v0,-21576
ffffffffa0802bf4:	dfc50010 	ld	a1,16(s8)
ffffffffa0802bf8:	0c2023af 	jal	ffffffffa0808ebc <kprintf>
ffffffffa0802bfc:	00000000 	nop
ffffffffa0802c00:	0c2002c6 	jal	ffffffffa0800b18 <alloc_inode>
ffffffffa0802c04:	00000000 	nop
ffffffffa0802c08:	afc20000 	sw	v0,0(s8)
ffffffffa0802c0c:	0c200361 	jal	ffffffffa0800d84 <alloc_block>
ffffffffa0802c10:	00000000 	nop
ffffffffa0802c14:	afc20004 	sw	v0,4(s8)
ffffffffa0802c18:	3c020000 	lui	v0,0x0
ffffffffa0802c1c:	64420000 	daddiu	v0,v0,0
ffffffffa0802c20:	00021438 	dsll	v0,v0,0x10
ffffffffa0802c24:	6442a081 	daddiu	v0,v0,-24447
ffffffffa0802c28:	00021438 	dsll	v0,v0,0x10
ffffffffa0802c2c:	8c431a08 	lw	v1,6664(v0)
ffffffffa0802c30:	8fc40004 	lw	a0,4(s8)
ffffffffa0802c34:	8fc20000 	lw	v0,0(s8)
ffffffffa0802c38:	0060282d 	move	a1,v1
ffffffffa0802c3c:	0040302d 	move	a2,v0
ffffffffa0802c40:	24070003 	li	a3,3
ffffffffa0802c44:	24080001 	li	a4,1
ffffffffa0802c48:	0c20052c 	jal	ffffffffa08014b0 <init_inode>
ffffffffa0802c4c:	00000000 	nop
ffffffffa0802c50:	3c020000 	lui	v0,0x0
ffffffffa0802c54:	64420000 	daddiu	v0,v0,0
ffffffffa0802c58:	00021438 	dsll	v0,v0,0x10
ffffffffa0802c5c:	6442a081 	daddiu	v0,v0,-24447
ffffffffa0802c60:	00021438 	dsll	v0,v0,0x10
ffffffffa0802c64:	64421a08 	daddiu	v0,v0,6664
ffffffffa0802c68:	8c42001c 	lw	v0,28(v0)
ffffffffa0802c6c:	0040202d 	move	a0,v0
ffffffffa0802c70:	0c20029a 	jal	ffffffffa0800a68 <read_block>
ffffffffa0802c74:	00000000 	nop
ffffffffa0802c78:	3c020000 	lui	v0,0x0
ffffffffa0802c7c:	64420000 	daddiu	v0,v0,0
ffffffffa0802c80:	00021438 	dsll	v0,v0,0x10
ffffffffa0802c84:	6442a081 	daddiu	v0,v0,-24447
ffffffffa0802c88:	00021438 	dsll	v0,v0,0x10
ffffffffa0802c8c:	64421a08 	daddiu	v0,v0,6664
ffffffffa0802c90:	8c420018 	lw	v0,24(v0)
ffffffffa0802c94:	24420002 	addiu	v0,v0,2
ffffffffa0802c98:	0002103c 	dsll32	v0,v0,0x0
ffffffffa0802c9c:	0002103e 	dsrl32	v0,v0,0x0
ffffffffa0802ca0:	00021978 	dsll	v1,v0,0x5
ffffffffa0802ca4:	3c02a800 	lui	v0,0xa800
ffffffffa0802ca8:	0062102d 	daddu	v0,v1,v0
ffffffffa0802cac:	ffc20008 	sd	v0,8(s8)
ffffffffa0802cb0:	dfc20008 	ld	v0,8(s8)
ffffffffa0802cb4:	8fc30000 	lw	v1,0(s8)
ffffffffa0802cb8:	ac430000 	sw	v1,0(v0)
ffffffffa0802cbc:	dfc20008 	ld	v0,8(s8)
ffffffffa0802cc0:	24030001 	li	v1,1
ffffffffa0802cc4:	ac430004 	sw	v1,4(v0)
ffffffffa0802cc8:	dfc20008 	ld	v0,8(s8)
ffffffffa0802ccc:	8fc30018 	lw	v1,24(s8)
ffffffffa0802cd0:	ac430008 	sw	v1,8(v0)
ffffffffa0802cd4:	dfc20008 	ld	v0,8(s8)
ffffffffa0802cd8:	6442000c 	daddiu	v0,v0,12
ffffffffa0802cdc:	0040202d 	move	a0,v0
ffffffffa0802ce0:	dfc50010 	ld	a1,16(s8)
ffffffffa0802ce4:	0c20212f 	jal	ffffffffa08084bc <strcpy>
ffffffffa0802ce8:	00000000 	nop
ffffffffa0802cec:	3c020000 	lui	v0,0x0
ffffffffa0802cf0:	64420000 	daddiu	v0,v0,0
ffffffffa0802cf4:	00021438 	dsll	v0,v0,0x10
ffffffffa0802cf8:	6442a081 	daddiu	v0,v0,-24447
ffffffffa0802cfc:	00021438 	dsll	v0,v0,0x10
ffffffffa0802d00:	64421a08 	daddiu	v0,v0,6664
ffffffffa0802d04:	8c42001c 	lw	v0,28(v0)
ffffffffa0802d08:	0040202d 	move	a0,v0
ffffffffa0802d0c:	0c2002b0 	jal	ffffffffa0800ac0 <write_block>
ffffffffa0802d10:	00000000 	nop
ffffffffa0802d14:	3c020000 	lui	v0,0x0
ffffffffa0802d18:	64420000 	daddiu	v0,v0,0
ffffffffa0802d1c:	00021438 	dsll	v0,v0,0x10
ffffffffa0802d20:	6442a081 	daddiu	v0,v0,-24447
ffffffffa0802d24:	00021438 	dsll	v0,v0,0x10
ffffffffa0802d28:	64421a08 	daddiu	v0,v0,6664
ffffffffa0802d2c:	8c420014 	lw	v0,20(v0)
ffffffffa0802d30:	24420020 	addiu	v0,v0,32
ffffffffa0802d34:	0040182d 	move	v1,v0
ffffffffa0802d38:	3c020000 	lui	v0,0x0
ffffffffa0802d3c:	64420000 	daddiu	v0,v0,0
ffffffffa0802d40:	00021438 	dsll	v0,v0,0x10
ffffffffa0802d44:	6442a081 	daddiu	v0,v0,-24447
ffffffffa0802d48:	00021438 	dsll	v0,v0,0x10
ffffffffa0802d4c:	64421a08 	daddiu	v0,v0,6664
ffffffffa0802d50:	ac430014 	sw	v1,20(v0)
ffffffffa0802d54:	3c020000 	lui	v0,0x0
ffffffffa0802d58:	64420000 	daddiu	v0,v0,0
ffffffffa0802d5c:	00021438 	dsll	v0,v0,0x10
ffffffffa0802d60:	6442a081 	daddiu	v0,v0,-24447
ffffffffa0802d64:	00021438 	dsll	v0,v0,0x10
ffffffffa0802d68:	64421a08 	daddiu	v0,v0,6664
ffffffffa0802d6c:	8c420018 	lw	v0,24(v0)
ffffffffa0802d70:	24420001 	addiu	v0,v0,1
ffffffffa0802d74:	0040182d 	move	v1,v0
ffffffffa0802d78:	3c020000 	lui	v0,0x0
ffffffffa0802d7c:	64420000 	daddiu	v0,v0,0
ffffffffa0802d80:	00021438 	dsll	v0,v0,0x10
ffffffffa0802d84:	6442a081 	daddiu	v0,v0,-24447
ffffffffa0802d88:	00021438 	dsll	v0,v0,0x10
ffffffffa0802d8c:	64421a08 	daddiu	v0,v0,6664
ffffffffa0802d90:	ac430018 	sw	v1,24(v0)
ffffffffa0802d94:	3c020000 	lui	v0,0x0
ffffffffa0802d98:	64420000 	daddiu	v0,v0,0
ffffffffa0802d9c:	00021438 	dsll	v0,v0,0x10
ffffffffa0802da0:	6442a081 	daddiu	v0,v0,-24447
ffffffffa0802da4:	00021438 	dsll	v0,v0,0x10
ffffffffa0802da8:	64421a08 	daddiu	v0,v0,6664
ffffffffa0802dac:	8c42000c 	lw	v0,12(v0)
ffffffffa0802db0:	24420001 	addiu	v0,v0,1
ffffffffa0802db4:	0040182d 	move	v1,v0
ffffffffa0802db8:	3c020000 	lui	v0,0x0
ffffffffa0802dbc:	64420000 	daddiu	v0,v0,0
ffffffffa0802dc0:	00021438 	dsll	v0,v0,0x10
ffffffffa0802dc4:	6442a081 	daddiu	v0,v0,-24447
ffffffffa0802dc8:	00021438 	dsll	v0,v0,0x10
ffffffffa0802dcc:	64421a08 	daddiu	v0,v0,6664
ffffffffa0802dd0:	ac43000c 	sw	v1,12(v0)
ffffffffa0802dd4:	3c020000 	lui	v0,0x0
ffffffffa0802dd8:	64420000 	daddiu	v0,v0,0
ffffffffa0802ddc:	00021438 	dsll	v0,v0,0x10
ffffffffa0802de0:	6442a081 	daddiu	v0,v0,-24447
ffffffffa0802de4:	00021438 	dsll	v0,v0,0x10
ffffffffa0802de8:	64421a08 	daddiu	v0,v0,6664
ffffffffa0802dec:	8c420010 	lw	v0,16(v0)
ffffffffa0802df0:	24420001 	addiu	v0,v0,1
ffffffffa0802df4:	0040182d 	move	v1,v0
ffffffffa0802df8:	3c020000 	lui	v0,0x0
ffffffffa0802dfc:	64420000 	daddiu	v0,v0,0
ffffffffa0802e00:	00021438 	dsll	v0,v0,0x10
ffffffffa0802e04:	6442a081 	daddiu	v0,v0,-24447
ffffffffa0802e08:	00021438 	dsll	v0,v0,0x10
ffffffffa0802e0c:	64421a08 	daddiu	v0,v0,6664
ffffffffa0802e10:	ac430010 	sw	v1,16(v0)
ffffffffa0802e14:	3c020000 	lui	v0,0x0
ffffffffa0802e18:	64420000 	daddiu	v0,v0,0
ffffffffa0802e1c:	00021438 	dsll	v0,v0,0x10
ffffffffa0802e20:	6442a081 	daddiu	v0,v0,-24447
ffffffffa0802e24:	00021438 	dsll	v0,v0,0x10
ffffffffa0802e28:	64441890 	daddiu	a0,v0,6288
ffffffffa0802e2c:	3c020000 	lui	v0,0x0
ffffffffa0802e30:	64420000 	daddiu	v0,v0,0
ffffffffa0802e34:	00021438 	dsll	v0,v0,0x10
ffffffffa0802e38:	6442a081 	daddiu	v0,v0,-24447
ffffffffa0802e3c:	00021438 	dsll	v0,v0,0x10
ffffffffa0802e40:	64451a08 	daddiu	a1,v0,6664
ffffffffa0802e44:	24060080 	li	a2,128
ffffffffa0802e48:	0c20206a 	jal	ffffffffa08081a8 <memcpy>
ffffffffa0802e4c:	00000000 	nop
ffffffffa0802e50:	3c020000 	lui	v0,0x0
ffffffffa0802e54:	64420000 	daddiu	v0,v0,0
ffffffffa0802e58:	00021438 	dsll	v0,v0,0x10
ffffffffa0802e5c:	6442a081 	daddiu	v0,v0,-24447
ffffffffa0802e60:	00021438 	dsll	v0,v0,0x10
ffffffffa0802e64:	8c421a08 	lw	v0,6664(v0)
ffffffffa0802e68:	0040202d 	move	a0,v0
ffffffffa0802e6c:	0c20025b 	jal	ffffffffa080096c <write_inode>
ffffffffa0802e70:	00000000 	nop
ffffffffa0802e74:	8fc20000 	lw	v0,0(s8)
ffffffffa0802e78:	03c0e82d 	move	sp,s8
ffffffffa0802e7c:	dfbf0028 	ld	ra,40(sp)
ffffffffa0802e80:	dfbe0020 	ld	s8,32(sp)
ffffffffa0802e84:	67bd0030 	daddiu	sp,sp,48
ffffffffa0802e88:	03e00008 	jr	ra
ffffffffa0802e8c:	00000000 	nop

ffffffffa0802e90 <open>:
ffffffffa0802e90:	67bdffd0 	daddiu	sp,sp,-48
ffffffffa0802e94:	ffbf0028 	sd	ra,40(sp)
ffffffffa0802e98:	ffbe0020 	sd	s8,32(sp)
ffffffffa0802e9c:	03a0f02d 	move	s8,sp
ffffffffa0802ea0:	ffc40010 	sd	a0,16(s8)
ffffffffa0802ea4:	00a0102d 	move	v0,a1
ffffffffa0802ea8:	00021000 	sll	v0,v0,0x0
ffffffffa0802eac:	afc20018 	sw	v0,24(s8)
ffffffffa0802eb0:	dfc40010 	ld	a0,16(s8)
ffffffffa0802eb4:	0c20063d 	jal	ffffffffa08018f4 <is_name_in_dir>
ffffffffa0802eb8:	00000000 	nop
ffffffffa0802ebc:	afc20000 	sw	v0,0(s8)
ffffffffa0802ec0:	8fc30000 	lw	v1,0(s8)
ffffffffa0802ec4:	2402ffff 	li	v0,-1
ffffffffa0802ec8:	14620012 	bne	v1,v0,ffffffffa0802f14 <open+0x84>
ffffffffa0802ecc:	00000000 	nop
ffffffffa0802ed0:	3c020000 	lui	v0,0x0
ffffffffa0802ed4:	64420000 	daddiu	v0,v0,0
ffffffffa0802ed8:	00021438 	dsll	v0,v0,0x10
ffffffffa0802edc:	6442a081 	daddiu	v0,v0,-24447
ffffffffa0802ee0:	00021438 	dsll	v0,v0,0x10
ffffffffa0802ee4:	6444abd8 	daddiu	a0,v0,-21544
ffffffffa0802ee8:	dfc50010 	ld	a1,16(s8)
ffffffffa0802eec:	0c2023af 	jal	ffffffffa0808ebc <kprintf>
ffffffffa0802ef0:	00000000 	nop
ffffffffa0802ef4:	8fc20018 	lw	v0,24(s8)
ffffffffa0802ef8:	dfc40010 	ld	a0,16(s8)
ffffffffa0802efc:	0040282d 	move	a1,v0
ffffffffa0802f00:	0c200aef 	jal	ffffffffa0802bbc <init_file>
ffffffffa0802f04:	00000000 	nop
ffffffffa0802f08:	afc20000 	sw	v0,0(s8)
ffffffffa0802f0c:	08200bce 	j	ffffffffa0802f38 <open+0xa8>
ffffffffa0802f10:	00000000 	nop
ffffffffa0802f14:	8fc20000 	lw	v0,0(s8)
ffffffffa0802f18:	24420002 	addiu	v0,v0,2
ffffffffa0802f1c:	00021978 	dsll	v1,v0,0x5
ffffffffa0802f20:	3c02a800 	lui	v0,0xa800
ffffffffa0802f24:	0062102d 	daddu	v0,v1,v0
ffffffffa0802f28:	ffc20008 	sd	v0,8(s8)
ffffffffa0802f2c:	dfc20008 	ld	v0,8(s8)
ffffffffa0802f30:	8c420000 	lw	v0,0(v0)
ffffffffa0802f34:	afc20000 	sw	v0,0(s8)
ffffffffa0802f38:	8fc30000 	lw	v1,0(s8)
ffffffffa0802f3c:	3c020000 	lui	v0,0x0
ffffffffa0802f40:	64420000 	daddiu	v0,v0,0
ffffffffa0802f44:	00021438 	dsll	v0,v0,0x10
ffffffffa0802f48:	6442a081 	daddiu	v0,v0,-24447
ffffffffa0802f4c:	00021438 	dsll	v0,v0,0x10
ffffffffa0802f50:	6444ac00 	daddiu	a0,v0,-21504
ffffffffa0802f54:	dfc50010 	ld	a1,16(s8)
ffffffffa0802f58:	0060302d 	move	a2,v1
ffffffffa0802f5c:	0c2023af 	jal	ffffffffa0808ebc <kprintf>
ffffffffa0802f60:	00000000 	nop
ffffffffa0802f64:	8fc20000 	lw	v0,0(s8)
ffffffffa0802f68:	0040202d 	move	a0,v0
ffffffffa0802f6c:	0c20022a 	jal	ffffffffa08008a8 <read_inode>
ffffffffa0802f70:	00000000 	nop
ffffffffa0802f74:	3c020000 	lui	v0,0x0
ffffffffa0802f78:	64420000 	daddiu	v0,v0,0
ffffffffa0802f7c:	00021438 	dsll	v0,v0,0x10
ffffffffa0802f80:	6442a081 	daddiu	v0,v0,-24447
ffffffffa0802f84:	00021438 	dsll	v0,v0,0x10
ffffffffa0802f88:	8c441a00 	lw	a0,6656(v0)
ffffffffa0802f8c:	8fc30000 	lw	v1,0(s8)
ffffffffa0802f90:	3c020000 	lui	v0,0x0
ffffffffa0802f94:	64420000 	daddiu	v0,v0,0
ffffffffa0802f98:	00021438 	dsll	v0,v0,0x10
ffffffffa0802f9c:	6442a081 	daddiu	v0,v0,-24447
ffffffffa0802fa0:	00021438 	dsll	v0,v0,0x10
ffffffffa0802fa4:	00042138 	dsll	a0,a0,0x4
ffffffffa0802fa8:	64421910 	daddiu	v0,v0,6416
ffffffffa0802fac:	0082102d 	daddu	v0,a0,v0
ffffffffa0802fb0:	ac430000 	sw	v1,0(v0)
ffffffffa0802fb4:	3c020000 	lui	v0,0x0
ffffffffa0802fb8:	64420000 	daddiu	v0,v0,0
ffffffffa0802fbc:	00021438 	dsll	v0,v0,0x10
ffffffffa0802fc0:	6442a081 	daddiu	v0,v0,-24447
ffffffffa0802fc4:	00021438 	dsll	v0,v0,0x10
ffffffffa0802fc8:	8c441a00 	lw	a0,6656(v0)
ffffffffa0802fcc:	3c020000 	lui	v0,0x0
ffffffffa0802fd0:	64420000 	daddiu	v0,v0,0
ffffffffa0802fd4:	00021438 	dsll	v0,v0,0x10
ffffffffa0802fd8:	6442a081 	daddiu	v0,v0,-24447
ffffffffa0802fdc:	00021438 	dsll	v0,v0,0x10
ffffffffa0802fe0:	64421890 	daddiu	v0,v0,6288
ffffffffa0802fe4:	8c430008 	lw	v1,8(v0)
ffffffffa0802fe8:	3c020000 	lui	v0,0x0
ffffffffa0802fec:	64420000 	daddiu	v0,v0,0
ffffffffa0802ff0:	00021438 	dsll	v0,v0,0x10
ffffffffa0802ff4:	6442a081 	daddiu	v0,v0,-24447
ffffffffa0802ff8:	00021438 	dsll	v0,v0,0x10
ffffffffa0802ffc:	00042138 	dsll	a0,a0,0x4
ffffffffa0803000:	64421910 	daddiu	v0,v0,6416
ffffffffa0803004:	0082102d 	daddu	v0,a0,v0
ffffffffa0803008:	ac430004 	sw	v1,4(v0)
ffffffffa080300c:	3c020000 	lui	v0,0x0
ffffffffa0803010:	64420000 	daddiu	v0,v0,0
ffffffffa0803014:	00021438 	dsll	v0,v0,0x10
ffffffffa0803018:	6442a081 	daddiu	v0,v0,-24447
ffffffffa080301c:	00021438 	dsll	v0,v0,0x10
ffffffffa0803020:	8c431a00 	lw	v1,6656(v0)
ffffffffa0803024:	3c020000 	lui	v0,0x0
ffffffffa0803028:	64420000 	daddiu	v0,v0,0
ffffffffa080302c:	00021438 	dsll	v0,v0,0x10
ffffffffa0803030:	6442a081 	daddiu	v0,v0,-24447
ffffffffa0803034:	00021438 	dsll	v0,v0,0x10
ffffffffa0803038:	00031938 	dsll	v1,v1,0x4
ffffffffa080303c:	64421910 	daddiu	v0,v0,6416
ffffffffa0803040:	0062102d 	daddu	v0,v1,v0
ffffffffa0803044:	ac400008 	sw	zero,8(v0)
ffffffffa0803048:	3c020000 	lui	v0,0x0
ffffffffa080304c:	64420000 	daddiu	v0,v0,0
ffffffffa0803050:	00021438 	dsll	v0,v0,0x10
ffffffffa0803054:	6442a081 	daddiu	v0,v0,-24447
ffffffffa0803058:	00021438 	dsll	v0,v0,0x10
ffffffffa080305c:	8c431a00 	lw	v1,6656(v0)
ffffffffa0803060:	3c020000 	lui	v0,0x0
ffffffffa0803064:	64420000 	daddiu	v0,v0,0
ffffffffa0803068:	00021438 	dsll	v0,v0,0x10
ffffffffa080306c:	6442a081 	daddiu	v0,v0,-24447
ffffffffa0803070:	00021438 	dsll	v0,v0,0x10
ffffffffa0803074:	00031938 	dsll	v1,v1,0x4
ffffffffa0803078:	64421910 	daddiu	v0,v0,6416
ffffffffa080307c:	0062102d 	daddu	v0,v1,v0
ffffffffa0803080:	ac40000c 	sw	zero,12(v0)
ffffffffa0803084:	3c020000 	lui	v0,0x0
ffffffffa0803088:	64420000 	daddiu	v0,v0,0
ffffffffa080308c:	00021438 	dsll	v0,v0,0x10
ffffffffa0803090:	6442a081 	daddiu	v0,v0,-24447
ffffffffa0803094:	00021438 	dsll	v0,v0,0x10
ffffffffa0803098:	8c421a00 	lw	v0,6656(v0)
ffffffffa080309c:	24430001 	addiu	v1,v0,1
ffffffffa08030a0:	0060202d 	move	a0,v1
ffffffffa08030a4:	3c030000 	lui	v1,0x0
ffffffffa08030a8:	64630000 	daddiu	v1,v1,0
ffffffffa08030ac:	00031c38 	dsll	v1,v1,0x10
ffffffffa08030b0:	6463a081 	daddiu	v1,v1,-24447
ffffffffa08030b4:	00031c38 	dsll	v1,v1,0x10
ffffffffa08030b8:	ac641a00 	sw	a0,6656(v1)
ffffffffa08030bc:	03c0e82d 	move	sp,s8
ffffffffa08030c0:	dfbf0028 	ld	ra,40(sp)
ffffffffa08030c4:	dfbe0020 	ld	s8,32(sp)
ffffffffa08030c8:	67bd0030 	daddiu	sp,sp,48
ffffffffa08030cc:	03e00008 	jr	ra
ffffffffa08030d0:	00000000 	nop

ffffffffa08030d4 <write>:
ffffffffa08030d4:	67bdffa0 	daddiu	sp,sp,-96
ffffffffa08030d8:	ffbf0058 	sd	ra,88(sp)
ffffffffa08030dc:	ffbe0050 	sd	s8,80(sp)
ffffffffa08030e0:	03a0f02d 	move	s8,sp
ffffffffa08030e4:	ffc50038 	sd	a1,56(s8)
ffffffffa08030e8:	00c0182d 	move	v1,a2
ffffffffa08030ec:	00e0102d 	move	v0,a3
ffffffffa08030f0:	00042000 	sll	a0,a0,0x0
ffffffffa08030f4:	afc40030 	sw	a0,48(s8)
ffffffffa08030f8:	00031800 	sll	v1,v1,0x0
ffffffffa08030fc:	afc30034 	sw	v1,52(s8)
ffffffffa0803100:	00021000 	sll	v0,v0,0x0
ffffffffa0803104:	afc20040 	sw	v0,64(s8)
ffffffffa0803108:	3c020000 	lui	v0,0x0
ffffffffa080310c:	64420000 	daddiu	v0,v0,0
ffffffffa0803110:	00021438 	dsll	v0,v0,0x10
ffffffffa0803114:	6442a081 	daddiu	v0,v0,-24447
ffffffffa0803118:	00021438 	dsll	v0,v0,0x10
ffffffffa080311c:	9fc30030 	lwu	v1,48(s8)
ffffffffa0803120:	00031938 	dsll	v1,v1,0x4
ffffffffa0803124:	64421910 	daddiu	v0,v0,6416
ffffffffa0803128:	0062102d 	daddu	v0,v1,v0
ffffffffa080312c:	8c420000 	lw	v0,0(v0)
ffffffffa0803130:	0040202d 	move	a0,v0
ffffffffa0803134:	0c20022a 	jal	ffffffffa08008a8 <read_inode>
ffffffffa0803138:	00000000 	nop
ffffffffa080313c:	08200db6 	j	ffffffffa08036d8 <write+0x604>
ffffffffa0803140:	00000000 	nop
ffffffffa0803144:	3c020000 	lui	v0,0x0
ffffffffa0803148:	64420000 	daddiu	v0,v0,0
ffffffffa080314c:	00021438 	dsll	v0,v0,0x10
ffffffffa0803150:	6442a081 	daddiu	v0,v0,-24447
ffffffffa0803154:	00021438 	dsll	v0,v0,0x10
ffffffffa0803158:	9fc30030 	lwu	v1,48(s8)
ffffffffa080315c:	00031938 	dsll	v1,v1,0x4
ffffffffa0803160:	64421910 	daddiu	v0,v0,6416
ffffffffa0803164:	0062102d 	daddu	v0,v1,v0
ffffffffa0803168:	8c42000c 	lw	v0,12(v0)
ffffffffa080316c:	00021302 	srl	v0,v0,0xc
ffffffffa0803170:	afc20004 	sw	v0,4(s8)
ffffffffa0803174:	3c020000 	lui	v0,0x0
ffffffffa0803178:	64420000 	daddiu	v0,v0,0
ffffffffa080317c:	00021438 	dsll	v0,v0,0x10
ffffffffa0803180:	6442a081 	daddiu	v0,v0,-24447
ffffffffa0803184:	00021438 	dsll	v0,v0,0x10
ffffffffa0803188:	9fc30030 	lwu	v1,48(s8)
ffffffffa080318c:	00031938 	dsll	v1,v1,0x4
ffffffffa0803190:	64421910 	daddiu	v0,v0,6416
ffffffffa0803194:	0062102d 	daddu	v0,v1,v0
ffffffffa0803198:	8c43000c 	lw	v1,12(v0)
ffffffffa080319c:	3402a001 	li	v0,0xa001
ffffffffa08031a0:	0062102b 	sltu	v0,v1,v0
ffffffffa08031a4:	10400025 	beqz	v0,ffffffffa080323c <write+0x168>
ffffffffa08031a8:	00000000 	nop
ffffffffa08031ac:	3c020000 	lui	v0,0x0
ffffffffa08031b0:	64420000 	daddiu	v0,v0,0
ffffffffa08031b4:	00021438 	dsll	v0,v0,0x10
ffffffffa08031b8:	6442a081 	daddiu	v0,v0,-24447
ffffffffa08031bc:	00021438 	dsll	v0,v0,0x10
ffffffffa08031c0:	9fc30004 	lwu	v1,4(s8)
ffffffffa08031c4:	64630004 	daddiu	v1,v1,4
ffffffffa08031c8:	000318b8 	dsll	v1,v1,0x2
ffffffffa08031cc:	64421890 	daddiu	v0,v0,6288
ffffffffa08031d0:	0062102d 	daddu	v0,v1,v0
ffffffffa08031d4:	8c42000c 	lw	v0,12(v0)
ffffffffa08031d8:	afc20000 	sw	v0,0(s8)
ffffffffa08031dc:	8fc20000 	lw	v0,0(s8)
ffffffffa08031e0:	14400010 	bnez	v0,ffffffffa0803224 <write+0x150>
ffffffffa08031e4:	00000000 	nop
ffffffffa08031e8:	0c200361 	jal	ffffffffa0800d84 <alloc_block>
ffffffffa08031ec:	00000000 	nop
ffffffffa08031f0:	afc20000 	sw	v0,0(s8)
ffffffffa08031f4:	8fc30000 	lw	v1,0(s8)
ffffffffa08031f8:	3c020000 	lui	v0,0x0
ffffffffa08031fc:	64420000 	daddiu	v0,v0,0
ffffffffa0803200:	00021438 	dsll	v0,v0,0x10
ffffffffa0803204:	6442a081 	daddiu	v0,v0,-24447
ffffffffa0803208:	00021438 	dsll	v0,v0,0x10
ffffffffa080320c:	9fc40004 	lwu	a0,4(s8)
ffffffffa0803210:	64840004 	daddiu	a0,a0,4
ffffffffa0803214:	000420b8 	dsll	a0,a0,0x2
ffffffffa0803218:	64421890 	daddiu	v0,v0,6288
ffffffffa080321c:	0082102d 	daddu	v0,a0,v0
ffffffffa0803220:	ac43000c 	sw	v1,12(v0)
ffffffffa0803224:	8fc20000 	lw	v0,0(s8)
ffffffffa0803228:	0040202d 	move	a0,v0
ffffffffa080322c:	0c20029a 	jal	ffffffffa0800a68 <read_block>
ffffffffa0803230:	00000000 	nop
ffffffffa0803234:	08200d49 	j	ffffffffa0803524 <write+0x450>
ffffffffa0803238:	00000000 	nop
ffffffffa080323c:	3c020000 	lui	v0,0x0
ffffffffa0803240:	64420000 	daddiu	v0,v0,0
ffffffffa0803244:	00021438 	dsll	v0,v0,0x10
ffffffffa0803248:	6442a081 	daddiu	v0,v0,-24447
ffffffffa080324c:	00021438 	dsll	v0,v0,0x10
ffffffffa0803250:	9fc30030 	lwu	v1,48(s8)
ffffffffa0803254:	00031938 	dsll	v1,v1,0x4
ffffffffa0803258:	64421910 	daddiu	v0,v0,6416
ffffffffa080325c:	0062102d 	daddu	v0,v1,v0
ffffffffa0803260:	8c43000c 	lw	v1,12(v0)
ffffffffa0803264:	3c020040 	lui	v0,0x40
ffffffffa0803268:	3442a001 	ori	v0,v0,0xa001
ffffffffa080326c:	0062102b 	sltu	v0,v1,v0
ffffffffa0803270:	10400041 	beqz	v0,ffffffffa0803378 <write+0x2a4>
ffffffffa0803274:	00000000 	nop
ffffffffa0803278:	3c020000 	lui	v0,0x0
ffffffffa080327c:	64420000 	daddiu	v0,v0,0
ffffffffa0803280:	00021438 	dsll	v0,v0,0x10
ffffffffa0803284:	6442a081 	daddiu	v0,v0,-24447
ffffffffa0803288:	00021438 	dsll	v0,v0,0x10
ffffffffa080328c:	64421890 	daddiu	v0,v0,6288
ffffffffa0803290:	8c420044 	lw	v0,68(v0)
ffffffffa0803294:	afc20000 	sw	v0,0(s8)
ffffffffa0803298:	8fc20000 	lw	v0,0(s8)
ffffffffa080329c:	14400018 	bnez	v0,ffffffffa0803300 <write+0x22c>
ffffffffa08032a0:	00000000 	nop
ffffffffa08032a4:	0c200361 	jal	ffffffffa0800d84 <alloc_block>
ffffffffa08032a8:	00000000 	nop
ffffffffa08032ac:	afc20000 	sw	v0,0(s8)
ffffffffa08032b0:	8fc30000 	lw	v1,0(s8)
ffffffffa08032b4:	3c020000 	lui	v0,0x0
ffffffffa08032b8:	64420000 	daddiu	v0,v0,0
ffffffffa08032bc:	00021438 	dsll	v0,v0,0x10
ffffffffa08032c0:	6442a081 	daddiu	v0,v0,-24447
ffffffffa08032c4:	00021438 	dsll	v0,v0,0x10
ffffffffa08032c8:	64421890 	daddiu	v0,v0,6288
ffffffffa08032cc:	ac430044 	sw	v1,68(v0)
ffffffffa08032d0:	8fc20000 	lw	v0,0(s8)
ffffffffa08032d4:	0040202d 	move	a0,v0
ffffffffa08032d8:	0c20029a 	jal	ffffffffa0800a68 <read_block>
ffffffffa08032dc:	00000000 	nop
ffffffffa08032e0:	3c04a800 	lui	a0,0xa800
ffffffffa08032e4:	24051000 	li	a1,4096
ffffffffa08032e8:	0c2020a5 	jal	ffffffffa0808294 <bzero>
ffffffffa08032ec:	00000000 	nop
ffffffffa08032f0:	8fc20000 	lw	v0,0(s8)
ffffffffa08032f4:	0040202d 	move	a0,v0
ffffffffa08032f8:	0c2002b0 	jal	ffffffffa0800ac0 <write_block>
ffffffffa08032fc:	00000000 	nop
ffffffffa0803300:	8fc20000 	lw	v0,0(s8)
ffffffffa0803304:	0040202d 	move	a0,v0
ffffffffa0803308:	0c20029a 	jal	ffffffffa0800a68 <read_block>
ffffffffa080330c:	00000000 	nop
ffffffffa0803310:	8fc20004 	lw	v0,4(s8)
ffffffffa0803314:	2442fff6 	addiu	v0,v0,-10
ffffffffa0803318:	0002103c 	dsll32	v0,v0,0x0
ffffffffa080331c:	0002103e 	dsrl32	v0,v0,0x0
ffffffffa0803320:	000218b8 	dsll	v1,v0,0x2
ffffffffa0803324:	3c02a800 	lui	v0,0xa800
ffffffffa0803328:	0062102d 	daddu	v0,v1,v0
ffffffffa080332c:	ffc20008 	sd	v0,8(s8)
ffffffffa0803330:	0c200361 	jal	ffffffffa0800d84 <alloc_block>
ffffffffa0803334:	00000000 	nop
ffffffffa0803338:	afc20010 	sw	v0,16(s8)
ffffffffa080333c:	8fc30010 	lw	v1,16(s8)
ffffffffa0803340:	dfc20008 	ld	v0,8(s8)
ffffffffa0803344:	ac430000 	sw	v1,0(v0)
ffffffffa0803348:	8fc20000 	lw	v0,0(s8)
ffffffffa080334c:	0040202d 	move	a0,v0
ffffffffa0803350:	0c2002b0 	jal	ffffffffa0800ac0 <write_block>
ffffffffa0803354:	00000000 	nop
ffffffffa0803358:	8fc20010 	lw	v0,16(s8)
ffffffffa080335c:	afc20000 	sw	v0,0(s8)
ffffffffa0803360:	8fc20000 	lw	v0,0(s8)
ffffffffa0803364:	0040202d 	move	a0,v0
ffffffffa0803368:	0c20029a 	jal	ffffffffa0800a68 <read_block>
ffffffffa080336c:	00000000 	nop
ffffffffa0803370:	08200d49 	j	ffffffffa0803524 <write+0x450>
ffffffffa0803374:	00000000 	nop
ffffffffa0803378:	3c020000 	lui	v0,0x0
ffffffffa080337c:	64420000 	daddiu	v0,v0,0
ffffffffa0803380:	00021438 	dsll	v0,v0,0x10
ffffffffa0803384:	6442a081 	daddiu	v0,v0,-24447
ffffffffa0803388:	00021438 	dsll	v0,v0,0x10
ffffffffa080338c:	64421890 	daddiu	v0,v0,6288
ffffffffa0803390:	8c420048 	lw	v0,72(v0)
ffffffffa0803394:	afc20000 	sw	v0,0(s8)
ffffffffa0803398:	8fc20000 	lw	v0,0(s8)
ffffffffa080339c:	14400018 	bnez	v0,ffffffffa0803400 <write+0x32c>
ffffffffa08033a0:	00000000 	nop
ffffffffa08033a4:	0c200361 	jal	ffffffffa0800d84 <alloc_block>
ffffffffa08033a8:	00000000 	nop
ffffffffa08033ac:	afc20000 	sw	v0,0(s8)
ffffffffa08033b0:	8fc30000 	lw	v1,0(s8)
ffffffffa08033b4:	3c020000 	lui	v0,0x0
ffffffffa08033b8:	64420000 	daddiu	v0,v0,0
ffffffffa08033bc:	00021438 	dsll	v0,v0,0x10
ffffffffa08033c0:	6442a081 	daddiu	v0,v0,-24447
ffffffffa08033c4:	00021438 	dsll	v0,v0,0x10
ffffffffa08033c8:	64421890 	daddiu	v0,v0,6288
ffffffffa08033cc:	ac430048 	sw	v1,72(v0)
ffffffffa08033d0:	8fc20000 	lw	v0,0(s8)
ffffffffa08033d4:	0040202d 	move	a0,v0
ffffffffa08033d8:	0c20029a 	jal	ffffffffa0800a68 <read_block>
ffffffffa08033dc:	00000000 	nop
ffffffffa08033e0:	3c04a800 	lui	a0,0xa800
ffffffffa08033e4:	24051000 	li	a1,4096
ffffffffa08033e8:	0c2020a5 	jal	ffffffffa0808294 <bzero>
ffffffffa08033ec:	00000000 	nop
ffffffffa08033f0:	8fc20000 	lw	v0,0(s8)
ffffffffa08033f4:	0040202d 	move	a0,v0
ffffffffa08033f8:	0c2002b0 	jal	ffffffffa0800ac0 <write_block>
ffffffffa08033fc:	00000000 	nop
ffffffffa0803400:	8fc20000 	lw	v0,0(s8)
ffffffffa0803404:	0040202d 	move	a0,v0
ffffffffa0803408:	0c20029a 	jal	ffffffffa0800a68 <read_block>
ffffffffa080340c:	00000000 	nop
ffffffffa0803410:	8fc20004 	lw	v0,4(s8)
ffffffffa0803414:	2442fff6 	addiu	v0,v0,-10
ffffffffa0803418:	0002103c 	dsll32	v0,v0,0x0
ffffffffa080341c:	0002103e 	dsrl32	v0,v0,0x0
ffffffffa0803420:	6442fc00 	daddiu	v0,v0,-1024
ffffffffa0803424:	000212ba 	dsrl	v0,v0,0xa
ffffffffa0803428:	000218b8 	dsll	v1,v0,0x2
ffffffffa080342c:	3c02a800 	lui	v0,0xa800
ffffffffa0803430:	0062102d 	daddu	v0,v1,v0
ffffffffa0803434:	ffc20008 	sd	v0,8(s8)
ffffffffa0803438:	dfc20008 	ld	v0,8(s8)
ffffffffa080343c:	8c420000 	lw	v0,0(v0)
ffffffffa0803440:	1440000f 	bnez	v0,ffffffffa0803480 <write+0x3ac>
ffffffffa0803444:	00000000 	nop
ffffffffa0803448:	0c200361 	jal	ffffffffa0800d84 <alloc_block>
ffffffffa080344c:	00000000 	nop
ffffffffa0803450:	afc20014 	sw	v0,20(s8)
ffffffffa0803454:	8fc30014 	lw	v1,20(s8)
ffffffffa0803458:	dfc20008 	ld	v0,8(s8)
ffffffffa080345c:	ac430000 	sw	v1,0(v0)
ffffffffa0803460:	8fc20000 	lw	v0,0(s8)
ffffffffa0803464:	0040202d 	move	a0,v0
ffffffffa0803468:	0c2002b0 	jal	ffffffffa0800ac0 <write_block>
ffffffffa080346c:	00000000 	nop
ffffffffa0803470:	8fc20014 	lw	v0,20(s8)
ffffffffa0803474:	afc20000 	sw	v0,0(s8)
ffffffffa0803478:	08200d23 	j	ffffffffa080348c <write+0x3b8>
ffffffffa080347c:	00000000 	nop
ffffffffa0803480:	dfc20008 	ld	v0,8(s8)
ffffffffa0803484:	8c420000 	lw	v0,0(v0)
ffffffffa0803488:	afc20000 	sw	v0,0(s8)
ffffffffa080348c:	8fc20000 	lw	v0,0(s8)
ffffffffa0803490:	0040202d 	move	a0,v0
ffffffffa0803494:	0c20029a 	jal	ffffffffa0800a68 <read_block>
ffffffffa0803498:	00000000 	nop
ffffffffa080349c:	8fc20004 	lw	v0,4(s8)
ffffffffa08034a0:	2442fff6 	addiu	v0,v0,-10
ffffffffa08034a4:	0002103c 	dsll32	v0,v0,0x0
ffffffffa08034a8:	0002103e 	dsrl32	v0,v0,0x0
ffffffffa08034ac:	304203ff 	andi	v0,v0,0x3ff
ffffffffa08034b0:	000218b8 	dsll	v1,v0,0x2
ffffffffa08034b4:	3c02a800 	lui	v0,0xa800
ffffffffa08034b8:	0062102d 	daddu	v0,v1,v0
ffffffffa08034bc:	ffc20008 	sd	v0,8(s8)
ffffffffa08034c0:	dfc20008 	ld	v0,8(s8)
ffffffffa08034c4:	8c420000 	lw	v0,0(v0)
ffffffffa08034c8:	1440000f 	bnez	v0,ffffffffa0803508 <write+0x434>
ffffffffa08034cc:	00000000 	nop
ffffffffa08034d0:	0c200361 	jal	ffffffffa0800d84 <alloc_block>
ffffffffa08034d4:	00000000 	nop
ffffffffa08034d8:	afc20018 	sw	v0,24(s8)
ffffffffa08034dc:	8fc30018 	lw	v1,24(s8)
ffffffffa08034e0:	dfc20008 	ld	v0,8(s8)
ffffffffa08034e4:	ac430000 	sw	v1,0(v0)
ffffffffa08034e8:	8fc20000 	lw	v0,0(s8)
ffffffffa08034ec:	0040202d 	move	a0,v0
ffffffffa08034f0:	0c2002b0 	jal	ffffffffa0800ac0 <write_block>
ffffffffa08034f4:	00000000 	nop
ffffffffa08034f8:	8fc20018 	lw	v0,24(s8)
ffffffffa08034fc:	afc20000 	sw	v0,0(s8)
ffffffffa0803500:	08200d45 	j	ffffffffa0803514 <write+0x440>
ffffffffa0803504:	00000000 	nop
ffffffffa0803508:	dfc20008 	ld	v0,8(s8)
ffffffffa080350c:	8c420000 	lw	v0,0(v0)
ffffffffa0803510:	afc20000 	sw	v0,0(s8)
ffffffffa0803514:	8fc20000 	lw	v0,0(s8)
ffffffffa0803518:	0040202d 	move	a0,v0
ffffffffa080351c:	0c20029a 	jal	ffffffffa0800a68 <read_block>
ffffffffa0803520:	00000000 	nop
ffffffffa0803524:	3c020000 	lui	v0,0x0
ffffffffa0803528:	64420000 	daddiu	v0,v0,0
ffffffffa080352c:	00021438 	dsll	v0,v0,0x10
ffffffffa0803530:	6442a081 	daddiu	v0,v0,-24447
ffffffffa0803534:	00021438 	dsll	v0,v0,0x10
ffffffffa0803538:	9fc30030 	lwu	v1,48(s8)
ffffffffa080353c:	00031938 	dsll	v1,v1,0x4
ffffffffa0803540:	64421910 	daddiu	v0,v0,6416
ffffffffa0803544:	0062102d 	daddu	v0,v1,v0
ffffffffa0803548:	8c43000c 	lw	v1,12(v0)
ffffffffa080354c:	8fc40004 	lw	a0,4(s8)
ffffffffa0803550:	8fc20040 	lw	v0,64(s8)
ffffffffa0803554:	00821023 	subu	v0,a0,v0
ffffffffa0803558:	00021300 	sll	v0,v0,0xc
ffffffffa080355c:	00621023 	subu	v0,v1,v0
ffffffffa0803560:	afc2001c 	sw	v0,28(s8)
ffffffffa0803564:	24031000 	li	v1,4096
ffffffffa0803568:	8fc2001c 	lw	v0,28(s8)
ffffffffa080356c:	00621023 	subu	v0,v1,v0
ffffffffa0803570:	8fc30034 	lw	v1,52(s8)
ffffffffa0803574:	0062202b 	sltu	a0,v1,v0
ffffffffa0803578:	0064100b 	movn	v0,v1,a0
ffffffffa080357c:	afc20020 	sw	v0,32(s8)
ffffffffa0803580:	8fc3001c 	lw	v1,28(s8)
ffffffffa0803584:	3c02a800 	lui	v0,0xa800
ffffffffa0803588:	0062102d 	daddu	v0,v1,v0
ffffffffa080358c:	ffc20028 	sd	v0,40(s8)
ffffffffa0803590:	8fc20020 	lw	v0,32(s8)
ffffffffa0803594:	dfc40028 	ld	a0,40(s8)
ffffffffa0803598:	dfc50038 	ld	a1,56(s8)
ffffffffa080359c:	0040302d 	move	a2,v0
ffffffffa08035a0:	0c20206a 	jal	ffffffffa08081a8 <memcpy>
ffffffffa08035a4:	00000000 	nop
ffffffffa08035a8:	8fc20000 	lw	v0,0(s8)
ffffffffa08035ac:	0040202d 	move	a0,v0
ffffffffa08035b0:	0c2002b0 	jal	ffffffffa0800ac0 <write_block>
ffffffffa08035b4:	00000000 	nop
ffffffffa08035b8:	8fc20020 	lw	v0,32(s8)
ffffffffa08035bc:	dfc30038 	ld	v1,56(s8)
ffffffffa08035c0:	0062102d 	daddu	v0,v1,v0
ffffffffa08035c4:	ffc20038 	sd	v0,56(s8)
ffffffffa08035c8:	3c020000 	lui	v0,0x0
ffffffffa08035cc:	64420000 	daddiu	v0,v0,0
ffffffffa08035d0:	00021438 	dsll	v0,v0,0x10
ffffffffa08035d4:	6442a081 	daddiu	v0,v0,-24447
ffffffffa08035d8:	00021438 	dsll	v0,v0,0x10
ffffffffa08035dc:	9fc30030 	lwu	v1,48(s8)
ffffffffa08035e0:	00031938 	dsll	v1,v1,0x4
ffffffffa08035e4:	64421910 	daddiu	v0,v0,6416
ffffffffa08035e8:	0062102d 	daddu	v0,v1,v0
ffffffffa08035ec:	8c43000c 	lw	v1,12(v0)
ffffffffa08035f0:	8fc20040 	lw	v0,64(s8)
ffffffffa08035f4:	00021300 	sll	v0,v0,0xc
ffffffffa08035f8:	0040202d 	move	a0,v0
ffffffffa08035fc:	8fc20020 	lw	v0,32(s8)
ffffffffa0803600:	00821021 	addu	v0,a0,v0
ffffffffa0803604:	00621021 	addu	v0,v1,v0
ffffffffa0803608:	0040182d 	move	v1,v0
ffffffffa080360c:	3c020000 	lui	v0,0x0
ffffffffa0803610:	64420000 	daddiu	v0,v0,0
ffffffffa0803614:	00021438 	dsll	v0,v0,0x10
ffffffffa0803618:	6442a081 	daddiu	v0,v0,-24447
ffffffffa080361c:	00021438 	dsll	v0,v0,0x10
ffffffffa0803620:	9fc40030 	lwu	a0,48(s8)
ffffffffa0803624:	00042138 	dsll	a0,a0,0x4
ffffffffa0803628:	64421910 	daddiu	v0,v0,6416
ffffffffa080362c:	0082102d 	daddu	v0,a0,v0
ffffffffa0803630:	ac43000c 	sw	v1,12(v0)
ffffffffa0803634:	3c020000 	lui	v0,0x0
ffffffffa0803638:	64420000 	daddiu	v0,v0,0
ffffffffa080363c:	00021438 	dsll	v0,v0,0x10
ffffffffa0803640:	6442a081 	daddiu	v0,v0,-24447
ffffffffa0803644:	00021438 	dsll	v0,v0,0x10
ffffffffa0803648:	64421890 	daddiu	v0,v0,6288
ffffffffa080364c:	8c430014 	lw	v1,20(v0)
ffffffffa0803650:	3c020000 	lui	v0,0x0
ffffffffa0803654:	64420000 	daddiu	v0,v0,0
ffffffffa0803658:	00021438 	dsll	v0,v0,0x10
ffffffffa080365c:	6442a081 	daddiu	v0,v0,-24447
ffffffffa0803660:	00021438 	dsll	v0,v0,0x10
ffffffffa0803664:	9fc40030 	lwu	a0,48(s8)
ffffffffa0803668:	00042138 	dsll	a0,a0,0x4
ffffffffa080366c:	64421910 	daddiu	v0,v0,6416
ffffffffa0803670:	0082102d 	daddu	v0,a0,v0
ffffffffa0803674:	8c42000c 	lw	v0,12(v0)
ffffffffa0803678:	0062102b 	sltu	v0,v1,v0
ffffffffa080367c:	10400012 	beqz	v0,ffffffffa08036c8 <write+0x5f4>
ffffffffa0803680:	00000000 	nop
ffffffffa0803684:	3c020000 	lui	v0,0x0
ffffffffa0803688:	64420000 	daddiu	v0,v0,0
ffffffffa080368c:	00021438 	dsll	v0,v0,0x10
ffffffffa0803690:	6442a081 	daddiu	v0,v0,-24447
ffffffffa0803694:	00021438 	dsll	v0,v0,0x10
ffffffffa0803698:	9fc30030 	lwu	v1,48(s8)
ffffffffa080369c:	00031938 	dsll	v1,v1,0x4
ffffffffa08036a0:	64421910 	daddiu	v0,v0,6416
ffffffffa08036a4:	0062102d 	daddu	v0,v1,v0
ffffffffa08036a8:	8c43000c 	lw	v1,12(v0)
ffffffffa08036ac:	3c020000 	lui	v0,0x0
ffffffffa08036b0:	64420000 	daddiu	v0,v0,0
ffffffffa08036b4:	00021438 	dsll	v0,v0,0x10
ffffffffa08036b8:	6442a081 	daddiu	v0,v0,-24447
ffffffffa08036bc:	00021438 	dsll	v0,v0,0x10
ffffffffa08036c0:	64421890 	daddiu	v0,v0,6288
ffffffffa08036c4:	ac430014 	sw	v1,20(v0)
ffffffffa08036c8:	8fc20020 	lw	v0,32(s8)
ffffffffa08036cc:	8fc30034 	lw	v1,52(s8)
ffffffffa08036d0:	00621023 	subu	v0,v1,v0
ffffffffa08036d4:	afc20034 	sw	v0,52(s8)
ffffffffa08036d8:	8fc20034 	lw	v0,52(s8)
ffffffffa08036dc:	1440fe99 	bnez	v0,ffffffffa0803144 <write+0x70>
ffffffffa08036e0:	00000000 	nop
ffffffffa08036e4:	3c020000 	lui	v0,0x0
ffffffffa08036e8:	64420000 	daddiu	v0,v0,0
ffffffffa08036ec:	00021438 	dsll	v0,v0,0x10
ffffffffa08036f0:	6442a081 	daddiu	v0,v0,-24447
ffffffffa08036f4:	00021438 	dsll	v0,v0,0x10
ffffffffa08036f8:	9fc30030 	lwu	v1,48(s8)
ffffffffa08036fc:	00031938 	dsll	v1,v1,0x4
ffffffffa0803700:	64421910 	daddiu	v0,v0,6416
ffffffffa0803704:	0062102d 	daddu	v0,v1,v0
ffffffffa0803708:	8c420000 	lw	v0,0(v0)
ffffffffa080370c:	0040202d 	move	a0,v0
ffffffffa0803710:	0c20025b 	jal	ffffffffa080096c <write_inode>
ffffffffa0803714:	00000000 	nop
ffffffffa0803718:	0000102d 	move	v0,zero
ffffffffa080371c:	03c0e82d 	move	sp,s8
ffffffffa0803720:	dfbf0058 	ld	ra,88(sp)
ffffffffa0803724:	dfbe0050 	ld	s8,80(sp)
ffffffffa0803728:	67bd0060 	daddiu	sp,sp,96
ffffffffa080372c:	03e00008 	jr	ra
ffffffffa0803730:	00000000 	nop

ffffffffa0803734 <read>:
ffffffffa0803734:	67bdffa0 	daddiu	sp,sp,-96
ffffffffa0803738:	ffbf0058 	sd	ra,88(sp)
ffffffffa080373c:	ffbe0050 	sd	s8,80(sp)
ffffffffa0803740:	03a0f02d 	move	s8,sp
ffffffffa0803744:	ffc50038 	sd	a1,56(s8)
ffffffffa0803748:	00c0182d 	move	v1,a2
ffffffffa080374c:	00e0102d 	move	v0,a3
ffffffffa0803750:	00042000 	sll	a0,a0,0x0
ffffffffa0803754:	afc40030 	sw	a0,48(s8)
ffffffffa0803758:	00031800 	sll	v1,v1,0x0
ffffffffa080375c:	afc30034 	sw	v1,52(s8)
ffffffffa0803760:	00021000 	sll	v0,v0,0x0
ffffffffa0803764:	afc20040 	sw	v0,64(s8)
ffffffffa0803768:	3c020000 	lui	v0,0x0
ffffffffa080376c:	64420000 	daddiu	v0,v0,0
ffffffffa0803770:	00021438 	dsll	v0,v0,0x10
ffffffffa0803774:	6442a081 	daddiu	v0,v0,-24447
ffffffffa0803778:	00021438 	dsll	v0,v0,0x10
ffffffffa080377c:	9fc30030 	lwu	v1,48(s8)
ffffffffa0803780:	00031938 	dsll	v1,v1,0x4
ffffffffa0803784:	64421910 	daddiu	v0,v0,6416
ffffffffa0803788:	0062102d 	daddu	v0,v1,v0
ffffffffa080378c:	8c420000 	lw	v0,0(v0)
ffffffffa0803790:	0040202d 	move	a0,v0
ffffffffa0803794:	0c20022a 	jal	ffffffffa08008a8 <read_inode>
ffffffffa0803798:	00000000 	nop
ffffffffa080379c:	3c020000 	lui	v0,0x0
ffffffffa08037a0:	64420000 	daddiu	v0,v0,0
ffffffffa08037a4:	00021438 	dsll	v0,v0,0x10
ffffffffa08037a8:	6442a081 	daddiu	v0,v0,-24447
ffffffffa08037ac:	00021438 	dsll	v0,v0,0x10
ffffffffa08037b0:	9fc30030 	lwu	v1,48(s8)
ffffffffa08037b4:	00031938 	dsll	v1,v1,0x4
ffffffffa08037b8:	64421910 	daddiu	v0,v0,6416
ffffffffa08037bc:	0062102d 	daddu	v0,v1,v0
ffffffffa08037c0:	8c420008 	lw	v0,8(v0)
ffffffffa08037c4:	8fc30034 	lw	v1,52(s8)
ffffffffa08037c8:	00621021 	addu	v0,v1,v0
ffffffffa08037cc:	afc20000 	sw	v0,0(s8)
ffffffffa08037d0:	8fc30000 	lw	v1,0(s8)
ffffffffa08037d4:	3c020000 	lui	v0,0x0
ffffffffa08037d8:	64420000 	daddiu	v0,v0,0
ffffffffa08037dc:	00021438 	dsll	v0,v0,0x10
ffffffffa08037e0:	6442a081 	daddiu	v0,v0,-24447
ffffffffa08037e4:	00021438 	dsll	v0,v0,0x10
ffffffffa08037e8:	64421890 	daddiu	v0,v0,6288
ffffffffa08037ec:	8c420014 	lw	v0,20(v0)
ffffffffa08037f0:	0043102b 	sltu	v0,v0,v1
ffffffffa08037f4:	10400015 	beqz	v0,ffffffffa080384c <read+0x118>
ffffffffa08037f8:	00000000 	nop
ffffffffa08037fc:	3c020000 	lui	v0,0x0
ffffffffa0803800:	64420000 	daddiu	v0,v0,0
ffffffffa0803804:	00021438 	dsll	v0,v0,0x10
ffffffffa0803808:	6442a081 	daddiu	v0,v0,-24447
ffffffffa080380c:	00021438 	dsll	v0,v0,0x10
ffffffffa0803810:	64421890 	daddiu	v0,v0,6288
ffffffffa0803814:	8c430014 	lw	v1,20(v0)
ffffffffa0803818:	8fc50000 	lw	a1,0(s8)
ffffffffa080381c:	3c020000 	lui	v0,0x0
ffffffffa0803820:	64420000 	daddiu	v0,v0,0
ffffffffa0803824:	00021438 	dsll	v0,v0,0x10
ffffffffa0803828:	6442a081 	daddiu	v0,v0,-24447
ffffffffa080382c:	00021438 	dsll	v0,v0,0x10
ffffffffa0803830:	6444ac20 	daddiu	a0,v0,-21472
ffffffffa0803834:	0060302d 	move	a2,v1
ffffffffa0803838:	0c2023af 	jal	ffffffffa0808ebc <kprintf>
ffffffffa080383c:	00000000 	nop
ffffffffa0803840:	2402ffff 	li	v0,-1
ffffffffa0803844:	08200eed 	j	ffffffffa0803bb4 <read+0x480>
ffffffffa0803848:	00000000 	nop
ffffffffa080384c:	08200edc 	j	ffffffffa0803b70 <read+0x43c>
ffffffffa0803850:	00000000 	nop
ffffffffa0803854:	3c020000 	lui	v0,0x0
ffffffffa0803858:	64420000 	daddiu	v0,v0,0
ffffffffa080385c:	00021438 	dsll	v0,v0,0x10
ffffffffa0803860:	6442a081 	daddiu	v0,v0,-24447
ffffffffa0803864:	00021438 	dsll	v0,v0,0x10
ffffffffa0803868:	9fc30030 	lwu	v1,48(s8)
ffffffffa080386c:	00031938 	dsll	v1,v1,0x4
ffffffffa0803870:	64421910 	daddiu	v0,v0,6416
ffffffffa0803874:	0062102d 	daddu	v0,v1,v0
ffffffffa0803878:	8c420008 	lw	v0,8(v0)
ffffffffa080387c:	00021302 	srl	v0,v0,0xc
ffffffffa0803880:	afc20004 	sw	v0,4(s8)
ffffffffa0803884:	3c020000 	lui	v0,0x0
ffffffffa0803888:	64420000 	daddiu	v0,v0,0
ffffffffa080388c:	00021438 	dsll	v0,v0,0x10
ffffffffa0803890:	6442a081 	daddiu	v0,v0,-24447
ffffffffa0803894:	00021438 	dsll	v0,v0,0x10
ffffffffa0803898:	9fc30030 	lwu	v1,48(s8)
ffffffffa080389c:	00031938 	dsll	v1,v1,0x4
ffffffffa08038a0:	64421910 	daddiu	v0,v0,6416
ffffffffa08038a4:	0062102d 	daddu	v0,v1,v0
ffffffffa08038a8:	8c430008 	lw	v1,8(v0)
ffffffffa08038ac:	3402a001 	li	v0,0xa001
ffffffffa08038b0:	0062102b 	sltu	v0,v1,v0
ffffffffa08038b4:	10400013 	beqz	v0,ffffffffa0803904 <read+0x1d0>
ffffffffa08038b8:	00000000 	nop
ffffffffa08038bc:	3c020000 	lui	v0,0x0
ffffffffa08038c0:	64420000 	daddiu	v0,v0,0
ffffffffa08038c4:	00021438 	dsll	v0,v0,0x10
ffffffffa08038c8:	6442a081 	daddiu	v0,v0,-24447
ffffffffa08038cc:	00021438 	dsll	v0,v0,0x10
ffffffffa08038d0:	9fc30004 	lwu	v1,4(s8)
ffffffffa08038d4:	64630004 	daddiu	v1,v1,4
ffffffffa08038d8:	000318b8 	dsll	v1,v1,0x2
ffffffffa08038dc:	64421890 	daddiu	v0,v0,6288
ffffffffa08038e0:	0062102d 	daddu	v0,v1,v0
ffffffffa08038e4:	8c42000c 	lw	v0,12(v0)
ffffffffa08038e8:	afc20008 	sw	v0,8(s8)
ffffffffa08038ec:	8fc20008 	lw	v0,8(s8)
ffffffffa08038f0:	0040202d 	move	a0,v0
ffffffffa08038f4:	0c20029a 	jal	ffffffffa0800a68 <read_block>
ffffffffa08038f8:	00000000 	nop
ffffffffa08038fc:	08200e9a 	j	ffffffffa0803a68 <read+0x334>
ffffffffa0803900:	00000000 	nop
ffffffffa0803904:	3c020000 	lui	v0,0x0
ffffffffa0803908:	64420000 	daddiu	v0,v0,0
ffffffffa080390c:	00021438 	dsll	v0,v0,0x10
ffffffffa0803910:	6442a081 	daddiu	v0,v0,-24447
ffffffffa0803914:	00021438 	dsll	v0,v0,0x10
ffffffffa0803918:	9fc30030 	lwu	v1,48(s8)
ffffffffa080391c:	00031938 	dsll	v1,v1,0x4
ffffffffa0803920:	64421910 	daddiu	v0,v0,6416
ffffffffa0803924:	0062102d 	daddu	v0,v1,v0
ffffffffa0803928:	8c430008 	lw	v1,8(v0)
ffffffffa080392c:	3c020040 	lui	v0,0x40
ffffffffa0803930:	3442a001 	ori	v0,v0,0xa001
ffffffffa0803934:	0062102b 	sltu	v0,v1,v0
ffffffffa0803938:	1040001e 	beqz	v0,ffffffffa08039b4 <read+0x280>
ffffffffa080393c:	00000000 	nop
ffffffffa0803940:	3c020000 	lui	v0,0x0
ffffffffa0803944:	64420000 	daddiu	v0,v0,0
ffffffffa0803948:	00021438 	dsll	v0,v0,0x10
ffffffffa080394c:	6442a081 	daddiu	v0,v0,-24447
ffffffffa0803950:	00021438 	dsll	v0,v0,0x10
ffffffffa0803954:	64421890 	daddiu	v0,v0,6288
ffffffffa0803958:	8c420044 	lw	v0,68(v0)
ffffffffa080395c:	afc20008 	sw	v0,8(s8)
ffffffffa0803960:	8fc20008 	lw	v0,8(s8)
ffffffffa0803964:	0040202d 	move	a0,v0
ffffffffa0803968:	0c20029a 	jal	ffffffffa0800a68 <read_block>
ffffffffa080396c:	00000000 	nop
ffffffffa0803970:	8fc20004 	lw	v0,4(s8)
ffffffffa0803974:	2442fff6 	addiu	v0,v0,-10
ffffffffa0803978:	0002103c 	dsll32	v0,v0,0x0
ffffffffa080397c:	0002103e 	dsrl32	v0,v0,0x0
ffffffffa0803980:	000218b8 	dsll	v1,v0,0x2
ffffffffa0803984:	3c02a800 	lui	v0,0xa800
ffffffffa0803988:	0062102d 	daddu	v0,v1,v0
ffffffffa080398c:	ffc20010 	sd	v0,16(s8)
ffffffffa0803990:	dfc20010 	ld	v0,16(s8)
ffffffffa0803994:	8c420000 	lw	v0,0(v0)
ffffffffa0803998:	afc20008 	sw	v0,8(s8)
ffffffffa080399c:	8fc20008 	lw	v0,8(s8)
ffffffffa08039a0:	0040202d 	move	a0,v0
ffffffffa08039a4:	0c20029a 	jal	ffffffffa0800a68 <read_block>
ffffffffa08039a8:	00000000 	nop
ffffffffa08039ac:	08200e9a 	j	ffffffffa0803a68 <read+0x334>
ffffffffa08039b0:	00000000 	nop
ffffffffa08039b4:	3c020000 	lui	v0,0x0
ffffffffa08039b8:	64420000 	daddiu	v0,v0,0
ffffffffa08039bc:	00021438 	dsll	v0,v0,0x10
ffffffffa08039c0:	6442a081 	daddiu	v0,v0,-24447
ffffffffa08039c4:	00021438 	dsll	v0,v0,0x10
ffffffffa08039c8:	64421890 	daddiu	v0,v0,6288
ffffffffa08039cc:	8c420048 	lw	v0,72(v0)
ffffffffa08039d0:	afc20008 	sw	v0,8(s8)
ffffffffa08039d4:	8fc20008 	lw	v0,8(s8)
ffffffffa08039d8:	0040202d 	move	a0,v0
ffffffffa08039dc:	0c20029a 	jal	ffffffffa0800a68 <read_block>
ffffffffa08039e0:	00000000 	nop
ffffffffa08039e4:	8fc20004 	lw	v0,4(s8)
ffffffffa08039e8:	2442fff6 	addiu	v0,v0,-10
ffffffffa08039ec:	0002103c 	dsll32	v0,v0,0x0
ffffffffa08039f0:	0002103e 	dsrl32	v0,v0,0x0
ffffffffa08039f4:	6442fc00 	daddiu	v0,v0,-1024
ffffffffa08039f8:	000212ba 	dsrl	v0,v0,0xa
ffffffffa08039fc:	000218b8 	dsll	v1,v0,0x2
ffffffffa0803a00:	3c02a800 	lui	v0,0xa800
ffffffffa0803a04:	0062102d 	daddu	v0,v1,v0
ffffffffa0803a08:	ffc20010 	sd	v0,16(s8)
ffffffffa0803a0c:	dfc20010 	ld	v0,16(s8)
ffffffffa0803a10:	8c420000 	lw	v0,0(v0)
ffffffffa0803a14:	afc20008 	sw	v0,8(s8)
ffffffffa0803a18:	8fc20008 	lw	v0,8(s8)
ffffffffa0803a1c:	0040202d 	move	a0,v0
ffffffffa0803a20:	0c20029a 	jal	ffffffffa0800a68 <read_block>
ffffffffa0803a24:	00000000 	nop
ffffffffa0803a28:	8fc20004 	lw	v0,4(s8)
ffffffffa0803a2c:	2442fff6 	addiu	v0,v0,-10
ffffffffa0803a30:	0002103c 	dsll32	v0,v0,0x0
ffffffffa0803a34:	0002103e 	dsrl32	v0,v0,0x0
ffffffffa0803a38:	304203ff 	andi	v0,v0,0x3ff
ffffffffa0803a3c:	000218b8 	dsll	v1,v0,0x2
ffffffffa0803a40:	3c02a800 	lui	v0,0xa800
ffffffffa0803a44:	0062102d 	daddu	v0,v1,v0
ffffffffa0803a48:	ffc20010 	sd	v0,16(s8)
ffffffffa0803a4c:	dfc20010 	ld	v0,16(s8)
ffffffffa0803a50:	8c420000 	lw	v0,0(v0)
ffffffffa0803a54:	afc20008 	sw	v0,8(s8)
ffffffffa0803a58:	8fc20008 	lw	v0,8(s8)
ffffffffa0803a5c:	0040202d 	move	a0,v0
ffffffffa0803a60:	0c20029a 	jal	ffffffffa0800a68 <read_block>
ffffffffa0803a64:	00000000 	nop
ffffffffa0803a68:	3c020000 	lui	v0,0x0
ffffffffa0803a6c:	64420000 	daddiu	v0,v0,0
ffffffffa0803a70:	00021438 	dsll	v0,v0,0x10
ffffffffa0803a74:	6442a081 	daddiu	v0,v0,-24447
ffffffffa0803a78:	00021438 	dsll	v0,v0,0x10
ffffffffa0803a7c:	9fc30030 	lwu	v1,48(s8)
ffffffffa0803a80:	00031938 	dsll	v1,v1,0x4
ffffffffa0803a84:	64421910 	daddiu	v0,v0,6416
ffffffffa0803a88:	0062102d 	daddu	v0,v1,v0
ffffffffa0803a8c:	8c430008 	lw	v1,8(v0)
ffffffffa0803a90:	8fc20004 	lw	v0,4(s8)
ffffffffa0803a94:	00021300 	sll	v0,v0,0xc
ffffffffa0803a98:	00621023 	subu	v0,v1,v0
ffffffffa0803a9c:	afc20018 	sw	v0,24(s8)
ffffffffa0803aa0:	24031000 	li	v1,4096
ffffffffa0803aa4:	8fc20018 	lw	v0,24(s8)
ffffffffa0803aa8:	00621023 	subu	v0,v1,v0
ffffffffa0803aac:	8fc30034 	lw	v1,52(s8)
ffffffffa0803ab0:	0062202b 	sltu	a0,v1,v0
ffffffffa0803ab4:	0064100b 	movn	v0,v1,a0
ffffffffa0803ab8:	afc2001c 	sw	v0,28(s8)
ffffffffa0803abc:	8fc30018 	lw	v1,24(s8)
ffffffffa0803ac0:	3c02a800 	lui	v0,0xa800
ffffffffa0803ac4:	0062102d 	daddu	v0,v1,v0
ffffffffa0803ac8:	ffc20020 	sd	v0,32(s8)
ffffffffa0803acc:	8fc2001c 	lw	v0,28(s8)
ffffffffa0803ad0:	dfc40038 	ld	a0,56(s8)
ffffffffa0803ad4:	dfc50020 	ld	a1,32(s8)
ffffffffa0803ad8:	0040302d 	move	a2,v0
ffffffffa0803adc:	0c20206a 	jal	ffffffffa08081a8 <memcpy>
ffffffffa0803ae0:	00000000 	nop
ffffffffa0803ae4:	8fc2001c 	lw	v0,28(s8)
ffffffffa0803ae8:	dfc30038 	ld	v1,56(s8)
ffffffffa0803aec:	0062102d 	daddu	v0,v1,v0
ffffffffa0803af0:	ffc20038 	sd	v0,56(s8)
ffffffffa0803af4:	3c020000 	lui	v0,0x0
ffffffffa0803af8:	64420000 	daddiu	v0,v0,0
ffffffffa0803afc:	00021438 	dsll	v0,v0,0x10
ffffffffa0803b00:	6442a081 	daddiu	v0,v0,-24447
ffffffffa0803b04:	00021438 	dsll	v0,v0,0x10
ffffffffa0803b08:	9fc30030 	lwu	v1,48(s8)
ffffffffa0803b0c:	00031938 	dsll	v1,v1,0x4
ffffffffa0803b10:	64421910 	daddiu	v0,v0,6416
ffffffffa0803b14:	0062102d 	daddu	v0,v1,v0
ffffffffa0803b18:	8c430008 	lw	v1,8(v0)
ffffffffa0803b1c:	8fc20040 	lw	v0,64(s8)
ffffffffa0803b20:	00021300 	sll	v0,v0,0xc
ffffffffa0803b24:	0040202d 	move	a0,v0
ffffffffa0803b28:	8fc2001c 	lw	v0,28(s8)
ffffffffa0803b2c:	00821021 	addu	v0,a0,v0
ffffffffa0803b30:	00621021 	addu	v0,v1,v0
ffffffffa0803b34:	0040182d 	move	v1,v0
ffffffffa0803b38:	3c020000 	lui	v0,0x0
ffffffffa0803b3c:	64420000 	daddiu	v0,v0,0
ffffffffa0803b40:	00021438 	dsll	v0,v0,0x10
ffffffffa0803b44:	6442a081 	daddiu	v0,v0,-24447
ffffffffa0803b48:	00021438 	dsll	v0,v0,0x10
ffffffffa0803b4c:	9fc40030 	lwu	a0,48(s8)
ffffffffa0803b50:	00042138 	dsll	a0,a0,0x4
ffffffffa0803b54:	64421910 	daddiu	v0,v0,6416
ffffffffa0803b58:	0082102d 	daddu	v0,a0,v0
ffffffffa0803b5c:	ac430008 	sw	v1,8(v0)
ffffffffa0803b60:	8fc2001c 	lw	v0,28(s8)
ffffffffa0803b64:	8fc30034 	lw	v1,52(s8)
ffffffffa0803b68:	00621023 	subu	v0,v1,v0
ffffffffa0803b6c:	afc20034 	sw	v0,52(s8)
ffffffffa0803b70:	8fc20034 	lw	v0,52(s8)
ffffffffa0803b74:	1440ff37 	bnez	v0,ffffffffa0803854 <read+0x120>
ffffffffa0803b78:	00000000 	nop
ffffffffa0803b7c:	3c020000 	lui	v0,0x0
ffffffffa0803b80:	64420000 	daddiu	v0,v0,0
ffffffffa0803b84:	00021438 	dsll	v0,v0,0x10
ffffffffa0803b88:	6442a081 	daddiu	v0,v0,-24447
ffffffffa0803b8c:	00021438 	dsll	v0,v0,0x10
ffffffffa0803b90:	9fc30030 	lwu	v1,48(s8)
ffffffffa0803b94:	00031938 	dsll	v1,v1,0x4
ffffffffa0803b98:	64421910 	daddiu	v0,v0,6416
ffffffffa0803b9c:	0062102d 	daddu	v0,v1,v0
ffffffffa0803ba0:	8c420000 	lw	v0,0(v0)
ffffffffa0803ba4:	0040202d 	move	a0,v0
ffffffffa0803ba8:	0c20025b 	jal	ffffffffa080096c <write_inode>
ffffffffa0803bac:	00000000 	nop
ffffffffa0803bb0:	0000102d 	move	v0,zero
ffffffffa0803bb4:	03c0e82d 	move	sp,s8
ffffffffa0803bb8:	dfbf0058 	ld	ra,88(sp)
ffffffffa0803bbc:	dfbe0050 	ld	s8,80(sp)
ffffffffa0803bc0:	67bd0060 	daddiu	sp,sp,96
ffffffffa0803bc4:	03e00008 	jr	ra
ffffffffa0803bc8:	00000000 	nop

ffffffffa0803bcc <close>:
ffffffffa0803bcc:	67bdffe0 	daddiu	sp,sp,-32
ffffffffa0803bd0:	ffbf0018 	sd	ra,24(sp)
ffffffffa0803bd4:	ffbe0010 	sd	s8,16(sp)
ffffffffa0803bd8:	03a0f02d 	move	s8,sp
ffffffffa0803bdc:	0080102d 	move	v0,a0
ffffffffa0803be0:	00021000 	sll	v0,v0,0x0
ffffffffa0803be4:	afc20000 	sw	v0,0(s8)
ffffffffa0803be8:	3c020000 	lui	v0,0x0
ffffffffa0803bec:	64420000 	daddiu	v0,v0,0
ffffffffa0803bf0:	00021438 	dsll	v0,v0,0x10
ffffffffa0803bf4:	6442a081 	daddiu	v0,v0,-24447
ffffffffa0803bf8:	00021438 	dsll	v0,v0,0x10
ffffffffa0803bfc:	8c421a00 	lw	v0,6656(v0)
ffffffffa0803c00:	2442ffff 	addiu	v0,v0,-1
ffffffffa0803c04:	0040182d 	move	v1,v0
ffffffffa0803c08:	3c020000 	lui	v0,0x0
ffffffffa0803c0c:	64420000 	daddiu	v0,v0,0
ffffffffa0803c10:	00021438 	dsll	v0,v0,0x10
ffffffffa0803c14:	6442a081 	daddiu	v0,v0,-24447
ffffffffa0803c18:	00021438 	dsll	v0,v0,0x10
ffffffffa0803c1c:	ac431a00 	sw	v1,6656(v0)
ffffffffa0803c20:	3c020000 	lui	v0,0x0
ffffffffa0803c24:	64420000 	daddiu	v0,v0,0
ffffffffa0803c28:	00021438 	dsll	v0,v0,0x10
ffffffffa0803c2c:	6442a081 	daddiu	v0,v0,-24447
ffffffffa0803c30:	00021438 	dsll	v0,v0,0x10
ffffffffa0803c34:	8c421a00 	lw	v0,6656(v0)
ffffffffa0803c38:	0040182d 	move	v1,v0
ffffffffa0803c3c:	8fc20000 	lw	v0,0(s8)
ffffffffa0803c40:	14430010 	bne	v0,v1,ffffffffa0803c84 <close+0xb8>
ffffffffa0803c44:	00000000 	nop
ffffffffa0803c48:	9fc20000 	lwu	v0,0(s8)
ffffffffa0803c4c:	00021938 	dsll	v1,v0,0x4
ffffffffa0803c50:	3c020000 	lui	v0,0x0
ffffffffa0803c54:	64420000 	daddiu	v0,v0,0
ffffffffa0803c58:	00021438 	dsll	v0,v0,0x10
ffffffffa0803c5c:	6442a081 	daddiu	v0,v0,-24447
ffffffffa0803c60:	00021438 	dsll	v0,v0,0x10
ffffffffa0803c64:	64421910 	daddiu	v0,v0,6416
ffffffffa0803c68:	0062102d 	daddu	v0,v1,v0
ffffffffa0803c6c:	0040202d 	move	a0,v0
ffffffffa0803c70:	24050010 	li	a1,16
ffffffffa0803c74:	0c2020a5 	jal	ffffffffa0808294 <bzero>
ffffffffa0803c78:	00000000 	nop
ffffffffa0803c7c:	08200f3c 	j	ffffffffa0803cf0 <close+0x124>
ffffffffa0803c80:	00000000 	nop
ffffffffa0803c84:	9fc20000 	lwu	v0,0(s8)
ffffffffa0803c88:	00021938 	dsll	v1,v0,0x4
ffffffffa0803c8c:	3c020000 	lui	v0,0x0
ffffffffa0803c90:	64420000 	daddiu	v0,v0,0
ffffffffa0803c94:	00021438 	dsll	v0,v0,0x10
ffffffffa0803c98:	6442a081 	daddiu	v0,v0,-24447
ffffffffa0803c9c:	00021438 	dsll	v0,v0,0x10
ffffffffa0803ca0:	64421910 	daddiu	v0,v0,6416
ffffffffa0803ca4:	0062202d 	daddu	a0,v1,v0
ffffffffa0803ca8:	3c020000 	lui	v0,0x0
ffffffffa0803cac:	64420000 	daddiu	v0,v0,0
ffffffffa0803cb0:	00021438 	dsll	v0,v0,0x10
ffffffffa0803cb4:	6442a081 	daddiu	v0,v0,-24447
ffffffffa0803cb8:	00021438 	dsll	v0,v0,0x10
ffffffffa0803cbc:	8c421a00 	lw	v0,6656(v0)
ffffffffa0803cc0:	00021938 	dsll	v1,v0,0x4
ffffffffa0803cc4:	3c020000 	lui	v0,0x0
ffffffffa0803cc8:	64420000 	daddiu	v0,v0,0
ffffffffa0803ccc:	00021438 	dsll	v0,v0,0x10
ffffffffa0803cd0:	6442a081 	daddiu	v0,v0,-24447
ffffffffa0803cd4:	00021438 	dsll	v0,v0,0x10
ffffffffa0803cd8:	64421910 	daddiu	v0,v0,6416
ffffffffa0803cdc:	0062102d 	daddu	v0,v1,v0
ffffffffa0803ce0:	0040282d 	move	a1,v0
ffffffffa0803ce4:	24060010 	li	a2,16
ffffffffa0803ce8:	0c20206a 	jal	ffffffffa08081a8 <memcpy>
ffffffffa0803cec:	00000000 	nop
ffffffffa0803cf0:	0000102d 	move	v0,zero
ffffffffa0803cf4:	03c0e82d 	move	sp,s8
ffffffffa0803cf8:	dfbf0018 	ld	ra,24(sp)
ffffffffa0803cfc:	dfbe0010 	ld	s8,16(sp)
ffffffffa0803d00:	67bd0020 	daddiu	sp,sp,32
ffffffffa0803d04:	03e00008 	jr	ra
ffffffffa0803d08:	00000000 	nop

ffffffffa0803d0c <cat>:
ffffffffa0803d0c:	67bdffc0 	daddiu	sp,sp,-64
ffffffffa0803d10:	ffbf0038 	sd	ra,56(sp)
ffffffffa0803d14:	ffbe0030 	sd	s8,48(sp)
ffffffffa0803d18:	03a0f02d 	move	s8,sp
ffffffffa0803d1c:	ffc40020 	sd	a0,32(s8)
ffffffffa0803d20:	dfc40020 	ld	a0,32(s8)
ffffffffa0803d24:	0c20063d 	jal	ffffffffa08018f4 <is_name_in_dir>
ffffffffa0803d28:	00000000 	nop
ffffffffa0803d2c:	afc20000 	sw	v0,0(s8)
ffffffffa0803d30:	8fc30000 	lw	v1,0(s8)
ffffffffa0803d34:	2402ffff 	li	v0,-1
ffffffffa0803d38:	1462000d 	bne	v1,v0,ffffffffa0803d70 <cat+0x64>
ffffffffa0803d3c:	00000000 	nop
ffffffffa0803d40:	3c020000 	lui	v0,0x0
ffffffffa0803d44:	64420000 	daddiu	v0,v0,0
ffffffffa0803d48:	00021438 	dsll	v0,v0,0x10
ffffffffa0803d4c:	6442a081 	daddiu	v0,v0,-24447
ffffffffa0803d50:	00021438 	dsll	v0,v0,0x10
ffffffffa0803d54:	6444ac50 	daddiu	a0,v0,-21424
ffffffffa0803d58:	dfc50020 	ld	a1,32(s8)
ffffffffa0803d5c:	0c2023af 	jal	ffffffffa0808ebc <kprintf>
ffffffffa0803d60:	00000000 	nop
ffffffffa0803d64:	2402ffff 	li	v0,-1
ffffffffa0803d68:	08200fd9 	j	ffffffffa0803f64 <cat+0x258>
ffffffffa0803d6c:	00000000 	nop
ffffffffa0803d70:	8fc20000 	lw	v0,0(s8)
ffffffffa0803d74:	24420002 	addiu	v0,v0,2
ffffffffa0803d78:	00021978 	dsll	v1,v0,0x5
ffffffffa0803d7c:	3c02a800 	lui	v0,0xa800
ffffffffa0803d80:	0062102d 	daddu	v0,v1,v0
ffffffffa0803d84:	ffc20008 	sd	v0,8(s8)
ffffffffa0803d88:	dfc20008 	ld	v0,8(s8)
ffffffffa0803d8c:	8c420000 	lw	v0,0(v0)
ffffffffa0803d90:	afc20000 	sw	v0,0(s8)
ffffffffa0803d94:	dfc20008 	ld	v0,8(s8)
ffffffffa0803d98:	8c430004 	lw	v1,4(v0)
ffffffffa0803d9c:	24020006 	li	v0,6
ffffffffa0803da0:	14620029 	bne	v1,v0,ffffffffa0803e48 <cat+0x13c>
ffffffffa0803da4:	00000000 	nop
ffffffffa0803da8:	8fc20000 	lw	v0,0(s8)
ffffffffa0803dac:	0040202d 	move	a0,v0
ffffffffa0803db0:	0c20022a 	jal	ffffffffa08008a8 <read_inode>
ffffffffa0803db4:	00000000 	nop
ffffffffa0803db8:	3c020000 	lui	v0,0x0
ffffffffa0803dbc:	64420000 	daddiu	v0,v0,0
ffffffffa0803dc0:	00021438 	dsll	v0,v0,0x10
ffffffffa0803dc4:	6442a081 	daddiu	v0,v0,-24447
ffffffffa0803dc8:	00021438 	dsll	v0,v0,0x10
ffffffffa0803dcc:	64421890 	daddiu	v0,v0,6288
ffffffffa0803dd0:	8c42001c 	lw	v0,28(v0)
ffffffffa0803dd4:	0040202d 	move	a0,v0
ffffffffa0803dd8:	0c20029a 	jal	ffffffffa0800a68 <read_block>
ffffffffa0803ddc:	00000000 	nop
ffffffffa0803de0:	3c02a800 	lui	v0,0xa800
ffffffffa0803de4:	ffc20010 	sd	v0,16(s8)
ffffffffa0803de8:	dfc20010 	ld	v0,16(s8)
ffffffffa0803dec:	8c420000 	lw	v0,0(v0)
ffffffffa0803df0:	afc20000 	sw	v0,0(s8)
ffffffffa0803df4:	3c020000 	lui	v0,0x0
ffffffffa0803df8:	64420000 	daddiu	v0,v0,0
ffffffffa0803dfc:	00021438 	dsll	v0,v0,0x10
ffffffffa0803e00:	6442a081 	daddiu	v0,v0,-24447
ffffffffa0803e04:	00021438 	dsll	v0,v0,0x10
ffffffffa0803e08:	64421a08 	daddiu	v0,v0,6664
ffffffffa0803e0c:	8c42000c 	lw	v0,12(v0)
ffffffffa0803e10:	1440000b 	bnez	v0,ffffffffa0803e40 <cat+0x134>
ffffffffa0803e14:	00000000 	nop
ffffffffa0803e18:	3c020000 	lui	v0,0x0
ffffffffa0803e1c:	64420000 	daddiu	v0,v0,0
ffffffffa0803e20:	00021438 	dsll	v0,v0,0x10
ffffffffa0803e24:	6442a081 	daddiu	v0,v0,-24447
ffffffffa0803e28:	00021438 	dsll	v0,v0,0x10
ffffffffa0803e2c:	6444aaa0 	daddiu	a0,v0,-21856
ffffffffa0803e30:	0c2023af 	jal	ffffffffa0808ebc <kprintf>
ffffffffa0803e34:	00000000 	nop
ffffffffa0803e38:	08200fd9 	j	ffffffffa0803f64 <cat+0x258>
ffffffffa0803e3c:	00000000 	nop
ffffffffa0803e40:	08200fa3 	j	ffffffffa0803e8c <cat+0x180>
ffffffffa0803e44:	00000000 	nop
ffffffffa0803e48:	dfc20008 	ld	v0,8(s8)
ffffffffa0803e4c:	8c430004 	lw	v1,4(v0)
ffffffffa0803e50:	24020001 	li	v0,1
ffffffffa0803e54:	1062000d 	beq	v1,v0,ffffffffa0803e8c <cat+0x180>
ffffffffa0803e58:	00000000 	nop
ffffffffa0803e5c:	3c020000 	lui	v0,0x0
ffffffffa0803e60:	64420000 	daddiu	v0,v0,0
ffffffffa0803e64:	00021438 	dsll	v0,v0,0x10
ffffffffa0803e68:	6442a081 	daddiu	v0,v0,-24447
ffffffffa0803e6c:	00021438 	dsll	v0,v0,0x10
ffffffffa0803e70:	6444ac68 	daddiu	a0,v0,-21400
ffffffffa0803e74:	dfc50020 	ld	a1,32(s8)
ffffffffa0803e78:	0c2023af 	jal	ffffffffa0808ebc <kprintf>
ffffffffa0803e7c:	00000000 	nop
ffffffffa0803e80:	2402ffff 	li	v0,-1
ffffffffa0803e84:	08200fd9 	j	ffffffffa0803f64 <cat+0x258>
ffffffffa0803e88:	00000000 	nop
ffffffffa0803e8c:	8fc20000 	lw	v0,0(s8)
ffffffffa0803e90:	0040202d 	move	a0,v0
ffffffffa0803e94:	0c20022a 	jal	ffffffffa08008a8 <read_inode>
ffffffffa0803e98:	00000000 	nop
ffffffffa0803e9c:	3c020000 	lui	v0,0x0
ffffffffa0803ea0:	64420000 	daddiu	v0,v0,0
ffffffffa0803ea4:	00021438 	dsll	v0,v0,0x10
ffffffffa0803ea8:	6442a081 	daddiu	v0,v0,-24447
ffffffffa0803eac:	00021438 	dsll	v0,v0,0x10
ffffffffa0803eb0:	64421890 	daddiu	v0,v0,6288
ffffffffa0803eb4:	8c42001c 	lw	v0,28(v0)
ffffffffa0803eb8:	0040202d 	move	a0,v0
ffffffffa0803ebc:	0c20029a 	jal	ffffffffa0800a68 <read_block>
ffffffffa0803ec0:	00000000 	nop
ffffffffa0803ec4:	3c02a800 	lui	v0,0xa800
ffffffffa0803ec8:	ffc20018 	sd	v0,24(s8)
ffffffffa0803ecc:	afc00004 	sw	zero,4(s8)
ffffffffa0803ed0:	08200fcd 	j	ffffffffa0803f34 <cat+0x228>
ffffffffa0803ed4:	00000000 	nop
ffffffffa0803ed8:	8fc20004 	lw	v0,4(s8)
ffffffffa0803edc:	dfc30018 	ld	v1,24(s8)
ffffffffa0803ee0:	0062102d 	daddu	v0,v1,v0
ffffffffa0803ee4:	80420000 	lb	v0,0(v0)
ffffffffa0803ee8:	0040182d 	move	v1,v0
ffffffffa0803eec:	3c020000 	lui	v0,0x0
ffffffffa0803ef0:	64420000 	daddiu	v0,v0,0
ffffffffa0803ef4:	00021438 	dsll	v0,v0,0x10
ffffffffa0803ef8:	6442a081 	daddiu	v0,v0,-24447
ffffffffa0803efc:	00021438 	dsll	v0,v0,0x10
ffffffffa0803f00:	6444ac88 	daddiu	a0,v0,-21368
ffffffffa0803f04:	0060282d 	move	a1,v1
ffffffffa0803f08:	0c2023af 	jal	ffffffffa0808ebc <kprintf>
ffffffffa0803f0c:	00000000 	nop
ffffffffa0803f10:	8fc20004 	lw	v0,4(s8)
ffffffffa0803f14:	28421001 	slti	v0,v0,4097
ffffffffa0803f18:	14400003 	bnez	v0,ffffffffa0803f28 <cat+0x21c>
ffffffffa0803f1c:	00000000 	nop
ffffffffa0803f20:	08200fd8 	j	ffffffffa0803f60 <cat+0x254>
ffffffffa0803f24:	00000000 	nop
ffffffffa0803f28:	8fc20004 	lw	v0,4(s8)
ffffffffa0803f2c:	24420001 	addiu	v0,v0,1
ffffffffa0803f30:	afc20004 	sw	v0,4(s8)
ffffffffa0803f34:	8fc30004 	lw	v1,4(s8)
ffffffffa0803f38:	3c020000 	lui	v0,0x0
ffffffffa0803f3c:	64420000 	daddiu	v0,v0,0
ffffffffa0803f40:	00021438 	dsll	v0,v0,0x10
ffffffffa0803f44:	6442a081 	daddiu	v0,v0,-24447
ffffffffa0803f48:	00021438 	dsll	v0,v0,0x10
ffffffffa0803f4c:	64421890 	daddiu	v0,v0,6288
ffffffffa0803f50:	8c420014 	lw	v0,20(v0)
ffffffffa0803f54:	0062102b 	sltu	v0,v1,v0
ffffffffa0803f58:	1440ffdf 	bnez	v0,ffffffffa0803ed8 <cat+0x1cc>
ffffffffa0803f5c:	00000000 	nop
ffffffffa0803f60:	0000102d 	move	v0,zero
ffffffffa0803f64:	03c0e82d 	move	sp,s8
ffffffffa0803f68:	dfbf0038 	ld	ra,56(sp)
ffffffffa0803f6c:	dfbe0030 	ld	s8,48(sp)
ffffffffa0803f70:	67bd0040 	daddiu	sp,sp,64
ffffffffa0803f74:	03e00008 	jr	ra
ffffffffa0803f78:	00000000 	nop

ffffffffa0803f7c <do_link>:
ffffffffa0803f7c:	67bdff90 	daddiu	sp,sp,-112
ffffffffa0803f80:	ffbf0068 	sd	ra,104(sp)
ffffffffa0803f84:	ffbe0060 	sd	s8,96(sp)
ffffffffa0803f88:	03a0f02d 	move	s8,sp
ffffffffa0803f8c:	ffc40040 	sd	a0,64(s8)
ffffffffa0803f90:	ffc50048 	sd	a1,72(s8)
ffffffffa0803f94:	00c0102d 	move	v0,a2
ffffffffa0803f98:	00021000 	sll	v0,v0,0x0
ffffffffa0803f9c:	afc20050 	sw	v0,80(s8)
ffffffffa0803fa0:	dfc40040 	ld	a0,64(s8)
ffffffffa0803fa4:	0c20063d 	jal	ffffffffa08018f4 <is_name_in_dir>
ffffffffa0803fa8:	00000000 	nop
ffffffffa0803fac:	afc20000 	sw	v0,0(s8)
ffffffffa0803fb0:	8fc30000 	lw	v1,0(s8)
ffffffffa0803fb4:	2402ffff 	li	v0,-1
ffffffffa0803fb8:	1462000d 	bne	v1,v0,ffffffffa0803ff0 <do_link+0x74>
ffffffffa0803fbc:	00000000 	nop
ffffffffa0803fc0:	3c020000 	lui	v0,0x0
ffffffffa0803fc4:	64420000 	daddiu	v0,v0,0
ffffffffa0803fc8:	00021438 	dsll	v0,v0,0x10
ffffffffa0803fcc:	6442a081 	daddiu	v0,v0,-24447
ffffffffa0803fd0:	00021438 	dsll	v0,v0,0x10
ffffffffa0803fd4:	6444ac50 	daddiu	a0,v0,-21424
ffffffffa0803fd8:	dfc50040 	ld	a1,64(s8)
ffffffffa0803fdc:	0c2023af 	jal	ffffffffa0808ebc <kprintf>
ffffffffa0803fe0:	00000000 	nop
ffffffffa0803fe4:	2402ffff 	li	v0,-1
ffffffffa0803fe8:	08201124 	j	ffffffffa0804490 <do_link+0x514>
ffffffffa0803fec:	00000000 	nop
ffffffffa0803ff0:	3c020000 	lui	v0,0x0
ffffffffa0803ff4:	64420000 	daddiu	v0,v0,0
ffffffffa0803ff8:	00021438 	dsll	v0,v0,0x10
ffffffffa0803ffc:	6442a081 	daddiu	v0,v0,-24447
ffffffffa0804000:	00021438 	dsll	v0,v0,0x10
ffffffffa0804004:	64421a08 	daddiu	v0,v0,6664
ffffffffa0804008:	8c42001c 	lw	v0,28(v0)
ffffffffa080400c:	0040202d 	move	a0,v0
ffffffffa0804010:	0c20029a 	jal	ffffffffa0800a68 <read_block>
ffffffffa0804014:	00000000 	nop
ffffffffa0804018:	8fc20000 	lw	v0,0(s8)
ffffffffa080401c:	24420002 	addiu	v0,v0,2
ffffffffa0804020:	00021978 	dsll	v1,v0,0x5
ffffffffa0804024:	3c02a800 	lui	v0,0xa800
ffffffffa0804028:	0062102d 	daddu	v0,v1,v0
ffffffffa080402c:	ffc20008 	sd	v0,8(s8)
ffffffffa0804030:	dfc20008 	ld	v0,8(s8)
ffffffffa0804034:	8c420000 	lw	v0,0(v0)
ffffffffa0804038:	afc20010 	sw	v0,16(s8)
ffffffffa080403c:	8fc20050 	lw	v0,80(s8)
ffffffffa0804040:	1040008f 	beqz	v0,ffffffffa0804280 <do_link+0x304>
ffffffffa0804044:	00000000 	nop
ffffffffa0804048:	0c2002c6 	jal	ffffffffa0800b18 <alloc_inode>
ffffffffa080404c:	00000000 	nop
ffffffffa0804050:	afc20020 	sw	v0,32(s8)
ffffffffa0804054:	0c200361 	jal	ffffffffa0800d84 <alloc_block>
ffffffffa0804058:	00000000 	nop
ffffffffa080405c:	afc20024 	sw	v0,36(s8)
ffffffffa0804060:	3c020000 	lui	v0,0x0
ffffffffa0804064:	64420000 	daddiu	v0,v0,0
ffffffffa0804068:	00021438 	dsll	v0,v0,0x10
ffffffffa080406c:	6442a081 	daddiu	v0,v0,-24447
ffffffffa0804070:	00021438 	dsll	v0,v0,0x10
ffffffffa0804074:	8c431a08 	lw	v1,6664(v0)
ffffffffa0804078:	8fc40024 	lw	a0,36(s8)
ffffffffa080407c:	8fc20020 	lw	v0,32(s8)
ffffffffa0804080:	0060282d 	move	a1,v1
ffffffffa0804084:	0040302d 	move	a2,v0
ffffffffa0804088:	24070003 	li	a3,3
ffffffffa080408c:	24080001 	li	a4,1
ffffffffa0804090:	0c20052c 	jal	ffffffffa08014b0 <init_inode>
ffffffffa0804094:	00000000 	nop
ffffffffa0804098:	3c020000 	lui	v0,0x0
ffffffffa080409c:	64420000 	daddiu	v0,v0,0
ffffffffa08040a0:	00021438 	dsll	v0,v0,0x10
ffffffffa08040a4:	6442a081 	daddiu	v0,v0,-24447
ffffffffa08040a8:	00021438 	dsll	v0,v0,0x10
ffffffffa08040ac:	64421a08 	daddiu	v0,v0,6664
ffffffffa08040b0:	8c420018 	lw	v0,24(v0)
ffffffffa08040b4:	24420002 	addiu	v0,v0,2
ffffffffa08040b8:	0002103c 	dsll32	v0,v0,0x0
ffffffffa08040bc:	0002103e 	dsrl32	v0,v0,0x0
ffffffffa08040c0:	00021978 	dsll	v1,v0,0x5
ffffffffa08040c4:	3c02a800 	lui	v0,0xa800
ffffffffa08040c8:	0062102d 	daddu	v0,v1,v0
ffffffffa08040cc:	ffc20028 	sd	v0,40(s8)
ffffffffa08040d0:	3c020000 	lui	v0,0x0
ffffffffa08040d4:	64420000 	daddiu	v0,v0,0
ffffffffa08040d8:	00021438 	dsll	v0,v0,0x10
ffffffffa08040dc:	6442a081 	daddiu	v0,v0,-24447
ffffffffa08040e0:	00021438 	dsll	v0,v0,0x10
ffffffffa08040e4:	64421a08 	daddiu	v0,v0,6664
ffffffffa08040e8:	8c42001c 	lw	v0,28(v0)
ffffffffa08040ec:	0040202d 	move	a0,v0
ffffffffa08040f0:	0c20029a 	jal	ffffffffa0800a68 <read_block>
ffffffffa08040f4:	00000000 	nop
ffffffffa08040f8:	dfc20028 	ld	v0,40(s8)
ffffffffa08040fc:	8fc30020 	lw	v1,32(s8)
ffffffffa0804100:	ac430000 	sw	v1,0(v0)
ffffffffa0804104:	dfc20028 	ld	v0,40(s8)
ffffffffa0804108:	24030006 	li	v1,6
ffffffffa080410c:	ac430004 	sw	v1,4(v0)
ffffffffa0804110:	dfc20008 	ld	v0,8(s8)
ffffffffa0804114:	8c430008 	lw	v1,8(v0)
ffffffffa0804118:	dfc20028 	ld	v0,40(s8)
ffffffffa080411c:	ac430008 	sw	v1,8(v0)
ffffffffa0804120:	dfc20028 	ld	v0,40(s8)
ffffffffa0804124:	6442000c 	daddiu	v0,v0,12
ffffffffa0804128:	0040202d 	move	a0,v0
ffffffffa080412c:	dfc50048 	ld	a1,72(s8)
ffffffffa0804130:	0c20212f 	jal	ffffffffa08084bc <strcpy>
ffffffffa0804134:	00000000 	nop
ffffffffa0804138:	3c020000 	lui	v0,0x0
ffffffffa080413c:	64420000 	daddiu	v0,v0,0
ffffffffa0804140:	00021438 	dsll	v0,v0,0x10
ffffffffa0804144:	6442a081 	daddiu	v0,v0,-24447
ffffffffa0804148:	00021438 	dsll	v0,v0,0x10
ffffffffa080414c:	64421a08 	daddiu	v0,v0,6664
ffffffffa0804150:	8c42001c 	lw	v0,28(v0)
ffffffffa0804154:	0040202d 	move	a0,v0
ffffffffa0804158:	0c2002b0 	jal	ffffffffa0800ac0 <write_block>
ffffffffa080415c:	00000000 	nop
ffffffffa0804160:	3c020000 	lui	v0,0x0
ffffffffa0804164:	64420000 	daddiu	v0,v0,0
ffffffffa0804168:	00021438 	dsll	v0,v0,0x10
ffffffffa080416c:	6442a081 	daddiu	v0,v0,-24447
ffffffffa0804170:	00021438 	dsll	v0,v0,0x10
ffffffffa0804174:	64421a08 	daddiu	v0,v0,6664
ffffffffa0804178:	8c420014 	lw	v0,20(v0)
ffffffffa080417c:	24420020 	addiu	v0,v0,32
ffffffffa0804180:	0040182d 	move	v1,v0
ffffffffa0804184:	3c020000 	lui	v0,0x0
ffffffffa0804188:	64420000 	daddiu	v0,v0,0
ffffffffa080418c:	00021438 	dsll	v0,v0,0x10
ffffffffa0804190:	6442a081 	daddiu	v0,v0,-24447
ffffffffa0804194:	00021438 	dsll	v0,v0,0x10
ffffffffa0804198:	64421a08 	daddiu	v0,v0,6664
ffffffffa080419c:	ac430014 	sw	v1,20(v0)
ffffffffa08041a0:	3c020000 	lui	v0,0x0
ffffffffa08041a4:	64420000 	daddiu	v0,v0,0
ffffffffa08041a8:	00021438 	dsll	v0,v0,0x10
ffffffffa08041ac:	6442a081 	daddiu	v0,v0,-24447
ffffffffa08041b0:	00021438 	dsll	v0,v0,0x10
ffffffffa08041b4:	64421a08 	daddiu	v0,v0,6664
ffffffffa08041b8:	8c420018 	lw	v0,24(v0)
ffffffffa08041bc:	24420001 	addiu	v0,v0,1
ffffffffa08041c0:	0040182d 	move	v1,v0
ffffffffa08041c4:	3c020000 	lui	v0,0x0
ffffffffa08041c8:	64420000 	daddiu	v0,v0,0
ffffffffa08041cc:	00021438 	dsll	v0,v0,0x10
ffffffffa08041d0:	6442a081 	daddiu	v0,v0,-24447
ffffffffa08041d4:	00021438 	dsll	v0,v0,0x10
ffffffffa08041d8:	64421a08 	daddiu	v0,v0,6664
ffffffffa08041dc:	ac430018 	sw	v1,24(v0)
ffffffffa08041e0:	3c020000 	lui	v0,0x0
ffffffffa08041e4:	64420000 	daddiu	v0,v0,0
ffffffffa08041e8:	00021438 	dsll	v0,v0,0x10
ffffffffa08041ec:	6442a081 	daddiu	v0,v0,-24447
ffffffffa08041f0:	00021438 	dsll	v0,v0,0x10
ffffffffa08041f4:	64441890 	daddiu	a0,v0,6288
ffffffffa08041f8:	3c020000 	lui	v0,0x0
ffffffffa08041fc:	64420000 	daddiu	v0,v0,0
ffffffffa0804200:	00021438 	dsll	v0,v0,0x10
ffffffffa0804204:	6442a081 	daddiu	v0,v0,-24447
ffffffffa0804208:	00021438 	dsll	v0,v0,0x10
ffffffffa080420c:	64451a08 	daddiu	a1,v0,6664
ffffffffa0804210:	24060080 	li	a2,128
ffffffffa0804214:	0c20206a 	jal	ffffffffa08081a8 <memcpy>
ffffffffa0804218:	00000000 	nop
ffffffffa080421c:	3c020000 	lui	v0,0x0
ffffffffa0804220:	64420000 	daddiu	v0,v0,0
ffffffffa0804224:	00021438 	dsll	v0,v0,0x10
ffffffffa0804228:	6442a081 	daddiu	v0,v0,-24447
ffffffffa080422c:	00021438 	dsll	v0,v0,0x10
ffffffffa0804230:	8c421a08 	lw	v0,6664(v0)
ffffffffa0804234:	0040202d 	move	a0,v0
ffffffffa0804238:	0c20025b 	jal	ffffffffa080096c <write_inode>
ffffffffa080423c:	00000000 	nop
ffffffffa0804240:	8fc20024 	lw	v0,36(s8)
ffffffffa0804244:	0040202d 	move	a0,v0
ffffffffa0804248:	0c20029a 	jal	ffffffffa0800a68 <read_block>
ffffffffa080424c:	00000000 	nop
ffffffffa0804250:	3c02a800 	lui	v0,0xa800
ffffffffa0804254:	ffc20030 	sd	v0,48(s8)
ffffffffa0804258:	8fc30010 	lw	v1,16(s8)
ffffffffa080425c:	dfc20030 	ld	v0,48(s8)
ffffffffa0804260:	ac430000 	sw	v1,0(v0)
ffffffffa0804264:	8fc20024 	lw	v0,36(s8)
ffffffffa0804268:	0040202d 	move	a0,v0
ffffffffa080426c:	0c2002b0 	jal	ffffffffa0800ac0 <write_block>
ffffffffa0804270:	00000000 	nop
ffffffffa0804274:	0000102d 	move	v0,zero
ffffffffa0804278:	08201124 	j	ffffffffa0804490 <do_link+0x514>
ffffffffa080427c:	00000000 	nop
ffffffffa0804280:	dfc20008 	ld	v0,8(s8)
ffffffffa0804284:	8c430004 	lw	v1,4(v0)
ffffffffa0804288:	24020002 	li	v0,2
ffffffffa080428c:	1462000e 	bne	v1,v0,ffffffffa08042c8 <do_link+0x34c>
ffffffffa0804290:	00000000 	nop
ffffffffa0804294:	dfc20008 	ld	v0,8(s8)
ffffffffa0804298:	6443000c 	daddiu	v1,v0,12
ffffffffa080429c:	3c020000 	lui	v0,0x0
ffffffffa08042a0:	64420000 	daddiu	v0,v0,0
ffffffffa08042a4:	00021438 	dsll	v0,v0,0x10
ffffffffa08042a8:	6442a081 	daddiu	v0,v0,-24447
ffffffffa08042ac:	00021438 	dsll	v0,v0,0x10
ffffffffa08042b0:	6444ac90 	daddiu	a0,v0,-21360
ffffffffa08042b4:	0060282d 	move	a1,v1
ffffffffa08042b8:	0c2023af 	jal	ffffffffa0808ebc <kprintf>
ffffffffa08042bc:	00000000 	nop
ffffffffa08042c0:	08201124 	j	ffffffffa0804490 <do_link+0x514>
ffffffffa08042c4:	00000000 	nop
ffffffffa08042c8:	3c020000 	lui	v0,0x0
ffffffffa08042cc:	64420000 	daddiu	v0,v0,0
ffffffffa08042d0:	00021438 	dsll	v0,v0,0x10
ffffffffa08042d4:	6442a081 	daddiu	v0,v0,-24447
ffffffffa08042d8:	00021438 	dsll	v0,v0,0x10
ffffffffa08042dc:	64421a08 	daddiu	v0,v0,6664
ffffffffa08042e0:	8c420018 	lw	v0,24(v0)
ffffffffa08042e4:	24420002 	addiu	v0,v0,2
ffffffffa08042e8:	0002103c 	dsll32	v0,v0,0x0
ffffffffa08042ec:	0002103e 	dsrl32	v0,v0,0x0
ffffffffa08042f0:	00021978 	dsll	v1,v0,0x5
ffffffffa08042f4:	3c02a800 	lui	v0,0xa800
ffffffffa08042f8:	0062102d 	daddu	v0,v1,v0
ffffffffa08042fc:	ffc20018 	sd	v0,24(s8)
ffffffffa0804300:	8fc30010 	lw	v1,16(s8)
ffffffffa0804304:	dfc20018 	ld	v0,24(s8)
ffffffffa0804308:	ac430000 	sw	v1,0(v0)
ffffffffa080430c:	dfc20008 	ld	v0,8(s8)
ffffffffa0804310:	8c430004 	lw	v1,4(v0)
ffffffffa0804314:	dfc20018 	ld	v0,24(s8)
ffffffffa0804318:	ac430004 	sw	v1,4(v0)
ffffffffa080431c:	dfc20008 	ld	v0,8(s8)
ffffffffa0804320:	8c430008 	lw	v1,8(v0)
ffffffffa0804324:	dfc20018 	ld	v0,24(s8)
ffffffffa0804328:	ac430008 	sw	v1,8(v0)
ffffffffa080432c:	dfc20018 	ld	v0,24(s8)
ffffffffa0804330:	6442000c 	daddiu	v0,v0,12
ffffffffa0804334:	0040202d 	move	a0,v0
ffffffffa0804338:	dfc50048 	ld	a1,72(s8)
ffffffffa080433c:	0c20212f 	jal	ffffffffa08084bc <strcpy>
ffffffffa0804340:	00000000 	nop
ffffffffa0804344:	3c020000 	lui	v0,0x0
ffffffffa0804348:	64420000 	daddiu	v0,v0,0
ffffffffa080434c:	00021438 	dsll	v0,v0,0x10
ffffffffa0804350:	6442a081 	daddiu	v0,v0,-24447
ffffffffa0804354:	00021438 	dsll	v0,v0,0x10
ffffffffa0804358:	64421a08 	daddiu	v0,v0,6664
ffffffffa080435c:	8c42001c 	lw	v0,28(v0)
ffffffffa0804360:	0040202d 	move	a0,v0
ffffffffa0804364:	0c2002b0 	jal	ffffffffa0800ac0 <write_block>
ffffffffa0804368:	00000000 	nop
ffffffffa080436c:	3c020000 	lui	v0,0x0
ffffffffa0804370:	64420000 	daddiu	v0,v0,0
ffffffffa0804374:	00021438 	dsll	v0,v0,0x10
ffffffffa0804378:	6442a081 	daddiu	v0,v0,-24447
ffffffffa080437c:	00021438 	dsll	v0,v0,0x10
ffffffffa0804380:	64421a08 	daddiu	v0,v0,6664
ffffffffa0804384:	8c420014 	lw	v0,20(v0)
ffffffffa0804388:	24420020 	addiu	v0,v0,32
ffffffffa080438c:	0040182d 	move	v1,v0
ffffffffa0804390:	3c020000 	lui	v0,0x0
ffffffffa0804394:	64420000 	daddiu	v0,v0,0
ffffffffa0804398:	00021438 	dsll	v0,v0,0x10
ffffffffa080439c:	6442a081 	daddiu	v0,v0,-24447
ffffffffa08043a0:	00021438 	dsll	v0,v0,0x10
ffffffffa08043a4:	64421a08 	daddiu	v0,v0,6664
ffffffffa08043a8:	ac430014 	sw	v1,20(v0)
ffffffffa08043ac:	3c020000 	lui	v0,0x0
ffffffffa08043b0:	64420000 	daddiu	v0,v0,0
ffffffffa08043b4:	00021438 	dsll	v0,v0,0x10
ffffffffa08043b8:	6442a081 	daddiu	v0,v0,-24447
ffffffffa08043bc:	00021438 	dsll	v0,v0,0x10
ffffffffa08043c0:	64421a08 	daddiu	v0,v0,6664
ffffffffa08043c4:	8c420018 	lw	v0,24(v0)
ffffffffa08043c8:	24420001 	addiu	v0,v0,1
ffffffffa08043cc:	0040182d 	move	v1,v0
ffffffffa08043d0:	3c020000 	lui	v0,0x0
ffffffffa08043d4:	64420000 	daddiu	v0,v0,0
ffffffffa08043d8:	00021438 	dsll	v0,v0,0x10
ffffffffa08043dc:	6442a081 	daddiu	v0,v0,-24447
ffffffffa08043e0:	00021438 	dsll	v0,v0,0x10
ffffffffa08043e4:	64421a08 	daddiu	v0,v0,6664
ffffffffa08043e8:	ac430018 	sw	v1,24(v0)
ffffffffa08043ec:	3c020000 	lui	v0,0x0
ffffffffa08043f0:	64420000 	daddiu	v0,v0,0
ffffffffa08043f4:	00021438 	dsll	v0,v0,0x10
ffffffffa08043f8:	6442a081 	daddiu	v0,v0,-24447
ffffffffa08043fc:	00021438 	dsll	v0,v0,0x10
ffffffffa0804400:	64421a08 	daddiu	v0,v0,6664
ffffffffa0804404:	8c420010 	lw	v0,16(v0)
ffffffffa0804408:	24420001 	addiu	v0,v0,1
ffffffffa080440c:	0040182d 	move	v1,v0
ffffffffa0804410:	3c020000 	lui	v0,0x0
ffffffffa0804414:	64420000 	daddiu	v0,v0,0
ffffffffa0804418:	00021438 	dsll	v0,v0,0x10
ffffffffa080441c:	6442a081 	daddiu	v0,v0,-24447
ffffffffa0804420:	00021438 	dsll	v0,v0,0x10
ffffffffa0804424:	64421a08 	daddiu	v0,v0,6664
ffffffffa0804428:	ac430010 	sw	v1,16(v0)
ffffffffa080442c:	3c020000 	lui	v0,0x0
ffffffffa0804430:	64420000 	daddiu	v0,v0,0
ffffffffa0804434:	00021438 	dsll	v0,v0,0x10
ffffffffa0804438:	6442a081 	daddiu	v0,v0,-24447
ffffffffa080443c:	00021438 	dsll	v0,v0,0x10
ffffffffa0804440:	64441890 	daddiu	a0,v0,6288
ffffffffa0804444:	3c020000 	lui	v0,0x0
ffffffffa0804448:	64420000 	daddiu	v0,v0,0
ffffffffa080444c:	00021438 	dsll	v0,v0,0x10
ffffffffa0804450:	6442a081 	daddiu	v0,v0,-24447
ffffffffa0804454:	00021438 	dsll	v0,v0,0x10
ffffffffa0804458:	64451a08 	daddiu	a1,v0,6664
ffffffffa080445c:	24060080 	li	a2,128
ffffffffa0804460:	0c20206a 	jal	ffffffffa08081a8 <memcpy>
ffffffffa0804464:	00000000 	nop
ffffffffa0804468:	3c020000 	lui	v0,0x0
ffffffffa080446c:	64420000 	daddiu	v0,v0,0
ffffffffa0804470:	00021438 	dsll	v0,v0,0x10
ffffffffa0804474:	6442a081 	daddiu	v0,v0,-24447
ffffffffa0804478:	00021438 	dsll	v0,v0,0x10
ffffffffa080447c:	8c421a08 	lw	v0,6664(v0)
ffffffffa0804480:	0040202d 	move	a0,v0
ffffffffa0804484:	0c20025b 	jal	ffffffffa080096c <write_inode>
ffffffffa0804488:	00000000 	nop
ffffffffa080448c:	0000102d 	move	v0,zero
ffffffffa0804490:	03c0e82d 	move	sp,s8
ffffffffa0804494:	dfbf0068 	ld	ra,104(sp)
ffffffffa0804498:	dfbe0060 	ld	s8,96(sp)
ffffffffa080449c:	67bd0070 	daddiu	sp,sp,112
ffffffffa08044a0:	03e00008 	jr	ra
ffffffffa08044a4:	00000000 	nop

ffffffffa08044a8 <read_super_block>:
ffffffffa08044a8:	67bdfff0 	daddiu	sp,sp,-16
ffffffffa08044ac:	ffbf0008 	sd	ra,8(sp)
ffffffffa08044b0:	ffbe0000 	sd	s8,0(sp)
ffffffffa08044b4:	03a0f02d 	move	s8,sp
ffffffffa08044b8:	3c020000 	lui	v0,0x0
ffffffffa08044bc:	64420000 	daddiu	v0,v0,0
ffffffffa08044c0:	00021438 	dsll	v0,v0,0x10
ffffffffa08044c4:	6442a081 	daddiu	v0,v0,-24447
ffffffffa08044c8:	00021438 	dsll	v0,v0,0x10
ffffffffa08044cc:	dc42b700 	ld	v0,-18688(v0)
ffffffffa08044d0:	0040202d 	move	a0,v0
ffffffffa08044d4:	3c052000 	lui	a1,0x2000
ffffffffa08044d8:	24061000 	li	a2,4096
ffffffffa08044dc:	0c200164 	jal	ffffffffa0800590 <sd_card_read>
ffffffffa08044e0:	00000000 	nop
ffffffffa08044e4:	3c020000 	lui	v0,0x0
ffffffffa08044e8:	64420000 	daddiu	v0,v0,0
ffffffffa08044ec:	00021438 	dsll	v0,v0,0x10
ffffffffa08044f0:	6442a081 	daddiu	v0,v0,-24447
ffffffffa08044f4:	00021438 	dsll	v0,v0,0x10
ffffffffa08044f8:	dc42b700 	ld	v0,-18688(v0)
ffffffffa08044fc:	8c430000 	lw	v1,0(v0)
ffffffffa0804500:	3c026666 	lui	v0,0x6666
ffffffffa0804504:	34426666 	ori	v0,v0,0x6666
ffffffffa0804508:	14620015 	bne	v1,v0,ffffffffa0804560 <read_super_block+0xb8>
ffffffffa080450c:	00000000 	nop
ffffffffa0804510:	0000202d 	move	a0,zero
ffffffffa0804514:	0c20022a 	jal	ffffffffa08008a8 <read_inode>
ffffffffa0804518:	00000000 	nop
ffffffffa080451c:	3c020000 	lui	v0,0x0
ffffffffa0804520:	64420000 	daddiu	v0,v0,0
ffffffffa0804524:	00021438 	dsll	v0,v0,0x10
ffffffffa0804528:	6442a081 	daddiu	v0,v0,-24447
ffffffffa080452c:	00021438 	dsll	v0,v0,0x10
ffffffffa0804530:	64441a08 	daddiu	a0,v0,6664
ffffffffa0804534:	3c020000 	lui	v0,0x0
ffffffffa0804538:	64420000 	daddiu	v0,v0,0
ffffffffa080453c:	00021438 	dsll	v0,v0,0x10
ffffffffa0804540:	6442a081 	daddiu	v0,v0,-24447
ffffffffa0804544:	00021438 	dsll	v0,v0,0x10
ffffffffa0804548:	64451890 	daddiu	a1,v0,6288
ffffffffa080454c:	24060080 	li	a2,128
ffffffffa0804550:	0c20206a 	jal	ffffffffa08081a8 <memcpy>
ffffffffa0804554:	00000000 	nop
ffffffffa0804558:	0820115a 	j	ffffffffa0804568 <read_super_block+0xc0>
ffffffffa080455c:	00000000 	nop
ffffffffa0804560:	0c201233 	jal	ffffffffa08048cc <init_fs>
ffffffffa0804564:	00000000 	nop
ffffffffa0804568:	03c0e82d 	move	sp,s8
ffffffffa080456c:	dfbf0008 	ld	ra,8(sp)
ffffffffa0804570:	dfbe0000 	ld	s8,0(sp)
ffffffffa0804574:	67bd0010 	daddiu	sp,sp,16
ffffffffa0804578:	03e00008 	jr	ra
ffffffffa080457c:	00000000 	nop

ffffffffa0804580 <print_fs_info>:
ffffffffa0804580:	67bdfff0 	daddiu	sp,sp,-16
ffffffffa0804584:	ffbf0008 	sd	ra,8(sp)
ffffffffa0804588:	ffbe0000 	sd	s8,0(sp)
ffffffffa080458c:	03a0f02d 	move	s8,sp
ffffffffa0804590:	3c020000 	lui	v0,0x0
ffffffffa0804594:	64420000 	daddiu	v0,v0,0
ffffffffa0804598:	00021438 	dsll	v0,v0,0x10
ffffffffa080459c:	6442a081 	daddiu	v0,v0,-24447
ffffffffa08045a0:	00021438 	dsll	v0,v0,0x10
ffffffffa08045a4:	dc42b700 	ld	v0,-18688(v0)
ffffffffa08045a8:	0040202d 	move	a0,v0
ffffffffa08045ac:	3c052000 	lui	a1,0x2000
ffffffffa08045b0:	24061000 	li	a2,4096
ffffffffa08045b4:	0c200164 	jal	ffffffffa0800590 <sd_card_read>
ffffffffa08045b8:	00000000 	nop
ffffffffa08045bc:	3c020000 	lui	v0,0x0
ffffffffa08045c0:	64420000 	daddiu	v0,v0,0
ffffffffa08045c4:	00021438 	dsll	v0,v0,0x10
ffffffffa08045c8:	6442a081 	daddiu	v0,v0,-24447
ffffffffa08045cc:	00021438 	dsll	v0,v0,0x10
ffffffffa08045d0:	dc42b700 	ld	v0,-18688(v0)
ffffffffa08045d4:	8c430000 	lw	v1,0(v0)
ffffffffa08045d8:	3c020000 	lui	v0,0x0
ffffffffa08045dc:	64420000 	daddiu	v0,v0,0
ffffffffa08045e0:	00021438 	dsll	v0,v0,0x10
ffffffffa08045e4:	6442a081 	daddiu	v0,v0,-24447
ffffffffa08045e8:	00021438 	dsll	v0,v0,0x10
ffffffffa08045ec:	6444acc0 	daddiu	a0,v0,-21312
ffffffffa08045f0:	0060282d 	move	a1,v1
ffffffffa08045f4:	0c2023af 	jal	ffffffffa0808ebc <kprintf>
ffffffffa08045f8:	00000000 	nop
ffffffffa08045fc:	3c020000 	lui	v0,0x0
ffffffffa0804600:	64420000 	daddiu	v0,v0,0
ffffffffa0804604:	00021438 	dsll	v0,v0,0x10
ffffffffa0804608:	6442a081 	daddiu	v0,v0,-24447
ffffffffa080460c:	00021438 	dsll	v0,v0,0x10
ffffffffa0804610:	dc42b700 	ld	v0,-18688(v0)
ffffffffa0804614:	8c45000c 	lw	a1,12(v0)
ffffffffa0804618:	3c020000 	lui	v0,0x0
ffffffffa080461c:	64420000 	daddiu	v0,v0,0
ffffffffa0804620:	00021438 	dsll	v0,v0,0x10
ffffffffa0804624:	6442a081 	daddiu	v0,v0,-24447
ffffffffa0804628:	00021438 	dsll	v0,v0,0x10
ffffffffa080462c:	dc42b700 	ld	v0,-18688(v0)
ffffffffa0804630:	8c420004 	lw	v0,4(v0)
ffffffffa0804634:	00021302 	srl	v0,v0,0xc
ffffffffa0804638:	0040302d 	move	a2,v0
ffffffffa080463c:	3c020000 	lui	v0,0x0
ffffffffa0804640:	64420000 	daddiu	v0,v0,0
ffffffffa0804644:	00021438 	dsll	v0,v0,0x10
ffffffffa0804648:	6442a081 	daddiu	v0,v0,-24447
ffffffffa080464c:	00021438 	dsll	v0,v0,0x10
ffffffffa0804650:	dc42b700 	ld	v0,-18688(v0)
ffffffffa0804654:	8c420004 	lw	v0,4(v0)
ffffffffa0804658:	00021302 	srl	v0,v0,0xc
ffffffffa080465c:	0040182d 	move	v1,v0
ffffffffa0804660:	3c020000 	lui	v0,0x0
ffffffffa0804664:	64420000 	daddiu	v0,v0,0
ffffffffa0804668:	00021438 	dsll	v0,v0,0x10
ffffffffa080466c:	6442a081 	daddiu	v0,v0,-24447
ffffffffa0804670:	00021438 	dsll	v0,v0,0x10
ffffffffa0804674:	6444acd8 	daddiu	a0,v0,-21288
ffffffffa0804678:	0060382d 	move	a3,v1
ffffffffa080467c:	3c082000 	lui	a4,0x2000
ffffffffa0804680:	0c2023af 	jal	ffffffffa0808ebc <kprintf>
ffffffffa0804684:	00000000 	nop
ffffffffa0804688:	3c020000 	lui	v0,0x0
ffffffffa080468c:	64420000 	daddiu	v0,v0,0
ffffffffa0804690:	00021438 	dsll	v0,v0,0x10
ffffffffa0804694:	6442a081 	daddiu	v0,v0,-24447
ffffffffa0804698:	00021438 	dsll	v0,v0,0x10
ffffffffa080469c:	dc42b700 	ld	v0,-18688(v0)
ffffffffa08046a0:	8c430010 	lw	v1,16(v0)
ffffffffa08046a4:	3c02e000 	lui	v0,0xe000
ffffffffa08046a8:	00621021 	addu	v0,v1,v0
ffffffffa08046ac:	00021302 	srl	v0,v0,0xc
ffffffffa08046b0:	0040282d 	move	a1,v0
ffffffffa08046b4:	3c020000 	lui	v0,0x0
ffffffffa08046b8:	64420000 	daddiu	v0,v0,0
ffffffffa08046bc:	00021438 	dsll	v0,v0,0x10
ffffffffa08046c0:	6442a081 	daddiu	v0,v0,-24447
ffffffffa08046c4:	00021438 	dsll	v0,v0,0x10
ffffffffa08046c8:	dc42b700 	ld	v0,-18688(v0)
ffffffffa08046cc:	8c420014 	lw	v0,20(v0)
ffffffffa08046d0:	00021302 	srl	v0,v0,0xc
ffffffffa08046d4:	0040182d 	move	v1,v0
ffffffffa08046d8:	3c020000 	lui	v0,0x0
ffffffffa08046dc:	64420000 	daddiu	v0,v0,0
ffffffffa08046e0:	00021438 	dsll	v0,v0,0x10
ffffffffa08046e4:	6442a081 	daddiu	v0,v0,-24447
ffffffffa08046e8:	00021438 	dsll	v0,v0,0x10
ffffffffa08046ec:	6444ad08 	daddiu	a0,v0,-21240
ffffffffa08046f0:	0060302d 	move	a2,v1
ffffffffa08046f4:	0c2023af 	jal	ffffffffa0808ebc <kprintf>
ffffffffa08046f8:	00000000 	nop
ffffffffa08046fc:	3c020000 	lui	v0,0x0
ffffffffa0804700:	64420000 	daddiu	v0,v0,0
ffffffffa0804704:	00021438 	dsll	v0,v0,0x10
ffffffffa0804708:	6442a081 	daddiu	v0,v0,-24447
ffffffffa080470c:	00021438 	dsll	v0,v0,0x10
ffffffffa0804710:	dc42b700 	ld	v0,-18688(v0)
ffffffffa0804714:	8c430018 	lw	v1,24(v0)
ffffffffa0804718:	3c02e000 	lui	v0,0xe000
ffffffffa080471c:	00621021 	addu	v0,v1,v0
ffffffffa0804720:	00021302 	srl	v0,v0,0xc
ffffffffa0804724:	0040282d 	move	a1,v0
ffffffffa0804728:	3c020000 	lui	v0,0x0
ffffffffa080472c:	64420000 	daddiu	v0,v0,0
ffffffffa0804730:	00021438 	dsll	v0,v0,0x10
ffffffffa0804734:	6442a081 	daddiu	v0,v0,-24447
ffffffffa0804738:	00021438 	dsll	v0,v0,0x10
ffffffffa080473c:	dc42b700 	ld	v0,-18688(v0)
ffffffffa0804740:	8c42001c 	lw	v0,28(v0)
ffffffffa0804744:	00021302 	srl	v0,v0,0xc
ffffffffa0804748:	0040182d 	move	v1,v0
ffffffffa080474c:	3c020000 	lui	v0,0x0
ffffffffa0804750:	64420000 	daddiu	v0,v0,0
ffffffffa0804754:	00021438 	dsll	v0,v0,0x10
ffffffffa0804758:	6442a081 	daddiu	v0,v0,-24447
ffffffffa080475c:	00021438 	dsll	v0,v0,0x10
ffffffffa0804760:	6444ad38 	daddiu	a0,v0,-21192
ffffffffa0804764:	0060302d 	move	a2,v1
ffffffffa0804768:	0c2023af 	jal	ffffffffa0808ebc <kprintf>
ffffffffa080476c:	00000000 	nop
ffffffffa0804770:	3c020000 	lui	v0,0x0
ffffffffa0804774:	64420000 	daddiu	v0,v0,0
ffffffffa0804778:	00021438 	dsll	v0,v0,0x10
ffffffffa080477c:	6442a081 	daddiu	v0,v0,-24447
ffffffffa0804780:	00021438 	dsll	v0,v0,0x10
ffffffffa0804784:	dc42b700 	ld	v0,-18688(v0)
ffffffffa0804788:	8c430020 	lw	v1,32(v0)
ffffffffa080478c:	3c02e000 	lui	v0,0xe000
ffffffffa0804790:	00621021 	addu	v0,v1,v0
ffffffffa0804794:	00021302 	srl	v0,v0,0xc
ffffffffa0804798:	0040282d 	move	a1,v0
ffffffffa080479c:	3c020000 	lui	v0,0x0
ffffffffa08047a0:	64420000 	daddiu	v0,v0,0
ffffffffa08047a4:	00021438 	dsll	v0,v0,0x10
ffffffffa08047a8:	6442a081 	daddiu	v0,v0,-24447
ffffffffa08047ac:	00021438 	dsll	v0,v0,0x10
ffffffffa08047b0:	dc42b700 	ld	v0,-18688(v0)
ffffffffa08047b4:	8c420024 	lw	v0,36(v0)
ffffffffa08047b8:	00021302 	srl	v0,v0,0xc
ffffffffa08047bc:	0040182d 	move	v1,v0
ffffffffa08047c0:	3c020000 	lui	v0,0x0
ffffffffa08047c4:	64420000 	daddiu	v0,v0,0
ffffffffa08047c8:	00021438 	dsll	v0,v0,0x10
ffffffffa08047cc:	6442a081 	daddiu	v0,v0,-24447
ffffffffa08047d0:	00021438 	dsll	v0,v0,0x10
ffffffffa08047d4:	6444ad68 	daddiu	a0,v0,-21144
ffffffffa08047d8:	0060302d 	move	a2,v1
ffffffffa08047dc:	0c2023af 	jal	ffffffffa0808ebc <kprintf>
ffffffffa08047e0:	00000000 	nop
ffffffffa08047e4:	3c020000 	lui	v0,0x0
ffffffffa08047e8:	64420000 	daddiu	v0,v0,0
ffffffffa08047ec:	00021438 	dsll	v0,v0,0x10
ffffffffa08047f0:	6442a081 	daddiu	v0,v0,-24447
ffffffffa08047f4:	00021438 	dsll	v0,v0,0x10
ffffffffa08047f8:	dc42b700 	ld	v0,-18688(v0)
ffffffffa08047fc:	8c430028 	lw	v1,40(v0)
ffffffffa0804800:	3c02e000 	lui	v0,0xe000
ffffffffa0804804:	00621021 	addu	v0,v1,v0
ffffffffa0804808:	00021302 	srl	v0,v0,0xc
ffffffffa080480c:	0040282d 	move	a1,v0
ffffffffa0804810:	3c020000 	lui	v0,0x0
ffffffffa0804814:	64420000 	daddiu	v0,v0,0
ffffffffa0804818:	00021438 	dsll	v0,v0,0x10
ffffffffa080481c:	6442a081 	daddiu	v0,v0,-24447
ffffffffa0804820:	00021438 	dsll	v0,v0,0x10
ffffffffa0804824:	dc42b700 	ld	v0,-18688(v0)
ffffffffa0804828:	8c42002c 	lw	v0,44(v0)
ffffffffa080482c:	00021302 	srl	v0,v0,0xc
ffffffffa0804830:	0040182d 	move	v1,v0
ffffffffa0804834:	3c020000 	lui	v0,0x0
ffffffffa0804838:	64420000 	daddiu	v0,v0,0
ffffffffa080483c:	00021438 	dsll	v0,v0,0x10
ffffffffa0804840:	6442a081 	daddiu	v0,v0,-24447
ffffffffa0804844:	00021438 	dsll	v0,v0,0x10
ffffffffa0804848:	6444ad98 	daddiu	a0,v0,-21096
ffffffffa080484c:	0060302d 	move	a2,v1
ffffffffa0804850:	0c2023af 	jal	ffffffffa0808ebc <kprintf>
ffffffffa0804854:	00000000 	nop
ffffffffa0804858:	3c020000 	lui	v0,0x0
ffffffffa080485c:	64420000 	daddiu	v0,v0,0
ffffffffa0804860:	00021438 	dsll	v0,v0,0x10
ffffffffa0804864:	6442a081 	daddiu	v0,v0,-24447
ffffffffa0804868:	00021438 	dsll	v0,v0,0x10
ffffffffa080486c:	dc42b700 	ld	v0,-18688(v0)
ffffffffa0804870:	8c450030 	lw	a1,48(v0)
ffffffffa0804874:	3c020000 	lui	v0,0x0
ffffffffa0804878:	64420000 	daddiu	v0,v0,0
ffffffffa080487c:	00021438 	dsll	v0,v0,0x10
ffffffffa0804880:	6442a081 	daddiu	v0,v0,-24447
ffffffffa0804884:	00021438 	dsll	v0,v0,0x10
ffffffffa0804888:	dc42b700 	ld	v0,-18688(v0)
ffffffffa080488c:	8c430034 	lw	v1,52(v0)
ffffffffa0804890:	3c020000 	lui	v0,0x0
ffffffffa0804894:	64420000 	daddiu	v0,v0,0
ffffffffa0804898:	00021438 	dsll	v0,v0,0x10
ffffffffa080489c:	6442a081 	daddiu	v0,v0,-24447
ffffffffa08048a0:	00021438 	dsll	v0,v0,0x10
ffffffffa08048a4:	6444adc0 	daddiu	a0,v0,-21056
ffffffffa08048a8:	0060302d 	move	a2,v1
ffffffffa08048ac:	0c2023af 	jal	ffffffffa0808ebc <kprintf>
ffffffffa08048b0:	00000000 	nop
ffffffffa08048b4:	03c0e82d 	move	sp,s8
ffffffffa08048b8:	dfbf0008 	ld	ra,8(sp)
ffffffffa08048bc:	dfbe0000 	ld	s8,0(sp)
ffffffffa08048c0:	67bd0010 	daddiu	sp,sp,16
ffffffffa08048c4:	03e00008 	jr	ra
ffffffffa08048c8:	00000000 	nop

ffffffffa08048cc <init_fs>:
ffffffffa08048cc:	67bdfff0 	daddiu	sp,sp,-16
ffffffffa08048d0:	ffbf0008 	sd	ra,8(sp)
ffffffffa08048d4:	ffbe0000 	sd	s8,0(sp)
ffffffffa08048d8:	03a0f02d 	move	s8,sp
ffffffffa08048dc:	3c020000 	lui	v0,0x0
ffffffffa08048e0:	64420000 	daddiu	v0,v0,0
ffffffffa08048e4:	00021438 	dsll	v0,v0,0x10
ffffffffa08048e8:	6442a081 	daddiu	v0,v0,-24447
ffffffffa08048ec:	00021438 	dsll	v0,v0,0x10
ffffffffa08048f0:	6444adf0 	daddiu	a0,v0,-21008
ffffffffa08048f4:	0c2023af 	jal	ffffffffa0808ebc <kprintf>
ffffffffa08048f8:	00000000 	nop
ffffffffa08048fc:	0c20040e 	jal	ffffffffa0801038 <init_superblock>
ffffffffa0804900:	00000000 	nop
ffffffffa0804904:	3c020000 	lui	v0,0x0
ffffffffa0804908:	64420000 	daddiu	v0,v0,0
ffffffffa080490c:	00021438 	dsll	v0,v0,0x10
ffffffffa0804910:	6442a081 	daddiu	v0,v0,-24447
ffffffffa0804914:	00021438 	dsll	v0,v0,0x10
ffffffffa0804918:	6444ae20 	daddiu	a0,v0,-20960
ffffffffa080491c:	0c2023af 	jal	ffffffffa0808ebc <kprintf>
ffffffffa0804920:	00000000 	nop
ffffffffa0804924:	3c020000 	lui	v0,0x0
ffffffffa0804928:	64420000 	daddiu	v0,v0,0
ffffffffa080492c:	00021438 	dsll	v0,v0,0x10
ffffffffa0804930:	6442a081 	daddiu	v0,v0,-24447
ffffffffa0804934:	00021438 	dsll	v0,v0,0x10
ffffffffa0804938:	dc42b700 	ld	v0,-18688(v0)
ffffffffa080493c:	8c430000 	lw	v1,0(v0)
ffffffffa0804940:	3c020000 	lui	v0,0x0
ffffffffa0804944:	64420000 	daddiu	v0,v0,0
ffffffffa0804948:	00021438 	dsll	v0,v0,0x10
ffffffffa080494c:	6442a081 	daddiu	v0,v0,-24447
ffffffffa0804950:	00021438 	dsll	v0,v0,0x10
ffffffffa0804954:	6444ae40 	daddiu	a0,v0,-20928
ffffffffa0804958:	0060282d 	move	a1,v1
ffffffffa080495c:	0c2023af 	jal	ffffffffa0808ebc <kprintf>
ffffffffa0804960:	00000000 	nop
ffffffffa0804964:	3c020000 	lui	v0,0x0
ffffffffa0804968:	64420000 	daddiu	v0,v0,0
ffffffffa080496c:	00021438 	dsll	v0,v0,0x10
ffffffffa0804970:	6442a081 	daddiu	v0,v0,-24447
ffffffffa0804974:	00021438 	dsll	v0,v0,0x10
ffffffffa0804978:	dc42b700 	ld	v0,-18688(v0)
ffffffffa080497c:	8c450008 	lw	a1,8(v0)
ffffffffa0804980:	3c020000 	lui	v0,0x0
ffffffffa0804984:	64420000 	daddiu	v0,v0,0
ffffffffa0804988:	00021438 	dsll	v0,v0,0x10
ffffffffa080498c:	6442a081 	daddiu	v0,v0,-24447
ffffffffa0804990:	00021438 	dsll	v0,v0,0x10
ffffffffa0804994:	dc42b700 	ld	v0,-18688(v0)
ffffffffa0804998:	8c420004 	lw	v0,4(v0)
ffffffffa080499c:	00021302 	srl	v0,v0,0xc
ffffffffa08049a0:	0040182d 	move	v1,v0
ffffffffa08049a4:	3c020000 	lui	v0,0x0
ffffffffa08049a8:	64420000 	daddiu	v0,v0,0
ffffffffa08049ac:	00021438 	dsll	v0,v0,0x10
ffffffffa08049b0:	6442a081 	daddiu	v0,v0,-24447
ffffffffa08049b4:	00021438 	dsll	v0,v0,0x10
ffffffffa08049b8:	6444ae58 	daddiu	a0,v0,-20904
ffffffffa08049bc:	0060302d 	move	a2,v1
ffffffffa08049c0:	0c2023af 	jal	ffffffffa0808ebc <kprintf>
ffffffffa08049c4:	00000000 	nop
ffffffffa08049c8:	3c020000 	lui	v0,0x0
ffffffffa08049cc:	64420000 	daddiu	v0,v0,0
ffffffffa08049d0:	00021438 	dsll	v0,v0,0x10
ffffffffa08049d4:	6442a081 	daddiu	v0,v0,-24447
ffffffffa08049d8:	00021438 	dsll	v0,v0,0x10
ffffffffa08049dc:	dc42b700 	ld	v0,-18688(v0)
ffffffffa08049e0:	8c430010 	lw	v1,16(v0)
ffffffffa08049e4:	3c02e000 	lui	v0,0xe000
ffffffffa08049e8:	00621021 	addu	v0,v1,v0
ffffffffa08049ec:	00021302 	srl	v0,v0,0xc
ffffffffa08049f0:	0040282d 	move	a1,v0
ffffffffa08049f4:	3c020000 	lui	v0,0x0
ffffffffa08049f8:	64420000 	daddiu	v0,v0,0
ffffffffa08049fc:	00021438 	dsll	v0,v0,0x10
ffffffffa0804a00:	6442a081 	daddiu	v0,v0,-24447
ffffffffa0804a04:	00021438 	dsll	v0,v0,0x10
ffffffffa0804a08:	dc42b700 	ld	v0,-18688(v0)
ffffffffa0804a0c:	8c420014 	lw	v0,20(v0)
ffffffffa0804a10:	00021302 	srl	v0,v0,0xc
ffffffffa0804a14:	0040182d 	move	v1,v0
ffffffffa0804a18:	3c020000 	lui	v0,0x0
ffffffffa0804a1c:	64420000 	daddiu	v0,v0,0
ffffffffa0804a20:	00021438 	dsll	v0,v0,0x10
ffffffffa0804a24:	6442a081 	daddiu	v0,v0,-24447
ffffffffa0804a28:	00021438 	dsll	v0,v0,0x10
ffffffffa0804a2c:	6444ae88 	daddiu	a0,v0,-20856
ffffffffa0804a30:	0060302d 	move	a2,v1
ffffffffa0804a34:	0c2023af 	jal	ffffffffa0808ebc <kprintf>
ffffffffa0804a38:	00000000 	nop
ffffffffa0804a3c:	3c020000 	lui	v0,0x0
ffffffffa0804a40:	64420000 	daddiu	v0,v0,0
ffffffffa0804a44:	00021438 	dsll	v0,v0,0x10
ffffffffa0804a48:	6442a081 	daddiu	v0,v0,-24447
ffffffffa0804a4c:	00021438 	dsll	v0,v0,0x10
ffffffffa0804a50:	dc42b700 	ld	v0,-18688(v0)
ffffffffa0804a54:	8c430018 	lw	v1,24(v0)
ffffffffa0804a58:	3c02e000 	lui	v0,0xe000
ffffffffa0804a5c:	00621021 	addu	v0,v1,v0
ffffffffa0804a60:	00021302 	srl	v0,v0,0xc
ffffffffa0804a64:	0040282d 	move	a1,v0
ffffffffa0804a68:	3c020000 	lui	v0,0x0
ffffffffa0804a6c:	64420000 	daddiu	v0,v0,0
ffffffffa0804a70:	00021438 	dsll	v0,v0,0x10
ffffffffa0804a74:	6442a081 	daddiu	v0,v0,-24447
ffffffffa0804a78:	00021438 	dsll	v0,v0,0x10
ffffffffa0804a7c:	dc42b700 	ld	v0,-18688(v0)
ffffffffa0804a80:	8c42001c 	lw	v0,28(v0)
ffffffffa0804a84:	00021302 	srl	v0,v0,0xc
ffffffffa0804a88:	0040182d 	move	v1,v0
ffffffffa0804a8c:	3c020000 	lui	v0,0x0
ffffffffa0804a90:	64420000 	daddiu	v0,v0,0
ffffffffa0804a94:	00021438 	dsll	v0,v0,0x10
ffffffffa0804a98:	6442a081 	daddiu	v0,v0,-24447
ffffffffa0804a9c:	00021438 	dsll	v0,v0,0x10
ffffffffa0804aa0:	6444aeb0 	daddiu	a0,v0,-20816
ffffffffa0804aa4:	0060302d 	move	a2,v1
ffffffffa0804aa8:	0c2023af 	jal	ffffffffa0808ebc <kprintf>
ffffffffa0804aac:	00000000 	nop
ffffffffa0804ab0:	3c020000 	lui	v0,0x0
ffffffffa0804ab4:	64420000 	daddiu	v0,v0,0
ffffffffa0804ab8:	00021438 	dsll	v0,v0,0x10
ffffffffa0804abc:	6442a081 	daddiu	v0,v0,-24447
ffffffffa0804ac0:	00021438 	dsll	v0,v0,0x10
ffffffffa0804ac4:	dc42b700 	ld	v0,-18688(v0)
ffffffffa0804ac8:	8c430020 	lw	v1,32(v0)
ffffffffa0804acc:	3c02e000 	lui	v0,0xe000
ffffffffa0804ad0:	00621021 	addu	v0,v1,v0
ffffffffa0804ad4:	00021302 	srl	v0,v0,0xc
ffffffffa0804ad8:	0040282d 	move	a1,v0
ffffffffa0804adc:	3c020000 	lui	v0,0x0
ffffffffa0804ae0:	64420000 	daddiu	v0,v0,0
ffffffffa0804ae4:	00021438 	dsll	v0,v0,0x10
ffffffffa0804ae8:	6442a081 	daddiu	v0,v0,-24447
ffffffffa0804aec:	00021438 	dsll	v0,v0,0x10
ffffffffa0804af0:	dc42b700 	ld	v0,-18688(v0)
ffffffffa0804af4:	8c420024 	lw	v0,36(v0)
ffffffffa0804af8:	00021302 	srl	v0,v0,0xc
ffffffffa0804afc:	0040182d 	move	v1,v0
ffffffffa0804b00:	3c020000 	lui	v0,0x0
ffffffffa0804b04:	64420000 	daddiu	v0,v0,0
ffffffffa0804b08:	00021438 	dsll	v0,v0,0x10
ffffffffa0804b0c:	6442a081 	daddiu	v0,v0,-24447
ffffffffa0804b10:	00021438 	dsll	v0,v0,0x10
ffffffffa0804b14:	6444aed8 	daddiu	a0,v0,-20776
ffffffffa0804b18:	0060302d 	move	a2,v1
ffffffffa0804b1c:	0c2023af 	jal	ffffffffa0808ebc <kprintf>
ffffffffa0804b20:	00000000 	nop
ffffffffa0804b24:	3c020000 	lui	v0,0x0
ffffffffa0804b28:	64420000 	daddiu	v0,v0,0
ffffffffa0804b2c:	00021438 	dsll	v0,v0,0x10
ffffffffa0804b30:	6442a081 	daddiu	v0,v0,-24447
ffffffffa0804b34:	00021438 	dsll	v0,v0,0x10
ffffffffa0804b38:	dc42b700 	ld	v0,-18688(v0)
ffffffffa0804b3c:	8c430028 	lw	v1,40(v0)
ffffffffa0804b40:	3c02e000 	lui	v0,0xe000
ffffffffa0804b44:	00621021 	addu	v0,v1,v0
ffffffffa0804b48:	00021302 	srl	v0,v0,0xc
ffffffffa0804b4c:	0040282d 	move	a1,v0
ffffffffa0804b50:	3c020000 	lui	v0,0x0
ffffffffa0804b54:	64420000 	daddiu	v0,v0,0
ffffffffa0804b58:	00021438 	dsll	v0,v0,0x10
ffffffffa0804b5c:	6442a081 	daddiu	v0,v0,-24447
ffffffffa0804b60:	00021438 	dsll	v0,v0,0x10
ffffffffa0804b64:	dc42b700 	ld	v0,-18688(v0)
ffffffffa0804b68:	8c42002c 	lw	v0,44(v0)
ffffffffa0804b6c:	00021302 	srl	v0,v0,0xc
ffffffffa0804b70:	0040182d 	move	v1,v0
ffffffffa0804b74:	3c020000 	lui	v0,0x0
ffffffffa0804b78:	64420000 	daddiu	v0,v0,0
ffffffffa0804b7c:	00021438 	dsll	v0,v0,0x10
ffffffffa0804b80:	6442a081 	daddiu	v0,v0,-24447
ffffffffa0804b84:	00021438 	dsll	v0,v0,0x10
ffffffffa0804b88:	6444aef8 	daddiu	a0,v0,-20744
ffffffffa0804b8c:	0060302d 	move	a2,v1
ffffffffa0804b90:	0c2023af 	jal	ffffffffa0808ebc <kprintf>
ffffffffa0804b94:	00000000 	nop
ffffffffa0804b98:	3c020000 	lui	v0,0x0
ffffffffa0804b9c:	64420000 	daddiu	v0,v0,0
ffffffffa0804ba0:	00021438 	dsll	v0,v0,0x10
ffffffffa0804ba4:	6442a081 	daddiu	v0,v0,-24447
ffffffffa0804ba8:	00021438 	dsll	v0,v0,0x10
ffffffffa0804bac:	6444af18 	daddiu	a0,v0,-20712
ffffffffa0804bb0:	0c2023af 	jal	ffffffffa0808ebc <kprintf>
ffffffffa0804bb4:	00000000 	nop
ffffffffa0804bb8:	3c020000 	lui	v0,0x0
ffffffffa0804bbc:	64420000 	daddiu	v0,v0,0
ffffffffa0804bc0:	00021438 	dsll	v0,v0,0x10
ffffffffa0804bc4:	6442a081 	daddiu	v0,v0,-24447
ffffffffa0804bc8:	00021438 	dsll	v0,v0,0x10
ffffffffa0804bcc:	6444af50 	daddiu	a0,v0,-20656
ffffffffa0804bd0:	0c2023af 	jal	ffffffffa0808ebc <kprintf>
ffffffffa0804bd4:	00000000 	nop
ffffffffa0804bd8:	0c2004c7 	jal	ffffffffa080131c <init_inodemap>
ffffffffa0804bdc:	00000000 	nop
ffffffffa0804be0:	3c020000 	lui	v0,0x0
ffffffffa0804be4:	64420000 	daddiu	v0,v0,0
ffffffffa0804be8:	00021438 	dsll	v0,v0,0x10
ffffffffa0804bec:	6442a081 	daddiu	v0,v0,-24447
ffffffffa0804bf0:	00021438 	dsll	v0,v0,0x10
ffffffffa0804bf4:	6444af70 	daddiu	a0,v0,-20624
ffffffffa0804bf8:	0c2023af 	jal	ffffffffa0808ebc <kprintf>
ffffffffa0804bfc:	00000000 	nop
ffffffffa0804c00:	0c2004dc 	jal	ffffffffa0801370 <init_blockmap>
ffffffffa0804c04:	00000000 	nop
ffffffffa0804c08:	3c020000 	lui	v0,0x0
ffffffffa0804c0c:	64420000 	daddiu	v0,v0,0
ffffffffa0804c10:	00021438 	dsll	v0,v0,0x10
ffffffffa0804c14:	6442a081 	daddiu	v0,v0,-24447
ffffffffa0804c18:	00021438 	dsll	v0,v0,0x10
ffffffffa0804c1c:	6444afa0 	daddiu	a0,v0,-20576
ffffffffa0804c20:	0c2023af 	jal	ffffffffa0808ebc <kprintf>
ffffffffa0804c24:	00000000 	nop
ffffffffa0804c28:	0c2005fe 	jal	ffffffffa08017f8 <init_rootdir>
ffffffffa0804c2c:	00000000 	nop
ffffffffa0804c30:	3c020000 	lui	v0,0x0
ffffffffa0804c34:	64420000 	daddiu	v0,v0,0
ffffffffa0804c38:	00021438 	dsll	v0,v0,0x10
ffffffffa0804c3c:	6442a081 	daddiu	v0,v0,-24447
ffffffffa0804c40:	00021438 	dsll	v0,v0,0x10
ffffffffa0804c44:	6444afd0 	daddiu	a0,v0,-20528
ffffffffa0804c48:	0c2023af 	jal	ffffffffa0808ebc <kprintf>
ffffffffa0804c4c:	00000000 	nop
ffffffffa0804c50:	03c0e82d 	move	sp,s8
ffffffffa0804c54:	dfbf0008 	ld	ra,8(sp)
ffffffffa0804c58:	dfbe0000 	ld	s8,0(sp)
ffffffffa0804c5c:	67bd0010 	daddiu	sp,sp,16
ffffffffa0804c60:	03e00008 	jr	ra
ffffffffa0804c64:	00000000 	nop
	...

ffffffffa0804c70 <vt100_move_cursor>:
ffffffffa0804c70:	67bdffe0 	daddiu	sp,sp,-32
ffffffffa0804c74:	ffbf0018 	sd	ra,24(sp)
ffffffffa0804c78:	ffbe0010 	sd	s8,16(sp)
ffffffffa0804c7c:	03a0f02d 	move	s8,sp
ffffffffa0804c80:	0080182d 	move	v1,a0
ffffffffa0804c84:	00a0102d 	move	v0,a1
ffffffffa0804c88:	00031800 	sll	v1,v1,0x0
ffffffffa0804c8c:	afc30000 	sw	v1,0(s8)
ffffffffa0804c90:	00021000 	sll	v0,v0,0x0
ffffffffa0804c94:	afc20004 	sw	v0,4(s8)
ffffffffa0804c98:	8fc60004 	lw	a2,4(s8)
ffffffffa0804c9c:	8fc30000 	lw	v1,0(s8)
ffffffffa0804ca0:	3c020000 	lui	v0,0x0
ffffffffa0804ca4:	64420000 	daddiu	v0,v0,0
ffffffffa0804ca8:	00021438 	dsll	v0,v0,0x10
ffffffffa0804cac:	6442a081 	daddiu	v0,v0,-24447
ffffffffa0804cb0:	00021438 	dsll	v0,v0,0x10
ffffffffa0804cb4:	6444b000 	daddiu	a0,v0,-20480
ffffffffa0804cb8:	2405001b 	li	a1,27
ffffffffa0804cbc:	0060382d 	move	a3,v1
ffffffffa0804cc0:	0c202363 	jal	ffffffffa0808d8c <printk>
ffffffffa0804cc4:	00000000 	nop
ffffffffa0804cc8:	03c0e82d 	move	sp,s8
ffffffffa0804ccc:	dfbf0018 	ld	ra,24(sp)
ffffffffa0804cd0:	dfbe0010 	ld	s8,16(sp)
ffffffffa0804cd4:	67bd0020 	daddiu	sp,sp,32
ffffffffa0804cd8:	03e00008 	jr	ra
ffffffffa0804cdc:	00000000 	nop

ffffffffa0804ce0 <vt100_clear>:
ffffffffa0804ce0:	67bdfff0 	daddiu	sp,sp,-16
ffffffffa0804ce4:	ffbf0008 	sd	ra,8(sp)
ffffffffa0804ce8:	ffbe0000 	sd	s8,0(sp)
ffffffffa0804cec:	03a0f02d 	move	s8,sp
ffffffffa0804cf0:	3c020000 	lui	v0,0x0
ffffffffa0804cf4:	64420000 	daddiu	v0,v0,0
ffffffffa0804cf8:	00021438 	dsll	v0,v0,0x10
ffffffffa0804cfc:	6442a081 	daddiu	v0,v0,-24447
ffffffffa0804d00:	00021438 	dsll	v0,v0,0x10
ffffffffa0804d04:	6444b010 	daddiu	a0,v0,-20464
ffffffffa0804d08:	2405001b 	li	a1,27
ffffffffa0804d0c:	0c202363 	jal	ffffffffa0808d8c <printk>
ffffffffa0804d10:	00000000 	nop
ffffffffa0804d14:	03c0e82d 	move	sp,s8
ffffffffa0804d18:	dfbf0008 	ld	ra,8(sp)
ffffffffa0804d1c:	dfbe0000 	ld	s8,0(sp)
ffffffffa0804d20:	67bd0010 	daddiu	sp,sp,16
ffffffffa0804d24:	03e00008 	jr	ra
ffffffffa0804d28:	00000000 	nop

ffffffffa0804d2c <vt100_hidden_cursor>:
ffffffffa0804d2c:	67bdfff0 	daddiu	sp,sp,-16
ffffffffa0804d30:	ffbf0008 	sd	ra,8(sp)
ffffffffa0804d34:	ffbe0000 	sd	s8,0(sp)
ffffffffa0804d38:	03a0f02d 	move	s8,sp
ffffffffa0804d3c:	3c020000 	lui	v0,0x0
ffffffffa0804d40:	64420000 	daddiu	v0,v0,0
ffffffffa0804d44:	00021438 	dsll	v0,v0,0x10
ffffffffa0804d48:	6442a081 	daddiu	v0,v0,-24447
ffffffffa0804d4c:	00021438 	dsll	v0,v0,0x10
ffffffffa0804d50:	6444b018 	daddiu	a0,v0,-20456
ffffffffa0804d54:	2405001b 	li	a1,27
ffffffffa0804d58:	0c202363 	jal	ffffffffa0808d8c <printk>
ffffffffa0804d5c:	00000000 	nop
ffffffffa0804d60:	03c0e82d 	move	sp,s8
ffffffffa0804d64:	dfbf0008 	ld	ra,8(sp)
ffffffffa0804d68:	dfbe0000 	ld	s8,0(sp)
ffffffffa0804d6c:	67bd0010 	daddiu	sp,sp,16
ffffffffa0804d70:	03e00008 	jr	ra
ffffffffa0804d74:	00000000 	nop

ffffffffa0804d78 <screen_scroll>:
ffffffffa0804d78:	67bdffd0 	daddiu	sp,sp,-48
ffffffffa0804d7c:	ffbe0028 	sd	s8,40(sp)
ffffffffa0804d80:	03a0f02d 	move	s8,sp
ffffffffa0804d84:	0080182d 	move	v1,a0
ffffffffa0804d88:	00a0102d 	move	v0,a1
ffffffffa0804d8c:	00031800 	sll	v1,v1,0x0
ffffffffa0804d90:	afc30010 	sw	v1,16(s8)
ffffffffa0804d94:	00021000 	sll	v0,v0,0x0
ffffffffa0804d98:	afc20014 	sw	v0,20(s8)
ffffffffa0804d9c:	8fc20010 	lw	v0,16(s8)
ffffffffa0804da0:	afc20000 	sw	v0,0(s8)
ffffffffa0804da4:	08201387 	j	ffffffffa0804e1c <screen_scroll+0xa4>
ffffffffa0804da8:	00000000 	nop
ffffffffa0804dac:	afc00004 	sw	zero,4(s8)
ffffffffa0804db0:	08201380 	j	ffffffffa0804e00 <screen_scroll+0x88>
ffffffffa0804db4:	00000000 	nop
ffffffffa0804db8:	8fc20000 	lw	v0,0(s8)
ffffffffa0804dbc:	00021100 	sll	v0,v0,0x4
ffffffffa0804dc0:	00021880 	sll	v1,v0,0x2
ffffffffa0804dc4:	00431021 	addu	v0,v0,v1
ffffffffa0804dc8:	8fc30004 	lw	v1,4(s8)
ffffffffa0804dcc:	00621021 	addu	v0,v1,v0
ffffffffa0804dd0:	0040182d 	move	v1,v0
ffffffffa0804dd4:	3c020000 	lui	v0,0x0
ffffffffa0804dd8:	64420000 	daddiu	v0,v0,0
ffffffffa0804ddc:	00021438 	dsll	v0,v0,0x10
ffffffffa0804de0:	6442a081 	daddiu	v0,v0,-24447
ffffffffa0804de4:	00021438 	dsll	v0,v0,0x10
ffffffffa0804de8:	64422760 	daddiu	v0,v0,10080
ffffffffa0804dec:	0062102d 	daddu	v0,v1,v0
ffffffffa0804df0:	a0400000 	sb	zero,0(v0)
ffffffffa0804df4:	8fc20004 	lw	v0,4(s8)
ffffffffa0804df8:	24420001 	addiu	v0,v0,1
ffffffffa0804dfc:	afc20004 	sw	v0,4(s8)
ffffffffa0804e00:	8fc20004 	lw	v0,4(s8)
ffffffffa0804e04:	28420050 	slti	v0,v0,80
ffffffffa0804e08:	1440ffeb 	bnez	v0,ffffffffa0804db8 <screen_scroll+0x40>
ffffffffa0804e0c:	00000000 	nop
ffffffffa0804e10:	8fc20000 	lw	v0,0(s8)
ffffffffa0804e14:	24420001 	addiu	v0,v0,1
ffffffffa0804e18:	afc20000 	sw	v0,0(s8)
ffffffffa0804e1c:	8fc30000 	lw	v1,0(s8)
ffffffffa0804e20:	8fc20014 	lw	v0,20(s8)
ffffffffa0804e24:	0043102a 	slt	v0,v0,v1
ffffffffa0804e28:	1040ffe0 	beqz	v0,ffffffffa0804dac <screen_scroll+0x34>
ffffffffa0804e2c:	00000000 	nop
ffffffffa0804e30:	8fc20010 	lw	v0,16(s8)
ffffffffa0804e34:	afc20000 	sw	v0,0(s8)
ffffffffa0804e38:	082013d2 	j	ffffffffa0804f48 <screen_scroll+0x1d0>
ffffffffa0804e3c:	00000000 	nop
ffffffffa0804e40:	afc00004 	sw	zero,4(s8)
ffffffffa0804e44:	082013cb 	j	ffffffffa0804f2c <screen_scroll+0x1b4>
ffffffffa0804e48:	00000000 	nop
ffffffffa0804e4c:	8fc30000 	lw	v1,0(s8)
ffffffffa0804e50:	8fc20014 	lw	v0,20(s8)
ffffffffa0804e54:	14620013 	bne	v1,v0,ffffffffa0804ea4 <screen_scroll+0x12c>
ffffffffa0804e58:	00000000 	nop
ffffffffa0804e5c:	8fc20000 	lw	v0,0(s8)
ffffffffa0804e60:	00021100 	sll	v0,v0,0x4
ffffffffa0804e64:	00021880 	sll	v1,v0,0x2
ffffffffa0804e68:	00431021 	addu	v0,v0,v1
ffffffffa0804e6c:	8fc30004 	lw	v1,4(s8)
ffffffffa0804e70:	00621021 	addu	v0,v1,v0
ffffffffa0804e74:	0040182d 	move	v1,v0
ffffffffa0804e78:	3c020000 	lui	v0,0x0
ffffffffa0804e7c:	64420000 	daddiu	v0,v0,0
ffffffffa0804e80:	00021438 	dsll	v0,v0,0x10
ffffffffa0804e84:	6442a081 	daddiu	v0,v0,-24447
ffffffffa0804e88:	00021438 	dsll	v0,v0,0x10
ffffffffa0804e8c:	64421a90 	daddiu	v0,v0,6800
ffffffffa0804e90:	0062102d 	daddu	v0,v1,v0
ffffffffa0804e94:	24030020 	li	v1,32
ffffffffa0804e98:	a0430000 	sb	v1,0(v0)
ffffffffa0804e9c:	082013c8 	j	ffffffffa0804f20 <screen_scroll+0x1a8>
ffffffffa0804ea0:	00000000 	nop
ffffffffa0804ea4:	8fc20000 	lw	v0,0(s8)
ffffffffa0804ea8:	00021100 	sll	v0,v0,0x4
ffffffffa0804eac:	00021880 	sll	v1,v0,0x2
ffffffffa0804eb0:	00431021 	addu	v0,v0,v1
ffffffffa0804eb4:	8fc30004 	lw	v1,4(s8)
ffffffffa0804eb8:	00621021 	addu	v0,v1,v0
ffffffffa0804ebc:	0040202d 	move	a0,v0
ffffffffa0804ec0:	8fc20000 	lw	v0,0(s8)
ffffffffa0804ec4:	24420001 	addiu	v0,v0,1
ffffffffa0804ec8:	00021100 	sll	v0,v0,0x4
ffffffffa0804ecc:	00021880 	sll	v1,v0,0x2
ffffffffa0804ed0:	00431021 	addu	v0,v0,v1
ffffffffa0804ed4:	8fc30004 	lw	v1,4(s8)
ffffffffa0804ed8:	00621021 	addu	v0,v1,v0
ffffffffa0804edc:	0040182d 	move	v1,v0
ffffffffa0804ee0:	3c020000 	lui	v0,0x0
ffffffffa0804ee4:	64420000 	daddiu	v0,v0,0
ffffffffa0804ee8:	00021438 	dsll	v0,v0,0x10
ffffffffa0804eec:	6442a081 	daddiu	v0,v0,-24447
ffffffffa0804ef0:	00021438 	dsll	v0,v0,0x10
ffffffffa0804ef4:	64421a90 	daddiu	v0,v0,6800
ffffffffa0804ef8:	0062102d 	daddu	v0,v1,v0
ffffffffa0804efc:	80430000 	lb	v1,0(v0)
ffffffffa0804f00:	3c020000 	lui	v0,0x0
ffffffffa0804f04:	64420000 	daddiu	v0,v0,0
ffffffffa0804f08:	00021438 	dsll	v0,v0,0x10
ffffffffa0804f0c:	6442a081 	daddiu	v0,v0,-24447
ffffffffa0804f10:	00021438 	dsll	v0,v0,0x10
ffffffffa0804f14:	64421a90 	daddiu	v0,v0,6800
ffffffffa0804f18:	0082102d 	daddu	v0,a0,v0
ffffffffa0804f1c:	a0430000 	sb	v1,0(v0)
ffffffffa0804f20:	8fc20004 	lw	v0,4(s8)
ffffffffa0804f24:	24420001 	addiu	v0,v0,1
ffffffffa0804f28:	afc20004 	sw	v0,4(s8)
ffffffffa0804f2c:	8fc20004 	lw	v0,4(s8)
ffffffffa0804f30:	28420050 	slti	v0,v0,80
ffffffffa0804f34:	1440ffc5 	bnez	v0,ffffffffa0804e4c <screen_scroll+0xd4>
ffffffffa0804f38:	00000000 	nop
ffffffffa0804f3c:	8fc20000 	lw	v0,0(s8)
ffffffffa0804f40:	24420001 	addiu	v0,v0,1
ffffffffa0804f44:	afc20000 	sw	v0,0(s8)
ffffffffa0804f48:	8fc30000 	lw	v1,0(s8)
ffffffffa0804f4c:	8fc20014 	lw	v0,20(s8)
ffffffffa0804f50:	0043102a 	slt	v0,v0,v1
ffffffffa0804f54:	1040ffba 	beqz	v0,ffffffffa0804e40 <screen_scroll+0xc8>
ffffffffa0804f58:	00000000 	nop
ffffffffa0804f5c:	03c0e82d 	move	sp,s8
ffffffffa0804f60:	dfbe0028 	ld	s8,40(sp)
ffffffffa0804f64:	67bd0030 	daddiu	sp,sp,48
ffffffffa0804f68:	03e00008 	jr	ra
ffffffffa0804f6c:	00000000 	nop

ffffffffa0804f70 <screen_write_ch>:
ffffffffa0804f70:	67bdffe0 	daddiu	sp,sp,-32
ffffffffa0804f74:	ffbf0018 	sd	ra,24(sp)
ffffffffa0804f78:	ffbe0010 	sd	s8,16(sp)
ffffffffa0804f7c:	03a0f02d 	move	s8,sp
ffffffffa0804f80:	0080102d 	move	v0,a0
ffffffffa0804f84:	00021000 	sll	v0,v0,0x0
ffffffffa0804f88:	a3c20000 	sb	v0,0(s8)
ffffffffa0804f8c:	83c30000 	lb	v1,0(s8)
ffffffffa0804f90:	2402000a 	li	v0,10
ffffffffa0804f94:	14620017 	bne	v1,v0,ffffffffa0804ff4 <screen_write_ch+0x84>
ffffffffa0804f98:	00000000 	nop
ffffffffa0804f9c:	3c020000 	lui	v0,0x0
ffffffffa0804fa0:	64420000 	daddiu	v0,v0,0
ffffffffa0804fa4:	00021438 	dsll	v0,v0,0x10
ffffffffa0804fa8:	6442a081 	daddiu	v0,v0,-24447
ffffffffa0804fac:	00021438 	dsll	v0,v0,0x10
ffffffffa0804fb0:	ac4045f0 	sw	zero,17904(v0)
ffffffffa0804fb4:	3c020000 	lui	v0,0x0
ffffffffa0804fb8:	64420000 	daddiu	v0,v0,0
ffffffffa0804fbc:	00021438 	dsll	v0,v0,0x10
ffffffffa0804fc0:	6442a081 	daddiu	v0,v0,-24447
ffffffffa0804fc4:	00021438 	dsll	v0,v0,0x10
ffffffffa0804fc8:	8c4245f4 	lw	v0,17908(v0)
ffffffffa0804fcc:	24420001 	addiu	v0,v0,1
ffffffffa0804fd0:	0040182d 	move	v1,v0
ffffffffa0804fd4:	3c020000 	lui	v0,0x0
ffffffffa0804fd8:	64420000 	daddiu	v0,v0,0
ffffffffa0804fdc:	00021438 	dsll	v0,v0,0x10
ffffffffa0804fe0:	6442a081 	daddiu	v0,v0,-24447
ffffffffa0804fe4:	00021438 	dsll	v0,v0,0x10
ffffffffa0804fe8:	ac4345f4 	sw	v1,17908(v0)
ffffffffa0804fec:	08201477 	j	ffffffffa08051dc <screen_write_ch+0x26c>
ffffffffa0804ff0:	00000000 	nop
ffffffffa0804ff4:	83c30000 	lb	v1,0(s8)
ffffffffa0804ff8:	24020008 	li	v0,8
ffffffffa0804ffc:	14620034 	bne	v1,v0,ffffffffa08050d0 <screen_write_ch+0x160>
ffffffffa0805000:	00000000 	nop
ffffffffa0805004:	3c020000 	lui	v0,0x0
ffffffffa0805008:	64420000 	daddiu	v0,v0,0
ffffffffa080500c:	00021438 	dsll	v0,v0,0x10
ffffffffa0805010:	6442a081 	daddiu	v0,v0,-24447
ffffffffa0805014:	00021438 	dsll	v0,v0,0x10
ffffffffa0805018:	8c4245f0 	lw	v0,17904(v0)
ffffffffa080501c:	1840006f 	blez	v0,ffffffffa08051dc <screen_write_ch+0x26c>
ffffffffa0805020:	00000000 	nop
ffffffffa0805024:	3c020000 	lui	v0,0x0
ffffffffa0805028:	64420000 	daddiu	v0,v0,0
ffffffffa080502c:	00021438 	dsll	v0,v0,0x10
ffffffffa0805030:	6442a081 	daddiu	v0,v0,-24447
ffffffffa0805034:	00021438 	dsll	v0,v0,0x10
ffffffffa0805038:	8c4245f0 	lw	v0,17904(v0)
ffffffffa080503c:	2442ffff 	addiu	v0,v0,-1
ffffffffa0805040:	0040182d 	move	v1,v0
ffffffffa0805044:	3c020000 	lui	v0,0x0
ffffffffa0805048:	64420000 	daddiu	v0,v0,0
ffffffffa080504c:	00021438 	dsll	v0,v0,0x10
ffffffffa0805050:	6442a081 	daddiu	v0,v0,-24447
ffffffffa0805054:	00021438 	dsll	v0,v0,0x10
ffffffffa0805058:	ac4345f0 	sw	v1,17904(v0)
ffffffffa080505c:	3c020000 	lui	v0,0x0
ffffffffa0805060:	64420000 	daddiu	v0,v0,0
ffffffffa0805064:	00021438 	dsll	v0,v0,0x10
ffffffffa0805068:	6442a081 	daddiu	v0,v0,-24447
ffffffffa080506c:	00021438 	dsll	v0,v0,0x10
ffffffffa0805070:	8c4245f4 	lw	v0,17908(v0)
ffffffffa0805074:	00021100 	sll	v0,v0,0x4
ffffffffa0805078:	00021880 	sll	v1,v0,0x2
ffffffffa080507c:	00431021 	addu	v0,v0,v1
ffffffffa0805080:	0040182d 	move	v1,v0
ffffffffa0805084:	3c020000 	lui	v0,0x0
ffffffffa0805088:	64420000 	daddiu	v0,v0,0
ffffffffa080508c:	00021438 	dsll	v0,v0,0x10
ffffffffa0805090:	6442a081 	daddiu	v0,v0,-24447
ffffffffa0805094:	00021438 	dsll	v0,v0,0x10
ffffffffa0805098:	8c4245f0 	lw	v0,17904(v0)
ffffffffa080509c:	00621021 	addu	v0,v1,v0
ffffffffa08050a0:	0040182d 	move	v1,v0
ffffffffa08050a4:	3c020000 	lui	v0,0x0
ffffffffa08050a8:	64420000 	daddiu	v0,v0,0
ffffffffa08050ac:	00021438 	dsll	v0,v0,0x10
ffffffffa08050b0:	6442a081 	daddiu	v0,v0,-24447
ffffffffa08050b4:	00021438 	dsll	v0,v0,0x10
ffffffffa08050b8:	64421a90 	daddiu	v0,v0,6800
ffffffffa08050bc:	0062102d 	daddu	v0,v1,v0
ffffffffa08050c0:	24030020 	li	v1,32
ffffffffa08050c4:	a0430000 	sb	v1,0(v0)
ffffffffa08050c8:	08201477 	j	ffffffffa08051dc <screen_write_ch+0x26c>
ffffffffa08050cc:	00000000 	nop
ffffffffa08050d0:	83c30000 	lb	v1,0(s8)
ffffffffa08050d4:	2402000d 	li	v0,13
ffffffffa08050d8:	14620017 	bne	v1,v0,ffffffffa0805138 <screen_write_ch+0x1c8>
ffffffffa08050dc:	00000000 	nop
ffffffffa08050e0:	3c020000 	lui	v0,0x0
ffffffffa08050e4:	64420000 	daddiu	v0,v0,0
ffffffffa08050e8:	00021438 	dsll	v0,v0,0x10
ffffffffa08050ec:	6442a081 	daddiu	v0,v0,-24447
ffffffffa08050f0:	00021438 	dsll	v0,v0,0x10
ffffffffa08050f4:	ac4045f0 	sw	zero,17904(v0)
ffffffffa08050f8:	3c020000 	lui	v0,0x0
ffffffffa08050fc:	64420000 	daddiu	v0,v0,0
ffffffffa0805100:	00021438 	dsll	v0,v0,0x10
ffffffffa0805104:	6442a081 	daddiu	v0,v0,-24447
ffffffffa0805108:	00021438 	dsll	v0,v0,0x10
ffffffffa080510c:	8c4245f4 	lw	v0,17908(v0)
ffffffffa0805110:	24420001 	addiu	v0,v0,1
ffffffffa0805114:	0040182d 	move	v1,v0
ffffffffa0805118:	3c020000 	lui	v0,0x0
ffffffffa080511c:	64420000 	daddiu	v0,v0,0
ffffffffa0805120:	00021438 	dsll	v0,v0,0x10
ffffffffa0805124:	6442a081 	daddiu	v0,v0,-24447
ffffffffa0805128:	00021438 	dsll	v0,v0,0x10
ffffffffa080512c:	ac4345f4 	sw	v1,17908(v0)
ffffffffa0805130:	08201477 	j	ffffffffa08051dc <screen_write_ch+0x26c>
ffffffffa0805134:	00000000 	nop
ffffffffa0805138:	3c020000 	lui	v0,0x0
ffffffffa080513c:	64420000 	daddiu	v0,v0,0
ffffffffa0805140:	00021438 	dsll	v0,v0,0x10
ffffffffa0805144:	6442a081 	daddiu	v0,v0,-24447
ffffffffa0805148:	00021438 	dsll	v0,v0,0x10
ffffffffa080514c:	8c4245f4 	lw	v0,17908(v0)
ffffffffa0805150:	00021100 	sll	v0,v0,0x4
ffffffffa0805154:	00021880 	sll	v1,v0,0x2
ffffffffa0805158:	00431021 	addu	v0,v0,v1
ffffffffa080515c:	0040182d 	move	v1,v0
ffffffffa0805160:	3c020000 	lui	v0,0x0
ffffffffa0805164:	64420000 	daddiu	v0,v0,0
ffffffffa0805168:	00021438 	dsll	v0,v0,0x10
ffffffffa080516c:	6442a081 	daddiu	v0,v0,-24447
ffffffffa0805170:	00021438 	dsll	v0,v0,0x10
ffffffffa0805174:	8c4245f0 	lw	v0,17904(v0)
ffffffffa0805178:	00621021 	addu	v0,v1,v0
ffffffffa080517c:	0040182d 	move	v1,v0
ffffffffa0805180:	3c020000 	lui	v0,0x0
ffffffffa0805184:	64420000 	daddiu	v0,v0,0
ffffffffa0805188:	00021438 	dsll	v0,v0,0x10
ffffffffa080518c:	6442a081 	daddiu	v0,v0,-24447
ffffffffa0805190:	00021438 	dsll	v0,v0,0x10
ffffffffa0805194:	64421a90 	daddiu	v0,v0,6800
ffffffffa0805198:	0062102d 	daddu	v0,v1,v0
ffffffffa080519c:	93c30000 	lbu	v1,0(s8)
ffffffffa08051a0:	a0430000 	sb	v1,0(v0)
ffffffffa08051a4:	3c020000 	lui	v0,0x0
ffffffffa08051a8:	64420000 	daddiu	v0,v0,0
ffffffffa08051ac:	00021438 	dsll	v0,v0,0x10
ffffffffa08051b0:	6442a081 	daddiu	v0,v0,-24447
ffffffffa08051b4:	00021438 	dsll	v0,v0,0x10
ffffffffa08051b8:	8c4245f0 	lw	v0,17904(v0)
ffffffffa08051bc:	24420001 	addiu	v0,v0,1
ffffffffa08051c0:	0040182d 	move	v1,v0
ffffffffa08051c4:	3c020000 	lui	v0,0x0
ffffffffa08051c8:	64420000 	daddiu	v0,v0,0
ffffffffa08051cc:	00021438 	dsll	v0,v0,0x10
ffffffffa08051d0:	6442a081 	daddiu	v0,v0,-24447
ffffffffa08051d4:	00021438 	dsll	v0,v0,0x10
ffffffffa08051d8:	ac4345f0 	sw	v1,17904(v0)
ffffffffa08051dc:	3c020000 	lui	v0,0x0
ffffffffa08051e0:	64420000 	daddiu	v0,v0,0
ffffffffa08051e4:	00021438 	dsll	v0,v0,0x10
ffffffffa08051e8:	6442a081 	daddiu	v0,v0,-24447
ffffffffa08051ec:	00021438 	dsll	v0,v0,0x10
ffffffffa08051f0:	8c4245f0 	lw	v0,17904(v0)
ffffffffa08051f4:	04410007 	bgez	v0,ffffffffa0805214 <screen_write_ch+0x2a4>
ffffffffa08051f8:	00000000 	nop
ffffffffa08051fc:	3c020000 	lui	v0,0x0
ffffffffa0805200:	64420000 	daddiu	v0,v0,0
ffffffffa0805204:	00021438 	dsll	v0,v0,0x10
ffffffffa0805208:	6442a081 	daddiu	v0,v0,-24447
ffffffffa080520c:	00021438 	dsll	v0,v0,0x10
ffffffffa0805210:	ac4045f0 	sw	zero,17904(v0)
ffffffffa0805214:	3c020000 	lui	v0,0x0
ffffffffa0805218:	64420000 	daddiu	v0,v0,0
ffffffffa080521c:	00021438 	dsll	v0,v0,0x10
ffffffffa0805220:	6442a081 	daddiu	v0,v0,-24447
ffffffffa0805224:	00021438 	dsll	v0,v0,0x10
ffffffffa0805228:	8c4245f0 	lw	v0,17904(v0)
ffffffffa080522c:	28420050 	slti	v0,v0,80
ffffffffa0805230:	14400015 	bnez	v0,ffffffffa0805288 <screen_write_ch+0x318>
ffffffffa0805234:	00000000 	nop
ffffffffa0805238:	3c020000 	lui	v0,0x0
ffffffffa080523c:	64420000 	daddiu	v0,v0,0
ffffffffa0805240:	00021438 	dsll	v0,v0,0x10
ffffffffa0805244:	6442a081 	daddiu	v0,v0,-24447
ffffffffa0805248:	00021438 	dsll	v0,v0,0x10
ffffffffa080524c:	8c4245f4 	lw	v0,17908(v0)
ffffffffa0805250:	24420001 	addiu	v0,v0,1
ffffffffa0805254:	0040182d 	move	v1,v0
ffffffffa0805258:	3c020000 	lui	v0,0x0
ffffffffa080525c:	64420000 	daddiu	v0,v0,0
ffffffffa0805260:	00021438 	dsll	v0,v0,0x10
ffffffffa0805264:	6442a081 	daddiu	v0,v0,-24447
ffffffffa0805268:	00021438 	dsll	v0,v0,0x10
ffffffffa080526c:	ac4345f4 	sw	v1,17908(v0)
ffffffffa0805270:	3c020000 	lui	v0,0x0
ffffffffa0805274:	64420000 	daddiu	v0,v0,0
ffffffffa0805278:	00021438 	dsll	v0,v0,0x10
ffffffffa080527c:	6442a081 	daddiu	v0,v0,-24447
ffffffffa0805280:	00021438 	dsll	v0,v0,0x10
ffffffffa0805284:	ac4045f0 	sw	zero,17904(v0)
ffffffffa0805288:	3c020000 	lui	v0,0x0
ffffffffa080528c:	64420000 	daddiu	v0,v0,0
ffffffffa0805290:	00021438 	dsll	v0,v0,0x10
ffffffffa0805294:	6442a081 	daddiu	v0,v0,-24447
ffffffffa0805298:	00021438 	dsll	v0,v0,0x10
ffffffffa080529c:	8c4245f4 	lw	v0,17908(v0)
ffffffffa08052a0:	04410007 	bgez	v0,ffffffffa08052c0 <screen_write_ch+0x350>
ffffffffa08052a4:	00000000 	nop
ffffffffa08052a8:	3c020000 	lui	v0,0x0
ffffffffa08052ac:	64420000 	daddiu	v0,v0,0
ffffffffa08052b0:	00021438 	dsll	v0,v0,0x10
ffffffffa08052b4:	6442a081 	daddiu	v0,v0,-24447
ffffffffa08052b8:	00021438 	dsll	v0,v0,0x10
ffffffffa08052bc:	ac4045f4 	sw	zero,17908(v0)
ffffffffa08052c0:	3c020000 	lui	v0,0x0
ffffffffa08052c4:	64420000 	daddiu	v0,v0,0
ffffffffa08052c8:	00021438 	dsll	v0,v0,0x10
ffffffffa08052cc:	6442a081 	daddiu	v0,v0,-24447
ffffffffa08052d0:	00021438 	dsll	v0,v0,0x10
ffffffffa08052d4:	8c4245f4 	lw	v0,17908(v0)
ffffffffa08052d8:	28420029 	slti	v0,v0,41
ffffffffa08052dc:	14400012 	bnez	v0,ffffffffa0805328 <screen_write_ch+0x3b8>
ffffffffa08052e0:	00000000 	nop
ffffffffa08052e4:	24040015 	li	a0,21
ffffffffa08052e8:	24050028 	li	a1,40
ffffffffa08052ec:	0c20135e 	jal	ffffffffa0804d78 <screen_scroll>
ffffffffa08052f0:	00000000 	nop
ffffffffa08052f4:	3c020000 	lui	v0,0x0
ffffffffa08052f8:	64420000 	daddiu	v0,v0,0
ffffffffa08052fc:	00021438 	dsll	v0,v0,0x10
ffffffffa0805300:	6442a081 	daddiu	v0,v0,-24447
ffffffffa0805304:	00021438 	dsll	v0,v0,0x10
ffffffffa0805308:	ac4045f0 	sw	zero,17904(v0)
ffffffffa080530c:	3c020000 	lui	v0,0x0
ffffffffa0805310:	64420000 	daddiu	v0,v0,0
ffffffffa0805314:	00021438 	dsll	v0,v0,0x10
ffffffffa0805318:	6442a081 	daddiu	v0,v0,-24447
ffffffffa080531c:	00021438 	dsll	v0,v0,0x10
ffffffffa0805320:	24030028 	li	v1,40
ffffffffa0805324:	ac4345f4 	sw	v1,17908(v0)
ffffffffa0805328:	03c0e82d 	move	sp,s8
ffffffffa080532c:	dfbf0018 	ld	ra,24(sp)
ffffffffa0805330:	dfbe0010 	ld	s8,16(sp)
ffffffffa0805334:	67bd0020 	daddiu	sp,sp,32
ffffffffa0805338:	03e00008 	jr	ra
ffffffffa080533c:	00000000 	nop

ffffffffa0805340 <init_screen>:
ffffffffa0805340:	67bdfff0 	daddiu	sp,sp,-16
ffffffffa0805344:	ffbf0008 	sd	ra,8(sp)
ffffffffa0805348:	ffbe0000 	sd	s8,0(sp)
ffffffffa080534c:	03a0f02d 	move	s8,sp
ffffffffa0805350:	0c20134b 	jal	ffffffffa0804d2c <vt100_hidden_cursor>
ffffffffa0805354:	00000000 	nop
ffffffffa0805358:	0c201338 	jal	ffffffffa0804ce0 <vt100_clear>
ffffffffa080535c:	00000000 	nop
ffffffffa0805360:	0000202d 	move	a0,zero
ffffffffa0805364:	24050028 	li	a1,40
ffffffffa0805368:	0c2014e2 	jal	ffffffffa0805388 <screen_clear>
ffffffffa080536c:	00000000 	nop
ffffffffa0805370:	03c0e82d 	move	sp,s8
ffffffffa0805374:	dfbf0008 	ld	ra,8(sp)
ffffffffa0805378:	dfbe0000 	ld	s8,0(sp)
ffffffffa080537c:	67bd0010 	daddiu	sp,sp,16
ffffffffa0805380:	03e00008 	jr	ra
ffffffffa0805384:	00000000 	nop

ffffffffa0805388 <screen_clear>:
ffffffffa0805388:	67bdffd0 	daddiu	sp,sp,-48
ffffffffa080538c:	ffbf0028 	sd	ra,40(sp)
ffffffffa0805390:	ffbe0020 	sd	s8,32(sp)
ffffffffa0805394:	03a0f02d 	move	s8,sp
ffffffffa0805398:	0080182d 	move	v1,a0
ffffffffa080539c:	00a0102d 	move	v0,a1
ffffffffa08053a0:	00031800 	sll	v1,v1,0x0
ffffffffa08053a4:	afc30010 	sw	v1,16(s8)
ffffffffa08053a8:	00021000 	sll	v0,v0,0x0
ffffffffa08053ac:	afc20014 	sw	v0,20(s8)
ffffffffa08053b0:	afc00000 	sw	zero,0(s8)
ffffffffa08053b4:	0820151b 	j	ffffffffa080546c <screen_clear+0xe4>
ffffffffa08053b8:	00000000 	nop
ffffffffa08053bc:	afc00004 	sw	zero,4(s8)
ffffffffa08053c0:	08201514 	j	ffffffffa0805450 <screen_clear+0xc8>
ffffffffa08053c4:	00000000 	nop
ffffffffa08053c8:	8fc20000 	lw	v0,0(s8)
ffffffffa08053cc:	00021100 	sll	v0,v0,0x4
ffffffffa08053d0:	00021880 	sll	v1,v0,0x2
ffffffffa08053d4:	00431021 	addu	v0,v0,v1
ffffffffa08053d8:	8fc30004 	lw	v1,4(s8)
ffffffffa08053dc:	00621021 	addu	v0,v1,v0
ffffffffa08053e0:	0040182d 	move	v1,v0
ffffffffa08053e4:	3c020000 	lui	v0,0x0
ffffffffa08053e8:	64420000 	daddiu	v0,v0,0
ffffffffa08053ec:	00021438 	dsll	v0,v0,0x10
ffffffffa08053f0:	6442a081 	daddiu	v0,v0,-24447
ffffffffa08053f4:	00021438 	dsll	v0,v0,0x10
ffffffffa08053f8:	64421a90 	daddiu	v0,v0,6800
ffffffffa08053fc:	0062102d 	daddu	v0,v1,v0
ffffffffa0805400:	24030020 	li	v1,32
ffffffffa0805404:	a0430000 	sb	v1,0(v0)
ffffffffa0805408:	8fc20000 	lw	v0,0(s8)
ffffffffa080540c:	00021100 	sll	v0,v0,0x4
ffffffffa0805410:	00021880 	sll	v1,v0,0x2
ffffffffa0805414:	00431021 	addu	v0,v0,v1
ffffffffa0805418:	8fc30004 	lw	v1,4(s8)
ffffffffa080541c:	00621021 	addu	v0,v1,v0
ffffffffa0805420:	0040182d 	move	v1,v0
ffffffffa0805424:	3c020000 	lui	v0,0x0
ffffffffa0805428:	64420000 	daddiu	v0,v0,0
ffffffffa080542c:	00021438 	dsll	v0,v0,0x10
ffffffffa0805430:	6442a081 	daddiu	v0,v0,-24447
ffffffffa0805434:	00021438 	dsll	v0,v0,0x10
ffffffffa0805438:	64422760 	daddiu	v0,v0,10080
ffffffffa080543c:	0062102d 	daddu	v0,v1,v0
ffffffffa0805440:	a0400000 	sb	zero,0(v0)
ffffffffa0805444:	8fc20004 	lw	v0,4(s8)
ffffffffa0805448:	24420001 	addiu	v0,v0,1
ffffffffa080544c:	afc20004 	sw	v0,4(s8)
ffffffffa0805450:	8fc20004 	lw	v0,4(s8)
ffffffffa0805454:	28420050 	slti	v0,v0,80
ffffffffa0805458:	1440ffdb 	bnez	v0,ffffffffa08053c8 <screen_clear+0x40>
ffffffffa080545c:	00000000 	nop
ffffffffa0805460:	8fc20000 	lw	v0,0(s8)
ffffffffa0805464:	24420001 	addiu	v0,v0,1
ffffffffa0805468:	afc20000 	sw	v0,0(s8)
ffffffffa080546c:	8fc20000 	lw	v0,0(s8)
ffffffffa0805470:	28420029 	slti	v0,v0,41
ffffffffa0805474:	1440ffd1 	bnez	v0,ffffffffa08053bc <screen_clear+0x34>
ffffffffa0805478:	00000000 	nop
ffffffffa080547c:	0c2015aa 	jal	ffffffffa08056a8 <screen_reflush>
ffffffffa0805480:	00000000 	nop
ffffffffa0805484:	03c0e82d 	move	sp,s8
ffffffffa0805488:	dfbf0028 	ld	ra,40(sp)
ffffffffa080548c:	dfbe0020 	ld	s8,32(sp)
ffffffffa0805490:	67bd0030 	daddiu	sp,sp,48
ffffffffa0805494:	03e00008 	jr	ra
ffffffffa0805498:	00000000 	nop

ffffffffa080549c <screen_clear_shell>:
ffffffffa080549c:	67bdffd0 	daddiu	sp,sp,-48
ffffffffa08054a0:	ffbf0028 	sd	ra,40(sp)
ffffffffa08054a4:	ffbe0020 	sd	s8,32(sp)
ffffffffa08054a8:	03a0f02d 	move	s8,sp
ffffffffa08054ac:	0080182d 	move	v1,a0
ffffffffa08054b0:	00a0102d 	move	v0,a1
ffffffffa08054b4:	00031800 	sll	v1,v1,0x0
ffffffffa08054b8:	afc30010 	sw	v1,16(s8)
ffffffffa08054bc:	00021000 	sll	v0,v0,0x0
ffffffffa08054c0:	afc20014 	sw	v0,20(s8)
ffffffffa08054c4:	afc00000 	sw	zero,0(s8)
ffffffffa08054c8:	08201560 	j	ffffffffa0805580 <screen_clear_shell+0xe4>
ffffffffa08054cc:	00000000 	nop
ffffffffa08054d0:	afc00004 	sw	zero,4(s8)
ffffffffa08054d4:	08201559 	j	ffffffffa0805564 <screen_clear_shell+0xc8>
ffffffffa08054d8:	00000000 	nop
ffffffffa08054dc:	8fc20000 	lw	v0,0(s8)
ffffffffa08054e0:	00021100 	sll	v0,v0,0x4
ffffffffa08054e4:	00021880 	sll	v1,v0,0x2
ffffffffa08054e8:	00431021 	addu	v0,v0,v1
ffffffffa08054ec:	8fc30004 	lw	v1,4(s8)
ffffffffa08054f0:	00621021 	addu	v0,v1,v0
ffffffffa08054f4:	0040182d 	move	v1,v0
ffffffffa08054f8:	3c020000 	lui	v0,0x0
ffffffffa08054fc:	64420000 	daddiu	v0,v0,0
ffffffffa0805500:	00021438 	dsll	v0,v0,0x10
ffffffffa0805504:	6442a081 	daddiu	v0,v0,-24447
ffffffffa0805508:	00021438 	dsll	v0,v0,0x10
ffffffffa080550c:	64421a90 	daddiu	v0,v0,6800
ffffffffa0805510:	0062102d 	daddu	v0,v1,v0
ffffffffa0805514:	24030020 	li	v1,32
ffffffffa0805518:	a0430000 	sb	v1,0(v0)
ffffffffa080551c:	8fc20000 	lw	v0,0(s8)
ffffffffa0805520:	00021100 	sll	v0,v0,0x4
ffffffffa0805524:	00021880 	sll	v1,v0,0x2
ffffffffa0805528:	00431021 	addu	v0,v0,v1
ffffffffa080552c:	8fc30004 	lw	v1,4(s8)
ffffffffa0805530:	00621021 	addu	v0,v1,v0
ffffffffa0805534:	0040182d 	move	v1,v0
ffffffffa0805538:	3c020000 	lui	v0,0x0
ffffffffa080553c:	64420000 	daddiu	v0,v0,0
ffffffffa0805540:	00021438 	dsll	v0,v0,0x10
ffffffffa0805544:	6442a081 	daddiu	v0,v0,-24447
ffffffffa0805548:	00021438 	dsll	v0,v0,0x10
ffffffffa080554c:	64422760 	daddiu	v0,v0,10080
ffffffffa0805550:	0062102d 	daddu	v0,v1,v0
ffffffffa0805554:	a0400000 	sb	zero,0(v0)
ffffffffa0805558:	8fc20004 	lw	v0,4(s8)
ffffffffa080555c:	24420001 	addiu	v0,v0,1
ffffffffa0805560:	afc20004 	sw	v0,4(s8)
ffffffffa0805564:	8fc20004 	lw	v0,4(s8)
ffffffffa0805568:	28420050 	slti	v0,v0,80
ffffffffa080556c:	1440ffdb 	bnez	v0,ffffffffa08054dc <screen_clear_shell+0x40>
ffffffffa0805570:	00000000 	nop
ffffffffa0805574:	8fc20000 	lw	v0,0(s8)
ffffffffa0805578:	24420001 	addiu	v0,v0,1
ffffffffa080557c:	afc20000 	sw	v0,0(s8)
ffffffffa0805580:	8fc20000 	lw	v0,0(s8)
ffffffffa0805584:	28420029 	slti	v0,v0,41
ffffffffa0805588:	1440ffd1 	bnez	v0,ffffffffa08054d0 <screen_clear_shell+0x34>
ffffffffa080558c:	00000000 	nop
ffffffffa0805590:	0c201631 	jal	ffffffffa08058c4 <screen_reflush_shell>
ffffffffa0805594:	00000000 	nop
ffffffffa0805598:	03c0e82d 	move	sp,s8
ffffffffa080559c:	dfbf0028 	ld	ra,40(sp)
ffffffffa08055a0:	dfbe0020 	ld	s8,32(sp)
ffffffffa08055a4:	67bd0030 	daddiu	sp,sp,48
ffffffffa08055a8:	03e00008 	jr	ra
ffffffffa08055ac:	00000000 	nop

ffffffffa08055b0 <screen_move_cursor>:
ffffffffa08055b0:	67bdffe0 	daddiu	sp,sp,-32
ffffffffa08055b4:	ffbe0018 	sd	s8,24(sp)
ffffffffa08055b8:	03a0f02d 	move	s8,sp
ffffffffa08055bc:	0080182d 	move	v1,a0
ffffffffa08055c0:	00a0102d 	move	v0,a1
ffffffffa08055c4:	00031800 	sll	v1,v1,0x0
ffffffffa08055c8:	afc30000 	sw	v1,0(s8)
ffffffffa08055cc:	00021000 	sll	v0,v0,0x0
ffffffffa08055d0:	afc20004 	sw	v0,4(s8)
ffffffffa08055d4:	3c020000 	lui	v0,0x0
ffffffffa08055d8:	64420000 	daddiu	v0,v0,0
ffffffffa08055dc:	00021438 	dsll	v0,v0,0x10
ffffffffa08055e0:	6442a081 	daddiu	v0,v0,-24447
ffffffffa08055e4:	00021438 	dsll	v0,v0,0x10
ffffffffa08055e8:	8fc30000 	lw	v1,0(s8)
ffffffffa08055ec:	ac4345f0 	sw	v1,17904(v0)
ffffffffa08055f0:	3c020000 	lui	v0,0x0
ffffffffa08055f4:	64420000 	daddiu	v0,v0,0
ffffffffa08055f8:	00021438 	dsll	v0,v0,0x10
ffffffffa08055fc:	6442a081 	daddiu	v0,v0,-24447
ffffffffa0805600:	00021438 	dsll	v0,v0,0x10
ffffffffa0805604:	8fc30004 	lw	v1,4(s8)
ffffffffa0805608:	ac4345f4 	sw	v1,17908(v0)
ffffffffa080560c:	03c0e82d 	move	sp,s8
ffffffffa0805610:	dfbe0018 	ld	s8,24(sp)
ffffffffa0805614:	67bd0020 	daddiu	sp,sp,32
ffffffffa0805618:	03e00008 	jr	ra
ffffffffa080561c:	00000000 	nop

ffffffffa0805620 <screen_write>:
ffffffffa0805620:	67bdffd0 	daddiu	sp,sp,-48
ffffffffa0805624:	ffbf0028 	sd	ra,40(sp)
ffffffffa0805628:	ffbe0020 	sd	s8,32(sp)
ffffffffa080562c:	03a0f02d 	move	s8,sp
ffffffffa0805630:	ffc40010 	sd	a0,16(s8)
ffffffffa0805634:	afc00000 	sw	zero,0(s8)
ffffffffa0805638:	dfc40010 	ld	a0,16(s8)
ffffffffa080563c:	0c202054 	jal	ffffffffa0808150 <strlen>
ffffffffa0805640:	00000000 	nop
ffffffffa0805644:	afc20004 	sw	v0,4(s8)
ffffffffa0805648:	afc00000 	sw	zero,0(s8)
ffffffffa080564c:	0820159f 	j	ffffffffa080567c <screen_write+0x5c>
ffffffffa0805650:	00000000 	nop
ffffffffa0805654:	8fc20000 	lw	v0,0(s8)
ffffffffa0805658:	dfc30010 	ld	v1,16(s8)
ffffffffa080565c:	0062102d 	daddu	v0,v1,v0
ffffffffa0805660:	80420000 	lb	v0,0(v0)
ffffffffa0805664:	0040202d 	move	a0,v0
ffffffffa0805668:	0c2013dc 	jal	ffffffffa0804f70 <screen_write_ch>
ffffffffa080566c:	00000000 	nop
ffffffffa0805670:	8fc20000 	lw	v0,0(s8)
ffffffffa0805674:	24420001 	addiu	v0,v0,1
ffffffffa0805678:	afc20000 	sw	v0,0(s8)
ffffffffa080567c:	8fc30000 	lw	v1,0(s8)
ffffffffa0805680:	8fc20004 	lw	v0,4(s8)
ffffffffa0805684:	0062102a 	slt	v0,v1,v0
ffffffffa0805688:	1440fff2 	bnez	v0,ffffffffa0805654 <screen_write+0x34>
ffffffffa080568c:	00000000 	nop
ffffffffa0805690:	03c0e82d 	move	sp,s8
ffffffffa0805694:	dfbf0028 	ld	ra,40(sp)
ffffffffa0805698:	dfbe0020 	ld	s8,32(sp)
ffffffffa080569c:	67bd0030 	daddiu	sp,sp,48
ffffffffa08056a0:	03e00008 	jr	ra
ffffffffa08056a4:	00000000 	nop

ffffffffa08056a8 <screen_reflush>:
ffffffffa08056a8:	67bdffe0 	daddiu	sp,sp,-32
ffffffffa08056ac:	ffbf0018 	sd	ra,24(sp)
ffffffffa08056b0:	ffbe0010 	sd	s8,16(sp)
ffffffffa08056b4:	03a0f02d 	move	s8,sp
ffffffffa08056b8:	afc00000 	sw	zero,0(s8)
ffffffffa08056bc:	08201617 	j	ffffffffa080585c <screen_reflush+0x1b4>
ffffffffa08056c0:	00000000 	nop
ffffffffa08056c4:	afc00004 	sw	zero,4(s8)
ffffffffa08056c8:	08201610 	j	ffffffffa0805840 <screen_reflush+0x198>
ffffffffa08056cc:	00000000 	nop
ffffffffa08056d0:	8fc20000 	lw	v0,0(s8)
ffffffffa08056d4:	00021100 	sll	v0,v0,0x4
ffffffffa08056d8:	00021880 	sll	v1,v0,0x2
ffffffffa08056dc:	00431021 	addu	v0,v0,v1
ffffffffa08056e0:	8fc30004 	lw	v1,4(s8)
ffffffffa08056e4:	00621021 	addu	v0,v1,v0
ffffffffa08056e8:	0040182d 	move	v1,v0
ffffffffa08056ec:	3c020000 	lui	v0,0x0
ffffffffa08056f0:	64420000 	daddiu	v0,v0,0
ffffffffa08056f4:	00021438 	dsll	v0,v0,0x10
ffffffffa08056f8:	6442a081 	daddiu	v0,v0,-24447
ffffffffa08056fc:	00021438 	dsll	v0,v0,0x10
ffffffffa0805700:	64421a90 	daddiu	v0,v0,6800
ffffffffa0805704:	0062102d 	daddu	v0,v1,v0
ffffffffa0805708:	80430000 	lb	v1,0(v0)
ffffffffa080570c:	8fc20000 	lw	v0,0(s8)
ffffffffa0805710:	00021100 	sll	v0,v0,0x4
ffffffffa0805714:	00022080 	sll	a0,v0,0x2
ffffffffa0805718:	00441021 	addu	v0,v0,a0
ffffffffa080571c:	8fc40004 	lw	a0,4(s8)
ffffffffa0805720:	00821021 	addu	v0,a0,v0
ffffffffa0805724:	0040202d 	move	a0,v0
ffffffffa0805728:	3c020000 	lui	v0,0x0
ffffffffa080572c:	64420000 	daddiu	v0,v0,0
ffffffffa0805730:	00021438 	dsll	v0,v0,0x10
ffffffffa0805734:	6442a081 	daddiu	v0,v0,-24447
ffffffffa0805738:	00021438 	dsll	v0,v0,0x10
ffffffffa080573c:	64422760 	daddiu	v0,v0,10080
ffffffffa0805740:	0082102d 	daddu	v0,a0,v0
ffffffffa0805744:	80420000 	lb	v0,0(v0)
ffffffffa0805748:	1062003a 	beq	v1,v0,ffffffffa0805834 <screen_reflush+0x18c>
ffffffffa080574c:	00000000 	nop
ffffffffa0805750:	8fc20004 	lw	v0,4(s8)
ffffffffa0805754:	24420001 	addiu	v0,v0,1
ffffffffa0805758:	0040182d 	move	v1,v0
ffffffffa080575c:	8fc20000 	lw	v0,0(s8)
ffffffffa0805760:	24420001 	addiu	v0,v0,1
ffffffffa0805764:	0060202d 	move	a0,v1
ffffffffa0805768:	0040282d 	move	a1,v0
ffffffffa080576c:	0c20131c 	jal	ffffffffa0804c70 <vt100_move_cursor>
ffffffffa0805770:	00000000 	nop
ffffffffa0805774:	8fc20000 	lw	v0,0(s8)
ffffffffa0805778:	00021100 	sll	v0,v0,0x4
ffffffffa080577c:	00021880 	sll	v1,v0,0x2
ffffffffa0805780:	00431021 	addu	v0,v0,v1
ffffffffa0805784:	8fc30004 	lw	v1,4(s8)
ffffffffa0805788:	00621021 	addu	v0,v1,v0
ffffffffa080578c:	0040182d 	move	v1,v0
ffffffffa0805790:	3c020000 	lui	v0,0x0
ffffffffa0805794:	64420000 	daddiu	v0,v0,0
ffffffffa0805798:	00021438 	dsll	v0,v0,0x10
ffffffffa080579c:	6442a081 	daddiu	v0,v0,-24447
ffffffffa08057a0:	00021438 	dsll	v0,v0,0x10
ffffffffa08057a4:	64421a90 	daddiu	v0,v0,6800
ffffffffa08057a8:	0062102d 	daddu	v0,v1,v0
ffffffffa08057ac:	80420000 	lb	v0,0(v0)
ffffffffa08057b0:	0040202d 	move	a0,v0
ffffffffa08057b4:	0c200104 	jal	ffffffffa0800410 <invoke_syscall>
ffffffffa08057b8:	00000000 	nop
ffffffffa08057bc:	8fc20000 	lw	v0,0(s8)
ffffffffa08057c0:	00021100 	sll	v0,v0,0x4
ffffffffa08057c4:	00021880 	sll	v1,v0,0x2
ffffffffa08057c8:	00431021 	addu	v0,v0,v1
ffffffffa08057cc:	8fc30004 	lw	v1,4(s8)
ffffffffa08057d0:	00621021 	addu	v0,v1,v0
ffffffffa08057d4:	0040202d 	move	a0,v0
ffffffffa08057d8:	8fc20000 	lw	v0,0(s8)
ffffffffa08057dc:	00021100 	sll	v0,v0,0x4
ffffffffa08057e0:	00021880 	sll	v1,v0,0x2
ffffffffa08057e4:	00431021 	addu	v0,v0,v1
ffffffffa08057e8:	8fc30004 	lw	v1,4(s8)
ffffffffa08057ec:	00621021 	addu	v0,v1,v0
ffffffffa08057f0:	0040182d 	move	v1,v0
ffffffffa08057f4:	3c020000 	lui	v0,0x0
ffffffffa08057f8:	64420000 	daddiu	v0,v0,0
ffffffffa08057fc:	00021438 	dsll	v0,v0,0x10
ffffffffa0805800:	6442a081 	daddiu	v0,v0,-24447
ffffffffa0805804:	00021438 	dsll	v0,v0,0x10
ffffffffa0805808:	64421a90 	daddiu	v0,v0,6800
ffffffffa080580c:	0062102d 	daddu	v0,v1,v0
ffffffffa0805810:	80430000 	lb	v1,0(v0)
ffffffffa0805814:	3c020000 	lui	v0,0x0
ffffffffa0805818:	64420000 	daddiu	v0,v0,0
ffffffffa080581c:	00021438 	dsll	v0,v0,0x10
ffffffffa0805820:	6442a081 	daddiu	v0,v0,-24447
ffffffffa0805824:	00021438 	dsll	v0,v0,0x10
ffffffffa0805828:	64422760 	daddiu	v0,v0,10080
ffffffffa080582c:	0082102d 	daddu	v0,a0,v0
ffffffffa0805830:	a0430000 	sb	v1,0(v0)
ffffffffa0805834:	8fc20004 	lw	v0,4(s8)
ffffffffa0805838:	24420001 	addiu	v0,v0,1
ffffffffa080583c:	afc20004 	sw	v0,4(s8)
ffffffffa0805840:	8fc20004 	lw	v0,4(s8)
ffffffffa0805844:	28420050 	slti	v0,v0,80
ffffffffa0805848:	1440ffa1 	bnez	v0,ffffffffa08056d0 <screen_reflush+0x28>
ffffffffa080584c:	00000000 	nop
ffffffffa0805850:	8fc20000 	lw	v0,0(s8)
ffffffffa0805854:	24420001 	addiu	v0,v0,1
ffffffffa0805858:	afc20000 	sw	v0,0(s8)
ffffffffa080585c:	8fc20000 	lw	v0,0(s8)
ffffffffa0805860:	28420029 	slti	v0,v0,41
ffffffffa0805864:	1440ff97 	bnez	v0,ffffffffa08056c4 <screen_reflush+0x1c>
ffffffffa0805868:	00000000 	nop
ffffffffa080586c:	3c020000 	lui	v0,0x0
ffffffffa0805870:	64420000 	daddiu	v0,v0,0
ffffffffa0805874:	00021438 	dsll	v0,v0,0x10
ffffffffa0805878:	6442a081 	daddiu	v0,v0,-24447
ffffffffa080587c:	00021438 	dsll	v0,v0,0x10
ffffffffa0805880:	8c4345f0 	lw	v1,17904(v0)
ffffffffa0805884:	3c020000 	lui	v0,0x0
ffffffffa0805888:	64420000 	daddiu	v0,v0,0
ffffffffa080588c:	00021438 	dsll	v0,v0,0x10
ffffffffa0805890:	6442a081 	daddiu	v0,v0,-24447
ffffffffa0805894:	00021438 	dsll	v0,v0,0x10
ffffffffa0805898:	8c4245f4 	lw	v0,17908(v0)
ffffffffa080589c:	0060202d 	move	a0,v1
ffffffffa08058a0:	0040282d 	move	a1,v0
ffffffffa08058a4:	0c20131c 	jal	ffffffffa0804c70 <vt100_move_cursor>
ffffffffa08058a8:	00000000 	nop
ffffffffa08058ac:	03c0e82d 	move	sp,s8
ffffffffa08058b0:	dfbf0018 	ld	ra,24(sp)
ffffffffa08058b4:	dfbe0010 	ld	s8,16(sp)
ffffffffa08058b8:	67bd0020 	daddiu	sp,sp,32
ffffffffa08058bc:	03e00008 	jr	ra
ffffffffa08058c0:	00000000 	nop

ffffffffa08058c4 <screen_reflush_shell>:
ffffffffa08058c4:	67bdffe0 	daddiu	sp,sp,-32
ffffffffa08058c8:	ffbf0018 	sd	ra,24(sp)
ffffffffa08058cc:	ffbe0010 	sd	s8,16(sp)
ffffffffa08058d0:	03a0f02d 	move	s8,sp
ffffffffa08058d4:	24020012 	li	v0,18
ffffffffa08058d8:	afc20000 	sw	v0,0(s8)
ffffffffa08058dc:	0820169f 	j	ffffffffa0805a7c <screen_reflush_shell+0x1b8>
ffffffffa08058e0:	00000000 	nop
ffffffffa08058e4:	afc00004 	sw	zero,4(s8)
ffffffffa08058e8:	08201698 	j	ffffffffa0805a60 <screen_reflush_shell+0x19c>
ffffffffa08058ec:	00000000 	nop
ffffffffa08058f0:	8fc20000 	lw	v0,0(s8)
ffffffffa08058f4:	00021100 	sll	v0,v0,0x4
ffffffffa08058f8:	00021880 	sll	v1,v0,0x2
ffffffffa08058fc:	00431021 	addu	v0,v0,v1
ffffffffa0805900:	8fc30004 	lw	v1,4(s8)
ffffffffa0805904:	00621021 	addu	v0,v1,v0
ffffffffa0805908:	0040182d 	move	v1,v0
ffffffffa080590c:	3c020000 	lui	v0,0x0
ffffffffa0805910:	64420000 	daddiu	v0,v0,0
ffffffffa0805914:	00021438 	dsll	v0,v0,0x10
ffffffffa0805918:	6442a081 	daddiu	v0,v0,-24447
ffffffffa080591c:	00021438 	dsll	v0,v0,0x10
ffffffffa0805920:	64421a90 	daddiu	v0,v0,6800
ffffffffa0805924:	0062102d 	daddu	v0,v1,v0
ffffffffa0805928:	80430000 	lb	v1,0(v0)
ffffffffa080592c:	8fc20000 	lw	v0,0(s8)
ffffffffa0805930:	00021100 	sll	v0,v0,0x4
ffffffffa0805934:	00022080 	sll	a0,v0,0x2
ffffffffa0805938:	00441021 	addu	v0,v0,a0
ffffffffa080593c:	8fc40004 	lw	a0,4(s8)
ffffffffa0805940:	00821021 	addu	v0,a0,v0
ffffffffa0805944:	0040202d 	move	a0,v0
ffffffffa0805948:	3c020000 	lui	v0,0x0
ffffffffa080594c:	64420000 	daddiu	v0,v0,0
ffffffffa0805950:	00021438 	dsll	v0,v0,0x10
ffffffffa0805954:	6442a081 	daddiu	v0,v0,-24447
ffffffffa0805958:	00021438 	dsll	v0,v0,0x10
ffffffffa080595c:	64422760 	daddiu	v0,v0,10080
ffffffffa0805960:	0082102d 	daddu	v0,a0,v0
ffffffffa0805964:	80420000 	lb	v0,0(v0)
ffffffffa0805968:	1062003a 	beq	v1,v0,ffffffffa0805a54 <screen_reflush_shell+0x190>
ffffffffa080596c:	00000000 	nop
ffffffffa0805970:	8fc20004 	lw	v0,4(s8)
ffffffffa0805974:	24420001 	addiu	v0,v0,1
ffffffffa0805978:	0040182d 	move	v1,v0
ffffffffa080597c:	8fc20000 	lw	v0,0(s8)
ffffffffa0805980:	24420001 	addiu	v0,v0,1
ffffffffa0805984:	0060202d 	move	a0,v1
ffffffffa0805988:	0040282d 	move	a1,v0
ffffffffa080598c:	0c20131c 	jal	ffffffffa0804c70 <vt100_move_cursor>
ffffffffa0805990:	00000000 	nop
ffffffffa0805994:	8fc20000 	lw	v0,0(s8)
ffffffffa0805998:	00021100 	sll	v0,v0,0x4
ffffffffa080599c:	00021880 	sll	v1,v0,0x2
ffffffffa08059a0:	00431021 	addu	v0,v0,v1
ffffffffa08059a4:	8fc30004 	lw	v1,4(s8)
ffffffffa08059a8:	00621021 	addu	v0,v1,v0
ffffffffa08059ac:	0040182d 	move	v1,v0
ffffffffa08059b0:	3c020000 	lui	v0,0x0
ffffffffa08059b4:	64420000 	daddiu	v0,v0,0
ffffffffa08059b8:	00021438 	dsll	v0,v0,0x10
ffffffffa08059bc:	6442a081 	daddiu	v0,v0,-24447
ffffffffa08059c0:	00021438 	dsll	v0,v0,0x10
ffffffffa08059c4:	64421a90 	daddiu	v0,v0,6800
ffffffffa08059c8:	0062102d 	daddu	v0,v1,v0
ffffffffa08059cc:	80420000 	lb	v0,0(v0)
ffffffffa08059d0:	0040202d 	move	a0,v0
ffffffffa08059d4:	0c200104 	jal	ffffffffa0800410 <invoke_syscall>
ffffffffa08059d8:	00000000 	nop
ffffffffa08059dc:	8fc20000 	lw	v0,0(s8)
ffffffffa08059e0:	00021100 	sll	v0,v0,0x4
ffffffffa08059e4:	00021880 	sll	v1,v0,0x2
ffffffffa08059e8:	00431021 	addu	v0,v0,v1
ffffffffa08059ec:	8fc30004 	lw	v1,4(s8)
ffffffffa08059f0:	00621021 	addu	v0,v1,v0
ffffffffa08059f4:	0040202d 	move	a0,v0
ffffffffa08059f8:	8fc20000 	lw	v0,0(s8)
ffffffffa08059fc:	00021100 	sll	v0,v0,0x4
ffffffffa0805a00:	00021880 	sll	v1,v0,0x2
ffffffffa0805a04:	00431021 	addu	v0,v0,v1
ffffffffa0805a08:	8fc30004 	lw	v1,4(s8)
ffffffffa0805a0c:	00621021 	addu	v0,v1,v0
ffffffffa0805a10:	0040182d 	move	v1,v0
ffffffffa0805a14:	3c020000 	lui	v0,0x0
ffffffffa0805a18:	64420000 	daddiu	v0,v0,0
ffffffffa0805a1c:	00021438 	dsll	v0,v0,0x10
ffffffffa0805a20:	6442a081 	daddiu	v0,v0,-24447
ffffffffa0805a24:	00021438 	dsll	v0,v0,0x10
ffffffffa0805a28:	64421a90 	daddiu	v0,v0,6800
ffffffffa0805a2c:	0062102d 	daddu	v0,v1,v0
ffffffffa0805a30:	80430000 	lb	v1,0(v0)
ffffffffa0805a34:	3c020000 	lui	v0,0x0
ffffffffa0805a38:	64420000 	daddiu	v0,v0,0
ffffffffa0805a3c:	00021438 	dsll	v0,v0,0x10
ffffffffa0805a40:	6442a081 	daddiu	v0,v0,-24447
ffffffffa0805a44:	00021438 	dsll	v0,v0,0x10
ffffffffa0805a48:	64422760 	daddiu	v0,v0,10080
ffffffffa0805a4c:	0082102d 	daddu	v0,a0,v0
ffffffffa0805a50:	a0430000 	sb	v1,0(v0)
ffffffffa0805a54:	8fc20004 	lw	v0,4(s8)
ffffffffa0805a58:	24420001 	addiu	v0,v0,1
ffffffffa0805a5c:	afc20004 	sw	v0,4(s8)
ffffffffa0805a60:	8fc20004 	lw	v0,4(s8)
ffffffffa0805a64:	28420050 	slti	v0,v0,80
ffffffffa0805a68:	1440ffa1 	bnez	v0,ffffffffa08058f0 <screen_reflush_shell+0x2c>
ffffffffa0805a6c:	00000000 	nop
ffffffffa0805a70:	8fc20000 	lw	v0,0(s8)
ffffffffa0805a74:	24420001 	addiu	v0,v0,1
ffffffffa0805a78:	afc20000 	sw	v0,0(s8)
ffffffffa0805a7c:	8fc20000 	lw	v0,0(s8)
ffffffffa0805a80:	28420029 	slti	v0,v0,41
ffffffffa0805a84:	1440ff97 	bnez	v0,ffffffffa08058e4 <screen_reflush_shell+0x20>
ffffffffa0805a88:	00000000 	nop
ffffffffa0805a8c:	3c020000 	lui	v0,0x0
ffffffffa0805a90:	64420000 	daddiu	v0,v0,0
ffffffffa0805a94:	00021438 	dsll	v0,v0,0x10
ffffffffa0805a98:	6442a081 	daddiu	v0,v0,-24447
ffffffffa0805a9c:	00021438 	dsll	v0,v0,0x10
ffffffffa0805aa0:	8c4345f0 	lw	v1,17904(v0)
ffffffffa0805aa4:	3c020000 	lui	v0,0x0
ffffffffa0805aa8:	64420000 	daddiu	v0,v0,0
ffffffffa0805aac:	00021438 	dsll	v0,v0,0x10
ffffffffa0805ab0:	6442a081 	daddiu	v0,v0,-24447
ffffffffa0805ab4:	00021438 	dsll	v0,v0,0x10
ffffffffa0805ab8:	8c4245f4 	lw	v0,17908(v0)
ffffffffa0805abc:	0060202d 	move	a0,v1
ffffffffa0805ac0:	0040282d 	move	a1,v0
ffffffffa0805ac4:	0c20131c 	jal	ffffffffa0804c70 <vt100_move_cursor>
ffffffffa0805ac8:	00000000 	nop
ffffffffa0805acc:	03c0e82d 	move	sp,s8
ffffffffa0805ad0:	dfbf0018 	ld	ra,24(sp)
ffffffffa0805ad4:	dfbe0010 	ld	s8,16(sp)
ffffffffa0805ad8:	67bd0020 	daddiu	sp,sp,32
ffffffffa0805adc:	03e00008 	jr	ra
ffffffffa0805ae0:	00000000 	nop
	...

ffffffffa0805af0 <init_memory>:
ffffffffa0805af0:	67bdfff0 	daddiu	sp,sp,-16
ffffffffa0805af4:	ffbe0008 	sd	s8,8(sp)
ffffffffa0805af8:	03a0f02d 	move	s8,sp
ffffffffa0805afc:	03c0e82d 	move	sp,s8
ffffffffa0805b00:	dfbe0008 	ld	s8,8(sp)
ffffffffa0805b04:	67bd0010 	daddiu	sp,sp,16
ffffffffa0805b08:	03e00008 	jr	ra
ffffffffa0805b0c:	00000000 	nop

ffffffffa0805b10 <init_pcb>:
ffffffffa0805b10:	67bdffe0 	daddiu	sp,sp,-32
ffffffffa0805b14:	ffbf0018 	sd	ra,24(sp)
ffffffffa0805b18:	ffbe0010 	sd	s8,16(sp)
ffffffffa0805b1c:	03a0f02d 	move	s8,sp
ffffffffa0805b20:	3c020000 	lui	v0,0x0
ffffffffa0805b24:	64420000 	daddiu	v0,v0,0
ffffffffa0805b28:	00021438 	dsll	v0,v0,0x10
ffffffffa0805b2c:	6442a081 	daddiu	v0,v0,-24447
ffffffffa0805b30:	00021438 	dsll	v0,v0,0x10
ffffffffa0805b34:	ac40b710 	sw	zero,-18672(v0)
ffffffffa0805b38:	24020001 	li	v0,1
ffffffffa0805b3c:	afc20000 	sw	v0,0(s8)
ffffffffa0805b40:	082016e6 	j	ffffffffa0805b98 <init_pcb+0x88>
ffffffffa0805b44:	00000000 	nop
ffffffffa0805b48:	3c050000 	lui	a1,0x0
ffffffffa0805b4c:	64a50000 	daddiu	a1,a1,0
ffffffffa0805b50:	00052c38 	dsll	a1,a1,0x10
ffffffffa0805b54:	64a5a081 	daddiu	a1,a1,-24447
ffffffffa0805b58:	00052c38 	dsll	a1,a1,0x10
ffffffffa0805b5c:	8fc40000 	lw	a0,0(s8)
ffffffffa0805b60:	0080182d 	move	v1,a0
ffffffffa0805b64:	00031178 	dsll	v0,v1,0x5
ffffffffa0805b68:	0040182d 	move	v1,v0
ffffffffa0805b6c:	000310b8 	dsll	v0,v1,0x2
ffffffffa0805b70:	0043102f 	dsubu	v0,v0,v1
ffffffffa0805b74:	0044102d 	daddu	v0,v0,a0
ffffffffa0805b78:	000210f8 	dsll	v0,v0,0x3
ffffffffa0805b7c:	64a34928 	daddiu	v1,a1,18728
ffffffffa0805b80:	0043102d 	daddu	v0,v0,v1
ffffffffa0805b84:	24030003 	li	v1,3
ffffffffa0805b88:	ac4302fc 	sw	v1,764(v0)
ffffffffa0805b8c:	8fc20000 	lw	v0,0(s8)
ffffffffa0805b90:	24420001 	addiu	v0,v0,1
ffffffffa0805b94:	afc20000 	sw	v0,0(s8)
ffffffffa0805b98:	8fc20000 	lw	v0,0(s8)
ffffffffa0805b9c:	28420020 	slti	v0,v0,32
ffffffffa0805ba0:	1440ffe9 	bnez	v0,ffffffffa0805b48 <init_pcb+0x38>
ffffffffa0805ba4:	00000000 	nop
ffffffffa0805ba8:	3c020000 	lui	v0,0x0
ffffffffa0805bac:	64420000 	daddiu	v0,v0,0
ffffffffa0805bb0:	00021438 	dsll	v0,v0,0x10
ffffffffa0805bb4:	6442a081 	daddiu	v0,v0,-24447
ffffffffa0805bb8:	00021438 	dsll	v0,v0,0x10
ffffffffa0805bbc:	64444910 	daddiu	a0,v0,18704
ffffffffa0805bc0:	0c201d7c 	jal	ffffffffa08075f0 <queue_init>
ffffffffa0805bc4:	00000000 	nop
ffffffffa0805bc8:	3c020000 	lui	v0,0x0
ffffffffa0805bcc:	64420000 	daddiu	v0,v0,0
ffffffffa0805bd0:	00021438 	dsll	v0,v0,0x10
ffffffffa0805bd4:	6442a081 	daddiu	v0,v0,-24447
ffffffffa0805bd8:	00021438 	dsll	v0,v0,0x10
ffffffffa0805bdc:	64444900 	daddiu	a0,v0,18688
ffffffffa0805be0:	0c201d7c 	jal	ffffffffa08075f0 <queue_init>
ffffffffa0805be4:	00000000 	nop
ffffffffa0805be8:	3c020000 	lui	v0,0x0
ffffffffa0805bec:	64420000 	daddiu	v0,v0,0
ffffffffa0805bf0:	00021438 	dsll	v0,v0,0x10
ffffffffa0805bf4:	6442a081 	daddiu	v0,v0,-24447
ffffffffa0805bf8:	00021438 	dsll	v0,v0,0x10
ffffffffa0805bfc:	64424928 	daddiu	v0,v0,18728
ffffffffa0805c00:	3c03a0f0 	lui	v1,0xa0f0
ffffffffa0805c04:	fc430280 	sd	v1,640(v0)
ffffffffa0805c08:	3c020000 	lui	v0,0x0
ffffffffa0805c0c:	64420000 	daddiu	v0,v0,0
ffffffffa0805c10:	00021438 	dsll	v0,v0,0x10
ffffffffa0805c14:	6442a081 	daddiu	v0,v0,-24447
ffffffffa0805c18:	00021438 	dsll	v0,v0,0x10
ffffffffa0805c1c:	64424928 	daddiu	v0,v0,18728
ffffffffa0805c20:	3c03a0f2 	lui	v1,0xa0f2
ffffffffa0805c24:	fc430288 	sd	v1,648(v0)
ffffffffa0805c28:	3c020000 	lui	v0,0x0
ffffffffa0805c2c:	64420000 	daddiu	v0,v0,0
ffffffffa0805c30:	00021438 	dsll	v0,v0,0x10
ffffffffa0805c34:	6442a081 	daddiu	v0,v0,-24447
ffffffffa0805c38:	00021438 	dsll	v0,v0,0x10
ffffffffa0805c3c:	64424928 	daddiu	v0,v0,18728
ffffffffa0805c40:	fc4002c8 	sd	zero,712(v0)
ffffffffa0805c44:	3c020000 	lui	v0,0x0
ffffffffa0805c48:	64420000 	daddiu	v0,v0,0
ffffffffa0805c4c:	00021438 	dsll	v0,v0,0x10
ffffffffa0805c50:	6442a081 	daddiu	v0,v0,-24447
ffffffffa0805c54:	00021438 	dsll	v0,v0,0x10
ffffffffa0805c58:	64424928 	daddiu	v0,v0,18728
ffffffffa0805c5c:	fc400298 	sd	zero,664(v0)
ffffffffa0805c60:	3c020000 	lui	v0,0x0
ffffffffa0805c64:	64420000 	daddiu	v0,v0,0
ffffffffa0805c68:	00021438 	dsll	v0,v0,0x10
ffffffffa0805c6c:	6442a081 	daddiu	v0,v0,-24447
ffffffffa0805c70:	00021438 	dsll	v0,v0,0x10
ffffffffa0805c74:	64424928 	daddiu	v0,v0,18728
ffffffffa0805c78:	3c030000 	lui	v1,0x0
ffffffffa0805c7c:	64630000 	daddiu	v1,v1,0
ffffffffa0805c80:	00031c38 	dsll	v1,v1,0x10
ffffffffa0805c84:	6463a081 	daddiu	v1,v1,-24447
ffffffffa0805c88:	00031c38 	dsll	v1,v1,0x10
ffffffffa0805c8c:	64634c30 	daddiu	v1,v1,19504
ffffffffa0805c90:	fc4302a0 	sd	v1,672(v0)
ffffffffa0805c94:	0000202d 	move	a0,zero
ffffffffa0805c98:	3c020000 	lui	v0,0x0
ffffffffa0805c9c:	64420000 	daddiu	v0,v0,0
ffffffffa0805ca0:	00021438 	dsll	v0,v0,0x10
ffffffffa0805ca4:	6442a081 	daddiu	v0,v0,-24447
ffffffffa0805ca8:	00021438 	dsll	v0,v0,0x10
ffffffffa0805cac:	64454928 	daddiu	a1,v0,18728
ffffffffa0805cb0:	3c020000 	lui	v0,0x0
ffffffffa0805cb4:	64420000 	daddiu	v0,v0,0
ffffffffa0805cb8:	00021438 	dsll	v0,v0,0x10
ffffffffa0805cbc:	6442a081 	daddiu	v0,v0,-24447
ffffffffa0805cc0:	00021438 	dsll	v0,v0,0x10
ffffffffa0805cc4:	6446b730 	daddiu	a2,v0,-18640
ffffffffa0805cc8:	0c201a30 	jal	ffffffffa08068c0 <set_pcb>
ffffffffa0805ccc:	00000000 	nop
ffffffffa0805cd0:	3c020000 	lui	v0,0x0
ffffffffa0805cd4:	64420000 	daddiu	v0,v0,0
ffffffffa0805cd8:	00021438 	dsll	v0,v0,0x10
ffffffffa0805cdc:	6442a081 	daddiu	v0,v0,-24447
ffffffffa0805ce0:	00021438 	dsll	v0,v0,0x10
ffffffffa0805ce4:	64444910 	daddiu	a0,v0,18704
ffffffffa0805ce8:	3c020000 	lui	v0,0x0
ffffffffa0805cec:	64420000 	daddiu	v0,v0,0
ffffffffa0805cf0:	00021438 	dsll	v0,v0,0x10
ffffffffa0805cf4:	6442a081 	daddiu	v0,v0,-24447
ffffffffa0805cf8:	00021438 	dsll	v0,v0,0x10
ffffffffa0805cfc:	64454928 	daddiu	a1,v0,18728
ffffffffa0805d00:	0c201d9c 	jal	ffffffffa0807670 <queue_push>
ffffffffa0805d04:	00000000 	nop
ffffffffa0805d08:	3c020000 	lui	v0,0x0
ffffffffa0805d0c:	64420000 	daddiu	v0,v0,0
ffffffffa0805d10:	00021438 	dsll	v0,v0,0x10
ffffffffa0805d14:	6442a081 	daddiu	v0,v0,-24447
ffffffffa0805d18:	00021438 	dsll	v0,v0,0x10
ffffffffa0805d1c:	64424928 	daddiu	v0,v0,18728
ffffffffa0805d20:	ac400300 	sw	zero,768(v0)
ffffffffa0805d24:	3c020000 	lui	v0,0x0
ffffffffa0805d28:	64420000 	daddiu	v0,v0,0
ffffffffa0805d2c:	00021438 	dsll	v0,v0,0x10
ffffffffa0805d30:	6442a081 	daddiu	v0,v0,-24447
ffffffffa0805d34:	00021438 	dsll	v0,v0,0x10
ffffffffa0805d38:	64424928 	daddiu	v0,v0,18728
ffffffffa0805d3c:	24030012 	li	v1,18
ffffffffa0805d40:	ac430304 	sw	v1,772(v0)
ffffffffa0805d44:	3c020000 	lui	v0,0x0
ffffffffa0805d48:	64420000 	daddiu	v0,v0,0
ffffffffa0805d4c:	00021438 	dsll	v0,v0,0x10
ffffffffa0805d50:	6442a081 	daddiu	v0,v0,-24447
ffffffffa0805d54:	00021438 	dsll	v0,v0,0x10
ffffffffa0805d58:	64424928 	daddiu	v0,v0,18728
ffffffffa0805d5c:	24030001 	li	v1,1
ffffffffa0805d60:	ac4302fc 	sw	v1,764(v0)
ffffffffa0805d64:	3c020000 	lui	v0,0x0
ffffffffa0805d68:	64420000 	daddiu	v0,v0,0
ffffffffa0805d6c:	00021438 	dsll	v0,v0,0x10
ffffffffa0805d70:	6442a081 	daddiu	v0,v0,-24447
ffffffffa0805d74:	00021438 	dsll	v0,v0,0x10
ffffffffa0805d78:	64424928 	daddiu	v0,v0,18728
ffffffffa0805d7c:	3c03a0f0 	lui	v1,0xa0f0
ffffffffa0805d80:	34631000 	ori	v1,v1,0x1000
ffffffffa0805d84:	fc430588 	sd	v1,1416(v0)
ffffffffa0805d88:	3c020000 	lui	v0,0x0
ffffffffa0805d8c:	64420000 	daddiu	v0,v0,0
ffffffffa0805d90:	00021438 	dsll	v0,v0,0x10
ffffffffa0805d94:	6442a081 	daddiu	v0,v0,-24447
ffffffffa0805d98:	00021438 	dsll	v0,v0,0x10
ffffffffa0805d9c:	64424928 	daddiu	v0,v0,18728
ffffffffa0805da0:	3c03a0f2 	lui	v1,0xa0f2
ffffffffa0805da4:	34631000 	ori	v1,v1,0x1000
ffffffffa0805da8:	fc430590 	sd	v1,1424(v0)
ffffffffa0805dac:	3c020000 	lui	v0,0x0
ffffffffa0805db0:	64420000 	daddiu	v0,v0,0
ffffffffa0805db4:	00021438 	dsll	v0,v0,0x10
ffffffffa0805db8:	6442a081 	daddiu	v0,v0,-24447
ffffffffa0805dbc:	00021438 	dsll	v0,v0,0x10
ffffffffa0805dc0:	64424928 	daddiu	v0,v0,18728
ffffffffa0805dc4:	fc4005d0 	sd	zero,1488(v0)
ffffffffa0805dc8:	3c020000 	lui	v0,0x0
ffffffffa0805dcc:	64420000 	daddiu	v0,v0,0
ffffffffa0805dd0:	00021438 	dsll	v0,v0,0x10
ffffffffa0805dd4:	6442a081 	daddiu	v0,v0,-24447
ffffffffa0805dd8:	00021438 	dsll	v0,v0,0x10
ffffffffa0805ddc:	64424928 	daddiu	v0,v0,18728
ffffffffa0805de0:	fc4005a0 	sd	zero,1440(v0)
ffffffffa0805de4:	3c020000 	lui	v0,0x0
ffffffffa0805de8:	64420000 	daddiu	v0,v0,0
ffffffffa0805dec:	00021438 	dsll	v0,v0,0x10
ffffffffa0805df0:	6442a081 	daddiu	v0,v0,-24447
ffffffffa0805df4:	00021438 	dsll	v0,v0,0x10
ffffffffa0805df8:	64424928 	daddiu	v0,v0,18728
ffffffffa0805dfc:	3c030000 	lui	v1,0x0
ffffffffa0805e00:	64630000 	daddiu	v1,v1,0
ffffffffa0805e04:	00031c38 	dsll	v1,v1,0x10
ffffffffa0805e08:	6463a081 	daddiu	v1,v1,-24447
ffffffffa0805e0c:	00031c38 	dsll	v1,v1,0x10
ffffffffa0805e10:	64634928 	daddiu	v1,v1,18728
ffffffffa0805e14:	fc4305a8 	sd	v1,1448(v0)
ffffffffa0805e18:	3c020000 	lui	v0,0x0
ffffffffa0805e1c:	64420000 	daddiu	v0,v0,0
ffffffffa0805e20:	00021438 	dsll	v0,v0,0x10
ffffffffa0805e24:	6442a081 	daddiu	v0,v0,-24447
ffffffffa0805e28:	00021438 	dsll	v0,v0,0x10
ffffffffa0805e2c:	64424928 	daddiu	v0,v0,18728
ffffffffa0805e30:	dc430588 	ld	v1,1416(v0)
ffffffffa0805e34:	3c020000 	lui	v0,0x0
ffffffffa0805e38:	64420000 	daddiu	v0,v0,0
ffffffffa0805e3c:	00021438 	dsll	v0,v0,0x10
ffffffffa0805e40:	6442a081 	daddiu	v0,v0,-24447
ffffffffa0805e44:	00021438 	dsll	v0,v0,0x10
ffffffffa0805e48:	64424928 	daddiu	v0,v0,18728
ffffffffa0805e4c:	fc4303f0 	sd	v1,1008(v0)
ffffffffa0805e50:	3c020000 	lui	v0,0x0
ffffffffa0805e54:	64420000 	daddiu	v0,v0,0
ffffffffa0805e58:	00021438 	dsll	v0,v0,0x10
ffffffffa0805e5c:	6442a081 	daddiu	v0,v0,-24447
ffffffffa0805e60:	00021438 	dsll	v0,v0,0x10
ffffffffa0805e64:	64424928 	daddiu	v0,v0,18728
ffffffffa0805e68:	dc430590 	ld	v1,1424(v0)
ffffffffa0805e6c:	3c020000 	lui	v0,0x0
ffffffffa0805e70:	64420000 	daddiu	v0,v0,0
ffffffffa0805e74:	00021438 	dsll	v0,v0,0x10
ffffffffa0805e78:	6442a081 	daddiu	v0,v0,-24447
ffffffffa0805e7c:	00021438 	dsll	v0,v0,0x10
ffffffffa0805e80:	64424928 	daddiu	v0,v0,18728
ffffffffa0805e84:	fc430530 	sd	v1,1328(v0)
ffffffffa0805e88:	3c020000 	lui	v0,0x0
ffffffffa0805e8c:	64420000 	daddiu	v0,v0,0
ffffffffa0805e90:	00021438 	dsll	v0,v0,0x10
ffffffffa0805e94:	6442a081 	daddiu	v0,v0,-24447
ffffffffa0805e98:	00021438 	dsll	v0,v0,0x10
ffffffffa0805e9c:	3c030000 	lui	v1,0x0
ffffffffa0805ea0:	64630000 	daddiu	v1,v1,0
ffffffffa0805ea4:	00031c38 	dsll	v1,v1,0x10
ffffffffa0805ea8:	6463a081 	daddiu	v1,v1,-24447
ffffffffa0805eac:	00031c38 	dsll	v1,v1,0x10
ffffffffa0805eb0:	64634c30 	daddiu	v1,v1,19504
ffffffffa0805eb4:	fc434920 	sd	v1,18720(v0)
ffffffffa0805eb8:	03c0e82d 	move	sp,s8
ffffffffa0805ebc:	dfbf0018 	ld	ra,24(sp)
ffffffffa0805ec0:	dfbe0010 	ld	s8,16(sp)
ffffffffa0805ec4:	67bd0020 	daddiu	sp,sp,32
ffffffffa0805ec8:	03e00008 	jr	ra
ffffffffa0805ecc:	00000000 	nop

ffffffffa0805ed0 <init_exception_handler>:
ffffffffa0805ed0:	67bdfff0 	daddiu	sp,sp,-16
ffffffffa0805ed4:	ffbe0008 	sd	s8,8(sp)
ffffffffa0805ed8:	03a0f02d 	move	s8,sp
ffffffffa0805edc:	03c0e82d 	move	sp,s8
ffffffffa0805ee0:	dfbe0008 	ld	s8,8(sp)
ffffffffa0805ee4:	67bd0010 	daddiu	sp,sp,16
ffffffffa0805ee8:	03e00008 	jr	ra
ffffffffa0805eec:	00000000 	nop

ffffffffa0805ef0 <init_exception>:
ffffffffa0805ef0:	67bdfff0 	daddiu	sp,sp,-16
ffffffffa0805ef4:	ffbe0008 	sd	s8,8(sp)
ffffffffa0805ef8:	03a0f02d 	move	s8,sp
ffffffffa0805efc:	03c0e82d 	move	sp,s8
ffffffffa0805f00:	dfbe0008 	ld	s8,8(sp)
ffffffffa0805f04:	67bd0010 	daddiu	sp,sp,16
ffffffffa0805f08:	03e00008 	jr	ra
ffffffffa0805f0c:	00000000 	nop

ffffffffa0805f10 <init_syscall>:
ffffffffa0805f10:	67bdfff0 	daddiu	sp,sp,-16
ffffffffa0805f14:	ffbe0008 	sd	s8,8(sp)
ffffffffa0805f18:	03a0f02d 	move	s8,sp
ffffffffa0805f1c:	03c0e82d 	move	sp,s8
ffffffffa0805f20:	dfbe0008 	ld	s8,8(sp)
ffffffffa0805f24:	67bd0010 	daddiu	sp,sp,16
ffffffffa0805f28:	03e00008 	jr	ra
ffffffffa0805f2c:	00000000 	nop

ffffffffa0805f30 <irq_timer>:
ffffffffa0805f30:	67bdfff0 	daddiu	sp,sp,-16
ffffffffa0805f34:	ffbf0008 	sd	ra,8(sp)
ffffffffa0805f38:	ffbe0000 	sd	s8,0(sp)
ffffffffa0805f3c:	03a0f02d 	move	s8,sp
ffffffffa0805f40:	0c2015aa 	jal	ffffffffa08056a8 <screen_reflush>
ffffffffa0805f44:	00000000 	nop
ffffffffa0805f48:	03c0e82d 	move	sp,s8
ffffffffa0805f4c:	dfbf0008 	ld	ra,8(sp)
ffffffffa0805f50:	dfbe0000 	ld	s8,0(sp)
ffffffffa0805f54:	67bd0010 	daddiu	sp,sp,16
ffffffffa0805f58:	03e00008 	jr	ra
ffffffffa0805f5c:	00000000 	nop

ffffffffa0805f60 <interrupt_helper>:
ffffffffa0805f60:	67bdffe0 	daddiu	sp,sp,-32
ffffffffa0805f64:	ffbe0018 	sd	s8,24(sp)
ffffffffa0805f68:	03a0f02d 	move	s8,sp
ffffffffa0805f6c:	0080182d 	move	v1,a0
ffffffffa0805f70:	00a0102d 	move	v0,a1
ffffffffa0805f74:	00031800 	sll	v1,v1,0x0
ffffffffa0805f78:	afc30000 	sw	v1,0(s8)
ffffffffa0805f7c:	00021000 	sll	v0,v0,0x0
ffffffffa0805f80:	afc20004 	sw	v0,4(s8)
ffffffffa0805f84:	03c0e82d 	move	sp,s8
ffffffffa0805f88:	dfbe0018 	ld	s8,24(sp)
ffffffffa0805f8c:	67bd0020 	daddiu	sp,sp,32
ffffffffa0805f90:	03e00008 	jr	ra
ffffffffa0805f94:	00000000 	nop

ffffffffa0805f98 <other_exception_handler>:
ffffffffa0805f98:	67bdfff0 	daddiu	sp,sp,-16
ffffffffa0805f9c:	ffbe0008 	sd	s8,8(sp)
ffffffffa0805fa0:	03a0f02d 	move	s8,sp
ffffffffa0805fa4:	03c0e82d 	move	sp,s8
ffffffffa0805fa8:	dfbe0008 	ld	s8,8(sp)
ffffffffa0805fac:	67bd0010 	daddiu	sp,sp,16
ffffffffa0805fb0:	03e00008 	jr	ra
ffffffffa0805fb4:	00000000 	nop
	...

ffffffffa0805fc0 <do_barrier_init>:
ffffffffa0805fc0:	67bdffe0 	daddiu	sp,sp,-32
ffffffffa0805fc4:	ffbe0018 	sd	s8,24(sp)
ffffffffa0805fc8:	03a0f02d 	move	s8,sp
ffffffffa0805fcc:	ffc40000 	sd	a0,0(s8)
ffffffffa0805fd0:	00a0102d 	move	v0,a1
ffffffffa0805fd4:	00021000 	sll	v0,v0,0x0
ffffffffa0805fd8:	afc20008 	sw	v0,8(s8)
ffffffffa0805fdc:	dfc20000 	ld	v0,0(s8)
ffffffffa0805fe0:	8fc30008 	lw	v1,8(s8)
ffffffffa0805fe4:	ac430000 	sw	v1,0(v0)
ffffffffa0805fe8:	dfc20000 	ld	v0,0(s8)
ffffffffa0805fec:	ac400004 	sw	zero,4(v0)
ffffffffa0805ff0:	03c0e82d 	move	sp,s8
ffffffffa0805ff4:	dfbe0018 	ld	s8,24(sp)
ffffffffa0805ff8:	67bd0020 	daddiu	sp,sp,32
ffffffffa0805ffc:	03e00008 	jr	ra
ffffffffa0806000:	00000000 	nop

ffffffffa0806004 <do_barrier_wait>:
ffffffffa0806004:	67bdffe0 	daddiu	sp,sp,-32
ffffffffa0806008:	ffbf0018 	sd	ra,24(sp)
ffffffffa080600c:	ffbe0010 	sd	s8,16(sp)
ffffffffa0806010:	03a0f02d 	move	s8,sp
ffffffffa0806014:	ffc40000 	sd	a0,0(s8)
ffffffffa0806018:	dfc20000 	ld	v0,0(s8)
ffffffffa080601c:	8c420004 	lw	v0,4(v0)
ffffffffa0806020:	24420001 	addiu	v0,v0,1
ffffffffa0806024:	0040182d 	move	v1,v0
ffffffffa0806028:	dfc20000 	ld	v0,0(s8)
ffffffffa080602c:	ac430004 	sw	v1,4(v0)
ffffffffa0806030:	dfc20000 	ld	v0,0(s8)
ffffffffa0806034:	8c430004 	lw	v1,4(v0)
ffffffffa0806038:	dfc20000 	ld	v0,0(s8)
ffffffffa080603c:	8c420000 	lw	v0,0(v0)
ffffffffa0806040:	0062102a 	slt	v0,v1,v0
ffffffffa0806044:	10400008 	beqz	v0,ffffffffa0806068 <do_barrier_wait+0x64>
ffffffffa0806048:	00000000 	nop
ffffffffa080604c:	dfc20000 	ld	v0,0(s8)
ffffffffa0806050:	64420008 	daddiu	v0,v0,8
ffffffffa0806054:	0040202d 	move	a0,v0
ffffffffa0806058:	0c201b32 	jal	ffffffffa0806cc8 <do_block>
ffffffffa080605c:	00000000 	nop
ffffffffa0806060:	08201821 	j	ffffffffa0806084 <do_barrier_wait+0x80>
ffffffffa0806064:	00000000 	nop
ffffffffa0806068:	dfc20000 	ld	v0,0(s8)
ffffffffa080606c:	64420008 	daddiu	v0,v0,8
ffffffffa0806070:	0040202d 	move	a0,v0
ffffffffa0806074:	0c201b75 	jal	ffffffffa0806dd4 <do_unblock_all>
ffffffffa0806078:	00000000 	nop
ffffffffa080607c:	dfc20000 	ld	v0,0(s8)
ffffffffa0806080:	ac400004 	sw	zero,4(v0)
ffffffffa0806084:	03c0e82d 	move	sp,s8
ffffffffa0806088:	dfbf0018 	ld	ra,24(sp)
ffffffffa080608c:	dfbe0010 	ld	s8,16(sp)
ffffffffa0806090:	67bd0020 	daddiu	sp,sp,32
ffffffffa0806094:	03e00008 	jr	ra
ffffffffa0806098:	00000000 	nop
ffffffffa080609c:	00000000 	nop

ffffffffa08060a0 <do_condition_init>:
ffffffffa08060a0:	67bdffe0 	daddiu	sp,sp,-32
ffffffffa08060a4:	ffbf0018 	sd	ra,24(sp)
ffffffffa08060a8:	ffbe0010 	sd	s8,16(sp)
ffffffffa08060ac:	03a0f02d 	move	s8,sp
ffffffffa08060b0:	ffc40000 	sd	a0,0(s8)
ffffffffa08060b4:	dfc20000 	ld	v0,0(s8)
ffffffffa08060b8:	0040202d 	move	a0,v0
ffffffffa08060bc:	0c201d7c 	jal	ffffffffa08075f0 <queue_init>
ffffffffa08060c0:	00000000 	nop
ffffffffa08060c4:	03c0e82d 	move	sp,s8
ffffffffa08060c8:	dfbf0018 	ld	ra,24(sp)
ffffffffa08060cc:	dfbe0010 	ld	s8,16(sp)
ffffffffa08060d0:	67bd0020 	daddiu	sp,sp,32
ffffffffa08060d4:	03e00008 	jr	ra
ffffffffa08060d8:	00000000 	nop

ffffffffa08060dc <do_condition_wait>:
ffffffffa08060dc:	67bdffe0 	daddiu	sp,sp,-32
ffffffffa08060e0:	ffbf0018 	sd	ra,24(sp)
ffffffffa08060e4:	ffbe0010 	sd	s8,16(sp)
ffffffffa08060e8:	03a0f02d 	move	s8,sp
ffffffffa08060ec:	ffc40000 	sd	a0,0(s8)
ffffffffa08060f0:	ffc50008 	sd	a1,8(s8)
ffffffffa08060f4:	dfc40000 	ld	a0,0(s8)
ffffffffa08060f8:	0c201937 	jal	ffffffffa08064dc <do_mutex_lock_release>
ffffffffa08060fc:	00000000 	nop
ffffffffa0806100:	dfc20008 	ld	v0,8(s8)
ffffffffa0806104:	0040202d 	move	a0,v0
ffffffffa0806108:	0c201b32 	jal	ffffffffa0806cc8 <do_block>
ffffffffa080610c:	00000000 	nop
ffffffffa0806110:	dfc40000 	ld	a0,0(s8)
ffffffffa0806114:	0c201912 	jal	ffffffffa0806448 <do_mutex_lock_acquire>
ffffffffa0806118:	00000000 	nop
ffffffffa080611c:	03c0e82d 	move	sp,s8
ffffffffa0806120:	dfbf0018 	ld	ra,24(sp)
ffffffffa0806124:	dfbe0010 	ld	s8,16(sp)
ffffffffa0806128:	67bd0020 	daddiu	sp,sp,32
ffffffffa080612c:	03e00008 	jr	ra
ffffffffa0806130:	00000000 	nop

ffffffffa0806134 <do_condition_signal>:
ffffffffa0806134:	67bdffe0 	daddiu	sp,sp,-32
ffffffffa0806138:	ffbf0018 	sd	ra,24(sp)
ffffffffa080613c:	ffbe0010 	sd	s8,16(sp)
ffffffffa0806140:	03a0f02d 	move	s8,sp
ffffffffa0806144:	ffc40000 	sd	a0,0(s8)
ffffffffa0806148:	dfc20000 	ld	v0,0(s8)
ffffffffa080614c:	0040202d 	move	a0,v0
ffffffffa0806150:	0c201b58 	jal	ffffffffa0806d60 <do_unblock_one>
ffffffffa0806154:	00000000 	nop
ffffffffa0806158:	03c0e82d 	move	sp,s8
ffffffffa080615c:	dfbf0018 	ld	ra,24(sp)
ffffffffa0806160:	dfbe0010 	ld	s8,16(sp)
ffffffffa0806164:	67bd0020 	daddiu	sp,sp,32
ffffffffa0806168:	03e00008 	jr	ra
ffffffffa080616c:	00000000 	nop

ffffffffa0806170 <do_condition_broadcast>:
ffffffffa0806170:	67bdffe0 	daddiu	sp,sp,-32
ffffffffa0806174:	ffbf0018 	sd	ra,24(sp)
ffffffffa0806178:	ffbe0010 	sd	s8,16(sp)
ffffffffa080617c:	03a0f02d 	move	s8,sp
ffffffffa0806180:	ffc40000 	sd	a0,0(s8)
ffffffffa0806184:	dfc20000 	ld	v0,0(s8)
ffffffffa0806188:	0040202d 	move	a0,v0
ffffffffa080618c:	0c201b75 	jal	ffffffffa0806dd4 <do_unblock_all>
ffffffffa0806190:	00000000 	nop
ffffffffa0806194:	03c0e82d 	move	sp,s8
ffffffffa0806198:	dfbf0018 	ld	ra,24(sp)
ffffffffa080619c:	dfbe0010 	ld	s8,16(sp)
ffffffffa08061a0:	67bd0020 	daddiu	sp,sp,32
ffffffffa08061a4:	03e00008 	jr	ra
ffffffffa08061a8:	00000000 	nop
ffffffffa08061ac:	00000000 	nop

ffffffffa08061b0 <do_semaphore_init>:
ffffffffa08061b0:	67bdffe0 	daddiu	sp,sp,-32
ffffffffa08061b4:	ffbe0018 	sd	s8,24(sp)
ffffffffa08061b8:	03a0f02d 	move	s8,sp
ffffffffa08061bc:	ffc40000 	sd	a0,0(s8)
ffffffffa08061c0:	00a0102d 	move	v0,a1
ffffffffa08061c4:	00021000 	sll	v0,v0,0x0
ffffffffa08061c8:	afc20008 	sw	v0,8(s8)
ffffffffa08061cc:	dfc20000 	ld	v0,0(s8)
ffffffffa08061d0:	8fc30008 	lw	v1,8(s8)
ffffffffa08061d4:	ac430000 	sw	v1,0(v0)
ffffffffa08061d8:	03c0e82d 	move	sp,s8
ffffffffa08061dc:	dfbe0018 	ld	s8,24(sp)
ffffffffa08061e0:	67bd0020 	daddiu	sp,sp,32
ffffffffa08061e4:	03e00008 	jr	ra
ffffffffa08061e8:	00000000 	nop

ffffffffa08061ec <do_semaphore_up>:
ffffffffa08061ec:	67bdffe0 	daddiu	sp,sp,-32
ffffffffa08061f0:	ffbf0018 	sd	ra,24(sp)
ffffffffa08061f4:	ffbe0010 	sd	s8,16(sp)
ffffffffa08061f8:	03a0f02d 	move	s8,sp
ffffffffa08061fc:	ffc40000 	sd	a0,0(s8)
ffffffffa0806200:	dfc20000 	ld	v0,0(s8)
ffffffffa0806204:	8c420000 	lw	v0,0(v0)
ffffffffa0806208:	24420001 	addiu	v0,v0,1
ffffffffa080620c:	0040182d 	move	v1,v0
ffffffffa0806210:	dfc20000 	ld	v0,0(s8)
ffffffffa0806214:	ac430000 	sw	v1,0(v0)
ffffffffa0806218:	dfc20000 	ld	v0,0(s8)
ffffffffa080621c:	8c420000 	lw	v0,0(v0)
ffffffffa0806220:	14400006 	bnez	v0,ffffffffa080623c <do_semaphore_up+0x50>
ffffffffa0806224:	00000000 	nop
ffffffffa0806228:	dfc20000 	ld	v0,0(s8)
ffffffffa080622c:	64420008 	daddiu	v0,v0,8
ffffffffa0806230:	0040202d 	move	a0,v0
ffffffffa0806234:	0c201b58 	jal	ffffffffa0806d60 <do_unblock_one>
ffffffffa0806238:	00000000 	nop
ffffffffa080623c:	03c0e82d 	move	sp,s8
ffffffffa0806240:	dfbf0018 	ld	ra,24(sp)
ffffffffa0806244:	dfbe0010 	ld	s8,16(sp)
ffffffffa0806248:	67bd0020 	daddiu	sp,sp,32
ffffffffa080624c:	03e00008 	jr	ra
ffffffffa0806250:	00000000 	nop

ffffffffa0806254 <do_semaphore_down>:
ffffffffa0806254:	67bdffe0 	daddiu	sp,sp,-32
ffffffffa0806258:	ffbf0018 	sd	ra,24(sp)
ffffffffa080625c:	ffbe0010 	sd	s8,16(sp)
ffffffffa0806260:	03a0f02d 	move	s8,sp
ffffffffa0806264:	ffc40000 	sd	a0,0(s8)
ffffffffa0806268:	dfc20000 	ld	v0,0(s8)
ffffffffa080626c:	8c420000 	lw	v0,0(v0)
ffffffffa0806270:	2442ffff 	addiu	v0,v0,-1
ffffffffa0806274:	0040182d 	move	v1,v0
ffffffffa0806278:	dfc20000 	ld	v0,0(s8)
ffffffffa080627c:	ac430000 	sw	v1,0(v0)
ffffffffa0806280:	dfc20000 	ld	v0,0(s8)
ffffffffa0806284:	8c420000 	lw	v0,0(v0)
ffffffffa0806288:	04410006 	bgez	v0,ffffffffa08062a4 <do_semaphore_down+0x50>
ffffffffa080628c:	00000000 	nop
ffffffffa0806290:	dfc20000 	ld	v0,0(s8)
ffffffffa0806294:	64420008 	daddiu	v0,v0,8
ffffffffa0806298:	0040202d 	move	a0,v0
ffffffffa080629c:	0c201b32 	jal	ffffffffa0806cc8 <do_block>
ffffffffa08062a0:	00000000 	nop
ffffffffa08062a4:	03c0e82d 	move	sp,s8
ffffffffa08062a8:	dfbf0018 	ld	ra,24(sp)
ffffffffa08062ac:	dfbe0010 	ld	s8,16(sp)
ffffffffa08062b0:	67bd0020 	daddiu	sp,sp,32
ffffffffa08062b4:	03e00008 	jr	ra
ffffffffa08062b8:	00000000 	nop
ffffffffa08062bc:	00000000 	nop

ffffffffa08062c0 <init_pcb_core1>:
ffffffffa08062c0:	67bdfff0 	daddiu	sp,sp,-16
ffffffffa08062c4:	ffbe0008 	sd	s8,8(sp)
ffffffffa08062c8:	03a0f02d 	move	s8,sp
ffffffffa08062cc:	03c0e82d 	move	sp,s8
ffffffffa08062d0:	dfbe0008 	ld	s8,8(sp)
ffffffffa08062d4:	67bd0010 	daddiu	sp,sp,16
ffffffffa08062d8:	03e00008 	jr	ra
ffffffffa08062dc:	00000000 	nop

ffffffffa08062e0 <smp_bootstrap>:
ffffffffa08062e0:	67bdfff0 	daddiu	sp,sp,-16
ffffffffa08062e4:	ffbe0008 	sd	s8,8(sp)
ffffffffa08062e8:	03a0f02d 	move	s8,sp
ffffffffa08062ec:	03c0e82d 	move	sp,s8
ffffffffa08062f0:	dfbe0008 	ld	s8,8(sp)
ffffffffa08062f4:	67bd0010 	daddiu	sp,sp,16
ffffffffa08062f8:	03e00008 	jr	ra
ffffffffa08062fc:	00000000 	nop

ffffffffa0806300 <ipi_write64>:
ffffffffa0806300:	67bdffe0 	daddiu	sp,sp,-32
ffffffffa0806304:	ffbe0018 	sd	s8,24(sp)
ffffffffa0806308:	03a0f02d 	move	s8,sp
ffffffffa080630c:	ffc40000 	sd	a0,0(s8)
ffffffffa0806310:	ffc50008 	sd	a1,8(s8)
ffffffffa0806314:	03c0e82d 	move	sp,s8
ffffffffa0806318:	dfbe0018 	ld	s8,24(sp)
ffffffffa080631c:	67bd0020 	daddiu	sp,sp,32
ffffffffa0806320:	03e00008 	jr	ra
ffffffffa0806324:	00000000 	nop

ffffffffa0806328 <loongson3_boot_secondary>:
ffffffffa0806328:	67bdfff0 	daddiu	sp,sp,-16
ffffffffa080632c:	ffbe0008 	sd	s8,8(sp)
ffffffffa0806330:	03a0f02d 	move	s8,sp
ffffffffa0806334:	03c0e82d 	move	sp,s8
ffffffffa0806338:	dfbe0008 	ld	s8,8(sp)
ffffffffa080633c:	67bd0010 	daddiu	sp,sp,16
ffffffffa0806340:	03e00008 	jr	ra
ffffffffa0806344:	00000000 	nop
	...

ffffffffa0806350 <spin_lock_init>:
ffffffffa0806350:	67bdffe0 	daddiu	sp,sp,-32
ffffffffa0806354:	ffbe0018 	sd	s8,24(sp)
ffffffffa0806358:	03a0f02d 	move	s8,sp
ffffffffa080635c:	ffc40000 	sd	a0,0(s8)
ffffffffa0806360:	dfc20000 	ld	v0,0(s8)
ffffffffa0806364:	ac400000 	sw	zero,0(v0)
ffffffffa0806368:	03c0e82d 	move	sp,s8
ffffffffa080636c:	dfbe0018 	ld	s8,24(sp)
ffffffffa0806370:	67bd0020 	daddiu	sp,sp,32
ffffffffa0806374:	03e00008 	jr	ra
ffffffffa0806378:	00000000 	nop

ffffffffa080637c <spin_lock_acquire>:
ffffffffa080637c:	67bdffe0 	daddiu	sp,sp,-32
ffffffffa0806380:	ffbe0018 	sd	s8,24(sp)
ffffffffa0806384:	03a0f02d 	move	s8,sp
ffffffffa0806388:	ffc40000 	sd	a0,0(s8)
ffffffffa080638c:	00000000 	nop
ffffffffa0806390:	dfc20000 	ld	v0,0(s8)
ffffffffa0806394:	8c430000 	lw	v1,0(v0)
ffffffffa0806398:	24020001 	li	v0,1
ffffffffa080639c:	1062fffc 	beq	v1,v0,ffffffffa0806390 <spin_lock_acquire+0x14>
ffffffffa08063a0:	00000000 	nop
ffffffffa08063a4:	dfc20000 	ld	v0,0(s8)
ffffffffa08063a8:	24030001 	li	v1,1
ffffffffa08063ac:	ac430000 	sw	v1,0(v0)
ffffffffa08063b0:	03c0e82d 	move	sp,s8
ffffffffa08063b4:	dfbe0018 	ld	s8,24(sp)
ffffffffa08063b8:	67bd0020 	daddiu	sp,sp,32
ffffffffa08063bc:	03e00008 	jr	ra
ffffffffa08063c0:	00000000 	nop

ffffffffa08063c4 <spin_lock_release>:
ffffffffa08063c4:	67bdffe0 	daddiu	sp,sp,-32
ffffffffa08063c8:	ffbe0018 	sd	s8,24(sp)
ffffffffa08063cc:	03a0f02d 	move	s8,sp
ffffffffa08063d0:	ffc40000 	sd	a0,0(s8)
ffffffffa08063d4:	dfc20000 	ld	v0,0(s8)
ffffffffa08063d8:	ac400000 	sw	zero,0(v0)
ffffffffa08063dc:	03c0e82d 	move	sp,s8
ffffffffa08063e0:	dfbe0018 	ld	s8,24(sp)
ffffffffa08063e4:	67bd0020 	daddiu	sp,sp,32
ffffffffa08063e8:	03e00008 	jr	ra
ffffffffa08063ec:	00000000 	nop

ffffffffa08063f0 <do_mutex_lock_init>:
ffffffffa08063f0:	67bdffe0 	daddiu	sp,sp,-32
ffffffffa08063f4:	ffbf0018 	sd	ra,24(sp)
ffffffffa08063f8:	ffbe0010 	sd	s8,16(sp)
ffffffffa08063fc:	03a0f02d 	move	s8,sp
ffffffffa0806400:	ffc40000 	sd	a0,0(s8)
ffffffffa0806404:	dfc20000 	ld	v0,0(s8)
ffffffffa0806408:	ac400000 	sw	zero,0(v0)
ffffffffa080640c:	dfc20000 	ld	v0,0(s8)
ffffffffa0806410:	fc400008 	sd	zero,8(v0)
ffffffffa0806414:	dfc20000 	ld	v0,0(s8)
ffffffffa0806418:	fc400010 	sd	zero,16(v0)
ffffffffa080641c:	dfc20000 	ld	v0,0(s8)
ffffffffa0806420:	64420018 	daddiu	v0,v0,24
ffffffffa0806424:	0040202d 	move	a0,v0
ffffffffa0806428:	0c201d7c 	jal	ffffffffa08075f0 <queue_init>
ffffffffa080642c:	00000000 	nop
ffffffffa0806430:	03c0e82d 	move	sp,s8
ffffffffa0806434:	dfbf0018 	ld	ra,24(sp)
ffffffffa0806438:	dfbe0010 	ld	s8,16(sp)
ffffffffa080643c:	67bd0020 	daddiu	sp,sp,32
ffffffffa0806440:	03e00008 	jr	ra
ffffffffa0806444:	00000000 	nop

ffffffffa0806448 <do_mutex_lock_acquire>:
ffffffffa0806448:	67bdffe0 	daddiu	sp,sp,-32
ffffffffa080644c:	ffbf0018 	sd	ra,24(sp)
ffffffffa0806450:	ffbe0010 	sd	s8,16(sp)
ffffffffa0806454:	03a0f02d 	move	s8,sp
ffffffffa0806458:	ffc40000 	sd	a0,0(s8)
ffffffffa080645c:	0820191e 	j	ffffffffa0806478 <do_mutex_lock_acquire+0x30>
ffffffffa0806460:	00000000 	nop
ffffffffa0806464:	dfc20000 	ld	v0,0(s8)
ffffffffa0806468:	64420018 	daddiu	v0,v0,24
ffffffffa080646c:	0040202d 	move	a0,v0
ffffffffa0806470:	0c201b32 	jal	ffffffffa0806cc8 <do_block>
ffffffffa0806474:	00000000 	nop
ffffffffa0806478:	dfc20000 	ld	v0,0(s8)
ffffffffa080647c:	8c430000 	lw	v1,0(v0)
ffffffffa0806480:	24020001 	li	v0,1
ffffffffa0806484:	1062fff7 	beq	v1,v0,ffffffffa0806464 <do_mutex_lock_acquire+0x1c>
ffffffffa0806488:	00000000 	nop
ffffffffa080648c:	dfc20000 	ld	v0,0(s8)
ffffffffa0806490:	24030001 	li	v1,1
ffffffffa0806494:	ac430000 	sw	v1,0(v0)
ffffffffa0806498:	3c020000 	lui	v0,0x0
ffffffffa080649c:	64420000 	daddiu	v0,v0,0
ffffffffa08064a0:	00021438 	dsll	v0,v0,0x10
ffffffffa08064a4:	6442a081 	daddiu	v0,v0,-24447
ffffffffa08064a8:	00021438 	dsll	v0,v0,0x10
ffffffffa08064ac:	dc424920 	ld	v0,18720(v0)
ffffffffa08064b0:	644202a8 	daddiu	v0,v0,680
ffffffffa08064b4:	0040202d 	move	a0,v0
ffffffffa08064b8:	dfc50000 	ld	a1,0(s8)
ffffffffa08064bc:	0c201d9c 	jal	ffffffffa0807670 <queue_push>
ffffffffa08064c0:	00000000 	nop
ffffffffa08064c4:	03c0e82d 	move	sp,s8
ffffffffa08064c8:	dfbf0018 	ld	ra,24(sp)
ffffffffa08064cc:	dfbe0010 	ld	s8,16(sp)
ffffffffa08064d0:	67bd0020 	daddiu	sp,sp,32
ffffffffa08064d4:	03e00008 	jr	ra
ffffffffa08064d8:	00000000 	nop

ffffffffa08064dc <do_mutex_lock_release>:
ffffffffa08064dc:	67bdffe0 	daddiu	sp,sp,-32
ffffffffa08064e0:	ffbf0018 	sd	ra,24(sp)
ffffffffa08064e4:	ffbe0010 	sd	s8,16(sp)
ffffffffa08064e8:	03a0f02d 	move	s8,sp
ffffffffa08064ec:	ffc40000 	sd	a0,0(s8)
ffffffffa08064f0:	dfc20000 	ld	v0,0(s8)
ffffffffa08064f4:	ac400000 	sw	zero,0(v0)
ffffffffa08064f8:	dfc20000 	ld	v0,0(s8)
ffffffffa08064fc:	64420018 	daddiu	v0,v0,24
ffffffffa0806500:	0040202d 	move	a0,v0
ffffffffa0806504:	0c201b75 	jal	ffffffffa0806dd4 <do_unblock_all>
ffffffffa0806508:	00000000 	nop
ffffffffa080650c:	3c020000 	lui	v0,0x0
ffffffffa0806510:	64420000 	daddiu	v0,v0,0
ffffffffa0806514:	00021438 	dsll	v0,v0,0x10
ffffffffa0806518:	6442a081 	daddiu	v0,v0,-24447
ffffffffa080651c:	00021438 	dsll	v0,v0,0x10
ffffffffa0806520:	dc424920 	ld	v0,18720(v0)
ffffffffa0806524:	644202a8 	daddiu	v0,v0,680
ffffffffa0806528:	0040202d 	move	a0,v0
ffffffffa080652c:	dfc50000 	ld	a1,0(s8)
ffffffffa0806530:	0c201de8 	jal	ffffffffa08077a0 <queue_remove>
ffffffffa0806534:	00000000 	nop
ffffffffa0806538:	03c0e82d 	move	sp,s8
ffffffffa080653c:	dfbf0018 	ld	ra,24(sp)
ffffffffa0806540:	dfbe0010 	ld	s8,16(sp)
ffffffffa0806544:	67bd0020 	daddiu	sp,sp,32
ffffffffa0806548:	03e00008 	jr	ra
ffffffffa080654c:	00000000 	nop

ffffffffa0806550 <init_stack>:
ffffffffa0806550:	67bdfff0 	daddiu	sp,sp,-16
ffffffffa0806554:	ffbe0008 	sd	s8,8(sp)
ffffffffa0806558:	03a0f02d 	move	s8,sp
ffffffffa080655c:	03c0e82d 	move	sp,s8
ffffffffa0806560:	dfbe0008 	ld	s8,8(sp)
ffffffffa0806564:	67bd0010 	daddiu	sp,sp,16
ffffffffa0806568:	03e00008 	jr	ra
ffffffffa080656c:	00000000 	nop

ffffffffa0806570 <new_kernel_stack>:
ffffffffa0806570:	67bdfff0 	daddiu	sp,sp,-16
ffffffffa0806574:	ffbe0008 	sd	s8,8(sp)
ffffffffa0806578:	03a0f02d 	move	s8,sp
ffffffffa080657c:	03c0e82d 	move	sp,s8
ffffffffa0806580:	dfbe0008 	ld	s8,8(sp)
ffffffffa0806584:	67bd0010 	daddiu	sp,sp,16
ffffffffa0806588:	03e00008 	jr	ra
ffffffffa080658c:	00000000 	nop

ffffffffa0806590 <new_user_stack>:
ffffffffa0806590:	67bdfff0 	daddiu	sp,sp,-16
ffffffffa0806594:	ffbe0008 	sd	s8,8(sp)
ffffffffa0806598:	03a0f02d 	move	s8,sp
ffffffffa080659c:	03c0e82d 	move	sp,s8
ffffffffa08065a0:	dfbe0008 	ld	s8,8(sp)
ffffffffa08065a4:	67bd0010 	daddiu	sp,sp,16
ffffffffa08065a8:	03e00008 	jr	ra
ffffffffa08065ac:	00000000 	nop

ffffffffa08065b0 <free_kernel_stack>:
ffffffffa08065b0:	67bdffe0 	daddiu	sp,sp,-32
ffffffffa08065b4:	ffbe0018 	sd	s8,24(sp)
ffffffffa08065b8:	03a0f02d 	move	s8,sp
ffffffffa08065bc:	ffc40000 	sd	a0,0(s8)
ffffffffa08065c0:	03c0e82d 	move	sp,s8
ffffffffa08065c4:	dfbe0018 	ld	s8,24(sp)
ffffffffa08065c8:	67bd0020 	daddiu	sp,sp,32
ffffffffa08065cc:	03e00008 	jr	ra
ffffffffa08065d0:	00000000 	nop

ffffffffa08065d4 <free_user_stack>:
ffffffffa08065d4:	67bdffe0 	daddiu	sp,sp,-32
ffffffffa08065d8:	ffbe0018 	sd	s8,24(sp)
ffffffffa08065dc:	03a0f02d 	move	s8,sp
ffffffffa08065e0:	ffc40000 	sd	a0,0(s8)
ffffffffa08065e4:	03c0e82d 	move	sp,s8
ffffffffa08065e8:	dfbe0018 	ld	s8,24(sp)
ffffffffa08065ec:	67bd0020 	daddiu	sp,sp,32
ffffffffa08065f0:	03e00008 	jr	ra
ffffffffa08065f4:	00000000 	nop

ffffffffa08065f8 <alloc_stack>:
ffffffffa08065f8:	67bdffe0 	daddiu	sp,sp,-32
ffffffffa08065fc:	ffbf0018 	sd	ra,24(sp)
ffffffffa0806600:	ffbe0010 	sd	s8,16(sp)
ffffffffa0806604:	03a0f02d 	move	s8,sp
ffffffffa0806608:	24020001 	li	v0,1
ffffffffa080660c:	afc20000 	sw	v0,0(s8)
ffffffffa0806610:	08201a25 	j	ffffffffa0806894 <alloc_stack+0x29c>
ffffffffa0806614:	00000000 	nop
ffffffffa0806618:	3c050000 	lui	a1,0x0
ffffffffa080661c:	64a50000 	daddiu	a1,a1,0
ffffffffa0806620:	00052c38 	dsll	a1,a1,0x10
ffffffffa0806624:	64a5a081 	daddiu	a1,a1,-24447
ffffffffa0806628:	00052c38 	dsll	a1,a1,0x10
ffffffffa080662c:	8fc40000 	lw	a0,0(s8)
ffffffffa0806630:	0080182d 	move	v1,a0
ffffffffa0806634:	00031178 	dsll	v0,v1,0x5
ffffffffa0806638:	0040182d 	move	v1,v0
ffffffffa080663c:	000310b8 	dsll	v0,v1,0x2
ffffffffa0806640:	0043102f 	dsubu	v0,v0,v1
ffffffffa0806644:	0044102d 	daddu	v0,v0,a0
ffffffffa0806648:	000210f8 	dsll	v0,v0,0x3
ffffffffa080664c:	64a34928 	daddiu	v1,a1,18728
ffffffffa0806650:	0043102d 	daddu	v0,v0,v1
ffffffffa0806654:	8c4302fc 	lw	v1,764(v0)
ffffffffa0806658:	24020003 	li	v0,3
ffffffffa080665c:	1462008a 	bne	v1,v0,ffffffffa0806888 <alloc_stack+0x290>
ffffffffa0806660:	00000000 	nop
ffffffffa0806664:	8fc40000 	lw	a0,0(s8)
ffffffffa0806668:	0080182d 	move	v1,a0
ffffffffa080666c:	00031178 	dsll	v0,v1,0x5
ffffffffa0806670:	0040182d 	move	v1,v0
ffffffffa0806674:	000310b8 	dsll	v0,v1,0x2
ffffffffa0806678:	0043102f 	dsubu	v0,v0,v1
ffffffffa080667c:	0044102d 	daddu	v0,v0,a0
ffffffffa0806680:	000210f8 	dsll	v0,v0,0x3
ffffffffa0806684:	3c030000 	lui	v1,0x0
ffffffffa0806688:	64630000 	daddiu	v1,v1,0
ffffffffa080668c:	00031c38 	dsll	v1,v1,0x10
ffffffffa0806690:	6463a081 	daddiu	v1,v1,-24447
ffffffffa0806694:	00031c38 	dsll	v1,v1,0x10
ffffffffa0806698:	64634928 	daddiu	v1,v1,18728
ffffffffa080669c:	0043102d 	daddu	v0,v0,v1
ffffffffa08066a0:	0040202d 	move	a0,v0
ffffffffa08066a4:	24050308 	li	a1,776
ffffffffa08066a8:	0c2020a5 	jal	ffffffffa0808294 <bzero>
ffffffffa08066ac:	00000000 	nop
ffffffffa08066b0:	8fc20000 	lw	v0,0(s8)
ffffffffa08066b4:	00021300 	sll	v0,v0,0xc
ffffffffa08066b8:	0040182d 	move	v1,v0
ffffffffa08066bc:	3c02a0f0 	lui	v0,0xa0f0
ffffffffa08066c0:	0062282d 	daddu	a1,v1,v0
ffffffffa08066c4:	3c060000 	lui	a2,0x0
ffffffffa08066c8:	64c60000 	daddiu	a2,a2,0
ffffffffa08066cc:	00063438 	dsll	a2,a2,0x10
ffffffffa08066d0:	64c6a081 	daddiu	a2,a2,-24447
ffffffffa08066d4:	00063438 	dsll	a2,a2,0x10
ffffffffa08066d8:	8fc40000 	lw	a0,0(s8)
ffffffffa08066dc:	0080182d 	move	v1,a0
ffffffffa08066e0:	00031178 	dsll	v0,v1,0x5
ffffffffa08066e4:	0040182d 	move	v1,v0
ffffffffa08066e8:	000310b8 	dsll	v0,v1,0x2
ffffffffa08066ec:	0043102f 	dsubu	v0,v0,v1
ffffffffa08066f0:	0044102d 	daddu	v0,v0,a0
ffffffffa08066f4:	000210f8 	dsll	v0,v0,0x3
ffffffffa08066f8:	64c34928 	daddiu	v1,a2,18728
ffffffffa08066fc:	0043102d 	daddu	v0,v0,v1
ffffffffa0806700:	fc450280 	sd	a1,640(v0)
ffffffffa0806704:	8fc20000 	lw	v0,0(s8)
ffffffffa0806708:	00021300 	sll	v0,v0,0xc
ffffffffa080670c:	0040182d 	move	v1,v0
ffffffffa0806710:	3c02a0f2 	lui	v0,0xa0f2
ffffffffa0806714:	0062282d 	daddu	a1,v1,v0
ffffffffa0806718:	3c060000 	lui	a2,0x0
ffffffffa080671c:	64c60000 	daddiu	a2,a2,0
ffffffffa0806720:	00063438 	dsll	a2,a2,0x10
ffffffffa0806724:	64c6a081 	daddiu	a2,a2,-24447
ffffffffa0806728:	00063438 	dsll	a2,a2,0x10
ffffffffa080672c:	8fc40000 	lw	a0,0(s8)
ffffffffa0806730:	0080182d 	move	v1,a0
ffffffffa0806734:	00031178 	dsll	v0,v1,0x5
ffffffffa0806738:	0040182d 	move	v1,v0
ffffffffa080673c:	000310b8 	dsll	v0,v1,0x2
ffffffffa0806740:	0043102f 	dsubu	v0,v0,v1
ffffffffa0806744:	0044102d 	daddu	v0,v0,a0
ffffffffa0806748:	000210f8 	dsll	v0,v0,0x3
ffffffffa080674c:	64c34928 	daddiu	v1,a2,18728
ffffffffa0806750:	0043102d 	daddu	v0,v0,v1
ffffffffa0806754:	fc450288 	sd	a1,648(v0)
ffffffffa0806758:	3c050000 	lui	a1,0x0
ffffffffa080675c:	64a50000 	daddiu	a1,a1,0
ffffffffa0806760:	00052c38 	dsll	a1,a1,0x10
ffffffffa0806764:	64a5a081 	daddiu	a1,a1,-24447
ffffffffa0806768:	00052c38 	dsll	a1,a1,0x10
ffffffffa080676c:	8fc40000 	lw	a0,0(s8)
ffffffffa0806770:	0080182d 	move	v1,a0
ffffffffa0806774:	00031178 	dsll	v0,v1,0x5
ffffffffa0806778:	0040182d 	move	v1,v0
ffffffffa080677c:	000310b8 	dsll	v0,v1,0x2
ffffffffa0806780:	0043102f 	dsubu	v0,v0,v1
ffffffffa0806784:	0044102d 	daddu	v0,v0,a0
ffffffffa0806788:	000210f8 	dsll	v0,v0,0x3
ffffffffa080678c:	64a34928 	daddiu	v1,a1,18728
ffffffffa0806790:	0043102d 	daddu	v0,v0,v1
ffffffffa0806794:	24030002 	li	v1,2
ffffffffa0806798:	ac4302fc 	sw	v1,764(v0)
ffffffffa080679c:	3c050000 	lui	a1,0x0
ffffffffa08067a0:	64a50000 	daddiu	a1,a1,0
ffffffffa08067a4:	00052c38 	dsll	a1,a1,0x10
ffffffffa08067a8:	64a5a081 	daddiu	a1,a1,-24447
ffffffffa08067ac:	00052c38 	dsll	a1,a1,0x10
ffffffffa08067b0:	8fc40000 	lw	a0,0(s8)
ffffffffa08067b4:	0080182d 	move	v1,a0
ffffffffa08067b8:	00031178 	dsll	v0,v1,0x5
ffffffffa08067bc:	0040182d 	move	v1,v0
ffffffffa08067c0:	000310b8 	dsll	v0,v1,0x2
ffffffffa08067c4:	0043102f 	dsubu	v0,v0,v1
ffffffffa08067c8:	0044102d 	daddu	v0,v0,a0
ffffffffa08067cc:	000210f8 	dsll	v0,v0,0x3
ffffffffa08067d0:	64a34928 	daddiu	v1,a1,18728
ffffffffa08067d4:	0043102d 	daddu	v0,v0,v1
ffffffffa08067d8:	fc4002c8 	sd	zero,712(v0)
ffffffffa08067dc:	8fc40000 	lw	a0,0(s8)
ffffffffa08067e0:	0080182d 	move	v1,a0
ffffffffa08067e4:	00031178 	dsll	v0,v1,0x5
ffffffffa08067e8:	0040182d 	move	v1,v0
ffffffffa08067ec:	000310b8 	dsll	v0,v1,0x2
ffffffffa08067f0:	0043102f 	dsubu	v0,v0,v1
ffffffffa08067f4:	0044102d 	daddu	v0,v0,a0
ffffffffa08067f8:	000210f8 	dsll	v0,v0,0x3
ffffffffa08067fc:	644302a0 	daddiu	v1,v0,672
ffffffffa0806800:	3c020000 	lui	v0,0x0
ffffffffa0806804:	64420000 	daddiu	v0,v0,0
ffffffffa0806808:	00021438 	dsll	v0,v0,0x10
ffffffffa080680c:	6442a081 	daddiu	v0,v0,-24447
ffffffffa0806810:	00021438 	dsll	v0,v0,0x10
ffffffffa0806814:	64424928 	daddiu	v0,v0,18728
ffffffffa0806818:	0062102d 	daddu	v0,v1,v0
ffffffffa080681c:	64420008 	daddiu	v0,v0,8
ffffffffa0806820:	0040202d 	move	a0,v0
ffffffffa0806824:	0c201d7c 	jal	ffffffffa08075f0 <queue_init>
ffffffffa0806828:	00000000 	nop
ffffffffa080682c:	8fc40000 	lw	a0,0(s8)
ffffffffa0806830:	0080182d 	move	v1,a0
ffffffffa0806834:	00031178 	dsll	v0,v1,0x5
ffffffffa0806838:	0040182d 	move	v1,v0
ffffffffa080683c:	000310b8 	dsll	v0,v1,0x2
ffffffffa0806840:	0043102f 	dsubu	v0,v0,v1
ffffffffa0806844:	0044102d 	daddu	v0,v0,a0
ffffffffa0806848:	000210f8 	dsll	v0,v0,0x3
ffffffffa080684c:	644302b0 	daddiu	v1,v0,688
ffffffffa0806850:	3c020000 	lui	v0,0x0
ffffffffa0806854:	64420000 	daddiu	v0,v0,0
ffffffffa0806858:	00021438 	dsll	v0,v0,0x10
ffffffffa080685c:	6442a081 	daddiu	v0,v0,-24447
ffffffffa0806860:	00021438 	dsll	v0,v0,0x10
ffffffffa0806864:	64424928 	daddiu	v0,v0,18728
ffffffffa0806868:	0062102d 	daddu	v0,v1,v0
ffffffffa080686c:	64420008 	daddiu	v0,v0,8
ffffffffa0806870:	0040202d 	move	a0,v0
ffffffffa0806874:	0c201d7c 	jal	ffffffffa08075f0 <queue_init>
ffffffffa0806878:	00000000 	nop
ffffffffa080687c:	8fc20000 	lw	v0,0(s8)
ffffffffa0806880:	08201a2a 	j	ffffffffa08068a8 <alloc_stack+0x2b0>
ffffffffa0806884:	00000000 	nop
ffffffffa0806888:	8fc20000 	lw	v0,0(s8)
ffffffffa080688c:	24420001 	addiu	v0,v0,1
ffffffffa0806890:	afc20000 	sw	v0,0(s8)
ffffffffa0806894:	8fc20000 	lw	v0,0(s8)
ffffffffa0806898:	28420020 	slti	v0,v0,32
ffffffffa080689c:	1440ff5e 	bnez	v0,ffffffffa0806618 <alloc_stack+0x20>
ffffffffa08068a0:	00000000 	nop
ffffffffa08068a4:	2402ffff 	li	v0,-1
ffffffffa08068a8:	03c0e82d 	move	sp,s8
ffffffffa08068ac:	dfbf0018 	ld	ra,24(sp)
ffffffffa08068b0:	dfbe0010 	ld	s8,16(sp)
ffffffffa08068b4:	67bd0020 	daddiu	sp,sp,32
ffffffffa08068b8:	03e00008 	jr	ra
ffffffffa08068bc:	00000000 	nop

ffffffffa08068c0 <set_pcb>:
ffffffffa08068c0:	67bdffc0 	daddiu	sp,sp,-64
ffffffffa08068c4:	ffbe0038 	sd	s8,56(sp)
ffffffffa08068c8:	03a0f02d 	move	s8,sp
ffffffffa08068cc:	0080102d 	move	v0,a0
ffffffffa08068d0:	ffc50018 	sd	a1,24(s8)
ffffffffa08068d4:	ffc60020 	sd	a2,32(s8)
ffffffffa08068d8:	00021000 	sll	v0,v0,0x0
ffffffffa08068dc:	afc20010 	sw	v0,16(s8)
ffffffffa08068e0:	dfc20018 	ld	v0,24(s8)
ffffffffa08068e4:	8fc30010 	lw	v1,16(s8)
ffffffffa08068e8:	ac4302f4 	sw	v1,756(v0)
ffffffffa08068ec:	dfc20018 	ld	v0,24(s8)
ffffffffa08068f0:	dfc30020 	ld	v1,32(s8)
ffffffffa08068f4:	8c630028 	lw	v1,40(v1)
ffffffffa08068f8:	ac4302f8 	sw	v1,760(v0)
ffffffffa08068fc:	dfc20018 	ld	v0,24(s8)
ffffffffa0806900:	dfc30020 	ld	v1,32(s8)
ffffffffa0806904:	8c63002c 	lw	v1,44(v1)
ffffffffa0806908:	ac4302d0 	sw	v1,720(v0)
ffffffffa080690c:	dfc30018 	ld	v1,24(s8)
ffffffffa0806910:	dfc20020 	ld	v0,32(s8)
ffffffffa0806914:	8c440028 	lw	a0,40(v0)
ffffffffa0806918:	24020002 	li	v0,2
ffffffffa080691c:	10820006 	beq	a0,v0,ffffffffa0806938 <set_pcb+0x78>
ffffffffa0806920:	00000000 	nop
ffffffffa0806924:	dfc20020 	ld	v0,32(s8)
ffffffffa0806928:	8c440028 	lw	a0,40(v0)
ffffffffa080692c:	24020003 	li	v0,3
ffffffffa0806930:	14820004 	bne	a0,v0,ffffffffa0806944 <set_pcb+0x84>
ffffffffa0806934:	00000000 	nop
ffffffffa0806938:	24020001 	li	v0,1
ffffffffa080693c:	08201a52 	j	ffffffffa0806948 <set_pcb+0x88>
ffffffffa0806940:	00000000 	nop
ffffffffa0806944:	0000102d 	move	v0,zero
ffffffffa0806948:	ac620290 	sw	v0,656(v1)
ffffffffa080694c:	afc00000 	sw	zero,0(s8)
ffffffffa0806950:	08201a61 	j	ffffffffa0806984 <set_pcb+0xc4>
ffffffffa0806954:	00000000 	nop
ffffffffa0806958:	dfc40018 	ld	a0,24(s8)
ffffffffa080695c:	dfc30020 	ld	v1,32(s8)
ffffffffa0806960:	8fc20000 	lw	v0,0(s8)
ffffffffa0806964:	0062102d 	daddu	v0,v1,v0
ffffffffa0806968:	80430000 	lb	v1,0(v0)
ffffffffa080696c:	8fc20000 	lw	v0,0(s8)
ffffffffa0806970:	0082102d 	daddu	v0,a0,v0
ffffffffa0806974:	a04302d4 	sb	v1,724(v0)
ffffffffa0806978:	8fc20000 	lw	v0,0(s8)
ffffffffa080697c:	24420001 	addiu	v0,v0,1
ffffffffa0806980:	afc20000 	sw	v0,0(s8)
ffffffffa0806984:	8fc20000 	lw	v0,0(s8)
ffffffffa0806988:	28420020 	slti	v0,v0,32
ffffffffa080698c:	1440fff2 	bnez	v0,ffffffffa0806958 <set_pcb+0x98>
ffffffffa0806990:	00000000 	nop
ffffffffa0806994:	8fc20010 	lw	v0,16(s8)
ffffffffa0806998:	28420020 	slti	v0,v0,32
ffffffffa080699c:	10400005 	beqz	v0,ffffffffa08069b4 <set_pcb+0xf4>
ffffffffa08069a0:	00000000 	nop
ffffffffa08069a4:	dfc20018 	ld	v0,24(s8)
ffffffffa08069a8:	67c30018 	daddiu	v1,s8,24
ffffffffa08069ac:	64631840 	daddiu	v1,v1,6208
ffffffffa08069b0:	fc4302a0 	sd	v1,672(v0)
ffffffffa08069b4:	dfc20018 	ld	v0,24(s8)
ffffffffa08069b8:	dfc30020 	ld	v1,32(s8)
ffffffffa08069bc:	dc630020 	ld	v1,32(v1)
ffffffffa08069c0:	fc430238 	sd	v1,568(v0)
ffffffffa08069c4:	dfc20018 	ld	v0,24(s8)
ffffffffa08069c8:	dfc30018 	ld	v1,24(s8)
ffffffffa08069cc:	dc630288 	ld	v1,648(v1)
ffffffffa08069d0:	fc430228 	sd	v1,552(v0)
ffffffffa08069d4:	dfc20018 	ld	v0,24(s8)
ffffffffa08069d8:	dfc30018 	ld	v1,24(s8)
ffffffffa08069dc:	dc630280 	ld	v1,640(v1)
ffffffffa08069e0:	fc4300e8 	sd	v1,232(v0)
ffffffffa08069e4:	03c0e82d 	move	sp,s8
ffffffffa08069e8:	dfbe0038 	ld	s8,56(sp)
ffffffffa08069ec:	67bd0040 	daddiu	sp,sp,64
ffffffffa08069f0:	03e00008 	jr	ra
ffffffffa08069f4:	00000000 	nop

ffffffffa08069f8 <check_sleeping>:
ffffffffa08069f8:	67bdfff0 	daddiu	sp,sp,-16
ffffffffa08069fc:	ffbe0008 	sd	s8,8(sp)
ffffffffa0806a00:	03a0f02d 	move	s8,sp
ffffffffa0806a04:	03c0e82d 	move	sp,s8
ffffffffa0806a08:	dfbe0008 	ld	s8,8(sp)
ffffffffa0806a0c:	67bd0010 	daddiu	sp,sp,16
ffffffffa0806a10:	03e00008 	jr	ra
ffffffffa0806a14:	00000000 	nop

ffffffffa0806a18 <scheduler>:
ffffffffa0806a18:	67bdfff0 	daddiu	sp,sp,-16
ffffffffa0806a1c:	ffbf0008 	sd	ra,8(sp)
ffffffffa0806a20:	ffbe0000 	sd	s8,0(sp)
ffffffffa0806a24:	03a0f02d 	move	s8,sp
ffffffffa0806a28:	3c020000 	lui	v0,0x0
ffffffffa0806a2c:	64420000 	daddiu	v0,v0,0
ffffffffa0806a30:	00021438 	dsll	v0,v0,0x10
ffffffffa0806a34:	6442a081 	daddiu	v0,v0,-24447
ffffffffa0806a38:	00021438 	dsll	v0,v0,0x10
ffffffffa0806a3c:	dc424920 	ld	v0,18720(v0)
ffffffffa0806a40:	8c4302fc 	lw	v1,764(v0)
ffffffffa0806a44:	24020001 	li	v0,1
ffffffffa0806a48:	14620010 	bne	v1,v0,ffffffffa0806a8c <scheduler+0x74>
ffffffffa0806a4c:	00000000 	nop
ffffffffa0806a50:	3c020000 	lui	v0,0x0
ffffffffa0806a54:	64420000 	daddiu	v0,v0,0
ffffffffa0806a58:	00021438 	dsll	v0,v0,0x10
ffffffffa0806a5c:	6442a081 	daddiu	v0,v0,-24447
ffffffffa0806a60:	00021438 	dsll	v0,v0,0x10
ffffffffa0806a64:	dc434920 	ld	v1,18720(v0)
ffffffffa0806a68:	3c020000 	lui	v0,0x0
ffffffffa0806a6c:	64420000 	daddiu	v0,v0,0
ffffffffa0806a70:	00021438 	dsll	v0,v0,0x10
ffffffffa0806a74:	6442a081 	daddiu	v0,v0,-24447
ffffffffa0806a78:	00021438 	dsll	v0,v0,0x10
ffffffffa0806a7c:	64444910 	daddiu	a0,v0,18704
ffffffffa0806a80:	0060282d 	move	a1,v1
ffffffffa0806a84:	0c201d9c 	jal	ffffffffa0807670 <queue_push>
ffffffffa0806a88:	00000000 	nop
ffffffffa0806a8c:	3c020000 	lui	v0,0x0
ffffffffa0806a90:	64420000 	daddiu	v0,v0,0
ffffffffa0806a94:	00021438 	dsll	v0,v0,0x10
ffffffffa0806a98:	6442a081 	daddiu	v0,v0,-24447
ffffffffa0806a9c:	00021438 	dsll	v0,v0,0x10
ffffffffa0806aa0:	dc424920 	ld	v0,18720(v0)
ffffffffa0806aa4:	3c030000 	lui	v1,0x0
ffffffffa0806aa8:	64630000 	daddiu	v1,v1,0
ffffffffa0806aac:	00031c38 	dsll	v1,v1,0x10
ffffffffa0806ab0:	6463a081 	daddiu	v1,v1,-24447
ffffffffa0806ab4:	00031c38 	dsll	v1,v1,0x10
ffffffffa0806ab8:	8c6345f0 	lw	v1,17904(v1)
ffffffffa0806abc:	ac430300 	sw	v1,768(v0)
ffffffffa0806ac0:	3c020000 	lui	v0,0x0
ffffffffa0806ac4:	64420000 	daddiu	v0,v0,0
ffffffffa0806ac8:	00021438 	dsll	v0,v0,0x10
ffffffffa0806acc:	6442a081 	daddiu	v0,v0,-24447
ffffffffa0806ad0:	00021438 	dsll	v0,v0,0x10
ffffffffa0806ad4:	dc424920 	ld	v0,18720(v0)
ffffffffa0806ad8:	3c030000 	lui	v1,0x0
ffffffffa0806adc:	64630000 	daddiu	v1,v1,0
ffffffffa0806ae0:	00031c38 	dsll	v1,v1,0x10
ffffffffa0806ae4:	6463a081 	daddiu	v1,v1,-24447
ffffffffa0806ae8:	00031c38 	dsll	v1,v1,0x10
ffffffffa0806aec:	8c6345f4 	lw	v1,17908(v1)
ffffffffa0806af0:	ac430304 	sw	v1,772(v0)
ffffffffa0806af4:	3c020000 	lui	v0,0x0
ffffffffa0806af8:	64420000 	daddiu	v0,v0,0
ffffffffa0806afc:	00021438 	dsll	v0,v0,0x10
ffffffffa0806b00:	6442a081 	daddiu	v0,v0,-24447
ffffffffa0806b04:	00021438 	dsll	v0,v0,0x10
ffffffffa0806b08:	64444910 	daddiu	a0,v0,18704
ffffffffa0806b0c:	0c201dc5 	jal	ffffffffa0807714 <queue_dequeue>
ffffffffa0806b10:	00000000 	nop
ffffffffa0806b14:	0040182d 	move	v1,v0
ffffffffa0806b18:	3c020000 	lui	v0,0x0
ffffffffa0806b1c:	64420000 	daddiu	v0,v0,0
ffffffffa0806b20:	00021438 	dsll	v0,v0,0x10
ffffffffa0806b24:	6442a081 	daddiu	v0,v0,-24447
ffffffffa0806b28:	00021438 	dsll	v0,v0,0x10
ffffffffa0806b2c:	fc434920 	sd	v1,18720(v0)
ffffffffa0806b30:	3c020000 	lui	v0,0x0
ffffffffa0806b34:	64420000 	daddiu	v0,v0,0
ffffffffa0806b38:	00021438 	dsll	v0,v0,0x10
ffffffffa0806b3c:	6442a081 	daddiu	v0,v0,-24447
ffffffffa0806b40:	00021438 	dsll	v0,v0,0x10
ffffffffa0806b44:	dc424920 	ld	v0,18720(v0)
ffffffffa0806b48:	24030001 	li	v1,1
ffffffffa0806b4c:	ac4302fc 	sw	v1,764(v0)
ffffffffa0806b50:	3c020000 	lui	v0,0x0
ffffffffa0806b54:	64420000 	daddiu	v0,v0,0
ffffffffa0806b58:	00021438 	dsll	v0,v0,0x10
ffffffffa0806b5c:	6442a081 	daddiu	v0,v0,-24447
ffffffffa0806b60:	00021438 	dsll	v0,v0,0x10
ffffffffa0806b64:	dc424920 	ld	v0,18720(v0)
ffffffffa0806b68:	8c430300 	lw	v1,768(v0)
ffffffffa0806b6c:	3c020000 	lui	v0,0x0
ffffffffa0806b70:	64420000 	daddiu	v0,v0,0
ffffffffa0806b74:	00021438 	dsll	v0,v0,0x10
ffffffffa0806b78:	6442a081 	daddiu	v0,v0,-24447
ffffffffa0806b7c:	00021438 	dsll	v0,v0,0x10
ffffffffa0806b80:	ac4345f0 	sw	v1,17904(v0)
ffffffffa0806b84:	3c020000 	lui	v0,0x0
ffffffffa0806b88:	64420000 	daddiu	v0,v0,0
ffffffffa0806b8c:	00021438 	dsll	v0,v0,0x10
ffffffffa0806b90:	6442a081 	daddiu	v0,v0,-24447
ffffffffa0806b94:	00021438 	dsll	v0,v0,0x10
ffffffffa0806b98:	dc424920 	ld	v0,18720(v0)
ffffffffa0806b9c:	8c430304 	lw	v1,772(v0)
ffffffffa0806ba0:	3c020000 	lui	v0,0x0
ffffffffa0806ba4:	64420000 	daddiu	v0,v0,0
ffffffffa0806ba8:	00021438 	dsll	v0,v0,0x10
ffffffffa0806bac:	6442a081 	daddiu	v0,v0,-24447
ffffffffa0806bb0:	00021438 	dsll	v0,v0,0x10
ffffffffa0806bb4:	ac4345f4 	sw	v1,17908(v0)
ffffffffa0806bb8:	03c0e82d 	move	sp,s8
ffffffffa0806bbc:	dfbf0008 	ld	ra,8(sp)
ffffffffa0806bc0:	dfbe0000 	ld	s8,0(sp)
ffffffffa0806bc4:	67bd0010 	daddiu	sp,sp,16
ffffffffa0806bc8:	03e00008 	jr	ra
ffffffffa0806bcc:	00000000 	nop

ffffffffa0806bd0 <do_sleep>:
ffffffffa0806bd0:	67bdffe0 	daddiu	sp,sp,-32
ffffffffa0806bd4:	ffbe0018 	sd	s8,24(sp)
ffffffffa0806bd8:	03a0f02d 	move	s8,sp
ffffffffa0806bdc:	0080102d 	move	v0,a0
ffffffffa0806be0:	00021000 	sll	v0,v0,0x0
ffffffffa0806be4:	afc20000 	sw	v0,0(s8)
ffffffffa0806be8:	03c0e82d 	move	sp,s8
ffffffffa0806bec:	dfbe0018 	ld	s8,24(sp)
ffffffffa0806bf0:	67bd0020 	daddiu	sp,sp,32
ffffffffa0806bf4:	03e00008 	jr	ra
ffffffffa0806bf8:	00000000 	nop

ffffffffa0806bfc <do_exit>:
ffffffffa0806bfc:	67bdffe0 	daddiu	sp,sp,-32
ffffffffa0806c00:	ffbf0018 	sd	ra,24(sp)
ffffffffa0806c04:	ffbe0010 	sd	s8,16(sp)
ffffffffa0806c08:	03a0f02d 	move	s8,sp
ffffffffa0806c0c:	3c020000 	lui	v0,0x0
ffffffffa0806c10:	64420000 	daddiu	v0,v0,0
ffffffffa0806c14:	00021438 	dsll	v0,v0,0x10
ffffffffa0806c18:	6442a081 	daddiu	v0,v0,-24447
ffffffffa0806c1c:	00021438 	dsll	v0,v0,0x10
ffffffffa0806c20:	dc424920 	ld	v0,18720(v0)
ffffffffa0806c24:	ffc20000 	sd	v0,0(s8)
ffffffffa0806c28:	08201b1b 	j	ffffffffa0806c6c <do_exit+0x70>
ffffffffa0806c2c:	00000000 	nop
ffffffffa0806c30:	dfc20000 	ld	v0,0(s8)
ffffffffa0806c34:	dc4202a8 	ld	v0,680(v0)
ffffffffa0806c38:	ffc20008 	sd	v0,8(s8)
ffffffffa0806c3c:	dfc20008 	ld	v0,8(s8)
ffffffffa0806c40:	64420018 	daddiu	v0,v0,24
ffffffffa0806c44:	0040202d 	move	a0,v0
ffffffffa0806c48:	0c201b75 	jal	ffffffffa0806dd4 <do_unblock_all>
ffffffffa0806c4c:	00000000 	nop
ffffffffa0806c50:	dfc20000 	ld	v0,0(s8)
ffffffffa0806c54:	644202a8 	daddiu	v0,v0,680
ffffffffa0806c58:	0040202d 	move	a0,v0
ffffffffa0806c5c:	0c201dc5 	jal	ffffffffa0807714 <queue_dequeue>
ffffffffa0806c60:	00000000 	nop
ffffffffa0806c64:	dfc20008 	ld	v0,8(s8)
ffffffffa0806c68:	ac400000 	sw	zero,0(v0)
ffffffffa0806c6c:	dfc20000 	ld	v0,0(s8)
ffffffffa0806c70:	644202a8 	daddiu	v0,v0,680
ffffffffa0806c74:	0040202d 	move	a0,v0
ffffffffa0806c78:	0c201d8b 	jal	ffffffffa080762c <queue_is_empty>
ffffffffa0806c7c:	00000000 	nop
ffffffffa0806c80:	1040ffeb 	beqz	v0,ffffffffa0806c30 <do_exit+0x34>
ffffffffa0806c84:	00000000 	nop
ffffffffa0806c88:	dfc20000 	ld	v0,0(s8)
ffffffffa0806c8c:	644202b8 	daddiu	v0,v0,696
ffffffffa0806c90:	0040202d 	move	a0,v0
ffffffffa0806c94:	0c201b75 	jal	ffffffffa0806dd4 <do_unblock_all>
ffffffffa0806c98:	00000000 	nop
ffffffffa0806c9c:	dfc20000 	ld	v0,0(s8)
ffffffffa0806ca0:	24030003 	li	v1,3
ffffffffa0806ca4:	ac4302fc 	sw	v1,764(v0)
ffffffffa0806ca8:	0c2000b6 	jal	ffffffffa08002d8 <do_scheduler>
ffffffffa0806cac:	00000000 	nop
ffffffffa0806cb0:	03c0e82d 	move	sp,s8
ffffffffa0806cb4:	dfbf0018 	ld	ra,24(sp)
ffffffffa0806cb8:	dfbe0010 	ld	s8,16(sp)
ffffffffa0806cbc:	67bd0020 	daddiu	sp,sp,32
ffffffffa0806cc0:	03e00008 	jr	ra
ffffffffa0806cc4:	00000000 	nop

ffffffffa0806cc8 <do_block>:
ffffffffa0806cc8:	67bdffe0 	daddiu	sp,sp,-32
ffffffffa0806ccc:	ffbf0018 	sd	ra,24(sp)
ffffffffa0806cd0:	ffbe0010 	sd	s8,16(sp)
ffffffffa0806cd4:	03a0f02d 	move	s8,sp
ffffffffa0806cd8:	ffc40000 	sd	a0,0(s8)
ffffffffa0806cdc:	3c020000 	lui	v0,0x0
ffffffffa0806ce0:	64420000 	daddiu	v0,v0,0
ffffffffa0806ce4:	00021438 	dsll	v0,v0,0x10
ffffffffa0806ce8:	6442a081 	daddiu	v0,v0,-24447
ffffffffa0806cec:	00021438 	dsll	v0,v0,0x10
ffffffffa0806cf0:	dc424920 	ld	v0,18720(v0)
ffffffffa0806cf4:	ac4002fc 	sw	zero,764(v0)
ffffffffa0806cf8:	3c020000 	lui	v0,0x0
ffffffffa0806cfc:	64420000 	daddiu	v0,v0,0
ffffffffa0806d00:	00021438 	dsll	v0,v0,0x10
ffffffffa0806d04:	6442a081 	daddiu	v0,v0,-24447
ffffffffa0806d08:	00021438 	dsll	v0,v0,0x10
ffffffffa0806d0c:	dc424920 	ld	v0,18720(v0)
ffffffffa0806d10:	dfc40000 	ld	a0,0(s8)
ffffffffa0806d14:	0040282d 	move	a1,v0
ffffffffa0806d18:	0c201d9c 	jal	ffffffffa0807670 <queue_push>
ffffffffa0806d1c:	00000000 	nop
ffffffffa0806d20:	3c020000 	lui	v0,0x0
ffffffffa0806d24:	64420000 	daddiu	v0,v0,0
ffffffffa0806d28:	00021438 	dsll	v0,v0,0x10
ffffffffa0806d2c:	6442a081 	daddiu	v0,v0,-24447
ffffffffa0806d30:	00021438 	dsll	v0,v0,0x10
ffffffffa0806d34:	dc424920 	ld	v0,18720(v0)
ffffffffa0806d38:	dfc30000 	ld	v1,0(s8)
ffffffffa0806d3c:	fc4302c8 	sd	v1,712(v0)
ffffffffa0806d40:	0c2000b6 	jal	ffffffffa08002d8 <do_scheduler>
ffffffffa0806d44:	00000000 	nop
ffffffffa0806d48:	03c0e82d 	move	sp,s8
ffffffffa0806d4c:	dfbf0018 	ld	ra,24(sp)
ffffffffa0806d50:	dfbe0010 	ld	s8,16(sp)
ffffffffa0806d54:	67bd0020 	daddiu	sp,sp,32
ffffffffa0806d58:	03e00008 	jr	ra
ffffffffa0806d5c:	00000000 	nop

ffffffffa0806d60 <do_unblock_one>:
ffffffffa0806d60:	67bdffd0 	daddiu	sp,sp,-48
ffffffffa0806d64:	ffbf0028 	sd	ra,40(sp)
ffffffffa0806d68:	ffbe0020 	sd	s8,32(sp)
ffffffffa0806d6c:	03a0f02d 	move	s8,sp
ffffffffa0806d70:	ffc40010 	sd	a0,16(s8)
ffffffffa0806d74:	dfc40010 	ld	a0,16(s8)
ffffffffa0806d78:	0c201dc5 	jal	ffffffffa0807714 <queue_dequeue>
ffffffffa0806d7c:	00000000 	nop
ffffffffa0806d80:	ffc20000 	sd	v0,0(s8)
ffffffffa0806d84:	dfc20000 	ld	v0,0(s8)
ffffffffa0806d88:	24030002 	li	v1,2
ffffffffa0806d8c:	ac4302fc 	sw	v1,764(v0)
ffffffffa0806d90:	3c020000 	lui	v0,0x0
ffffffffa0806d94:	64420000 	daddiu	v0,v0,0
ffffffffa0806d98:	00021438 	dsll	v0,v0,0x10
ffffffffa0806d9c:	6442a081 	daddiu	v0,v0,-24447
ffffffffa0806da0:	00021438 	dsll	v0,v0,0x10
ffffffffa0806da4:	64444910 	daddiu	a0,v0,18704
ffffffffa0806da8:	dfc50000 	ld	a1,0(s8)
ffffffffa0806dac:	0c201d9c 	jal	ffffffffa0807670 <queue_push>
ffffffffa0806db0:	00000000 	nop
ffffffffa0806db4:	dfc20000 	ld	v0,0(s8)
ffffffffa0806db8:	fc4002c8 	sd	zero,712(v0)
ffffffffa0806dbc:	03c0e82d 	move	sp,s8
ffffffffa0806dc0:	dfbf0028 	ld	ra,40(sp)
ffffffffa0806dc4:	dfbe0020 	ld	s8,32(sp)
ffffffffa0806dc8:	67bd0030 	daddiu	sp,sp,48
ffffffffa0806dcc:	03e00008 	jr	ra
ffffffffa0806dd0:	00000000 	nop

ffffffffa0806dd4 <do_unblock_all>:
ffffffffa0806dd4:	67bdffe0 	daddiu	sp,sp,-32
ffffffffa0806dd8:	ffbf0018 	sd	ra,24(sp)
ffffffffa0806ddc:	ffbe0010 	sd	s8,16(sp)
ffffffffa0806de0:	03a0f02d 	move	s8,sp
ffffffffa0806de4:	ffc40000 	sd	a0,0(s8)
ffffffffa0806de8:	08201b7f 	j	ffffffffa0806dfc <do_unblock_all+0x28>
ffffffffa0806dec:	00000000 	nop
ffffffffa0806df0:	dfc40000 	ld	a0,0(s8)
ffffffffa0806df4:	0c201b58 	jal	ffffffffa0806d60 <do_unblock_one>
ffffffffa0806df8:	00000000 	nop
ffffffffa0806dfc:	dfc40000 	ld	a0,0(s8)
ffffffffa0806e00:	0c201d8b 	jal	ffffffffa080762c <queue_is_empty>
ffffffffa0806e04:	00000000 	nop
ffffffffa0806e08:	1040fff9 	beqz	v0,ffffffffa0806df0 <do_unblock_all+0x1c>
ffffffffa0806e0c:	00000000 	nop
ffffffffa0806e10:	03c0e82d 	move	sp,s8
ffffffffa0806e14:	dfbf0018 	ld	ra,24(sp)
ffffffffa0806e18:	dfbe0010 	ld	s8,16(sp)
ffffffffa0806e1c:	67bd0020 	daddiu	sp,sp,32
ffffffffa0806e20:	03e00008 	jr	ra
ffffffffa0806e24:	00000000 	nop

ffffffffa0806e28 <do_spawn>:
ffffffffa0806e28:	67bdffd0 	daddiu	sp,sp,-48
ffffffffa0806e2c:	ffbf0028 	sd	ra,40(sp)
ffffffffa0806e30:	ffbe0020 	sd	s8,32(sp)
ffffffffa0806e34:	03a0f02d 	move	s8,sp
ffffffffa0806e38:	ffc40010 	sd	a0,16(s8)
ffffffffa0806e3c:	0c20197e 	jal	ffffffffa08065f8 <alloc_stack>
ffffffffa0806e40:	00000000 	nop
ffffffffa0806e44:	afc20000 	sw	v0,0(s8)
ffffffffa0806e48:	8fc40000 	lw	a0,0(s8)
ffffffffa0806e4c:	0080182d 	move	v1,a0
ffffffffa0806e50:	00031178 	dsll	v0,v1,0x5
ffffffffa0806e54:	0040182d 	move	v1,v0
ffffffffa0806e58:	000310b8 	dsll	v0,v1,0x2
ffffffffa0806e5c:	0043102f 	dsubu	v0,v0,v1
ffffffffa0806e60:	0044102d 	daddu	v0,v0,a0
ffffffffa0806e64:	000210f8 	dsll	v0,v0,0x3
ffffffffa0806e68:	3c030000 	lui	v1,0x0
ffffffffa0806e6c:	64630000 	daddiu	v1,v1,0
ffffffffa0806e70:	00031c38 	dsll	v1,v1,0x10
ffffffffa0806e74:	6463a081 	daddiu	v1,v1,-24447
ffffffffa0806e78:	00031c38 	dsll	v1,v1,0x10
ffffffffa0806e7c:	64634928 	daddiu	v1,v1,18728
ffffffffa0806e80:	0043102d 	daddu	v0,v0,v1
ffffffffa0806e84:	8fc30000 	lw	v1,0(s8)
ffffffffa0806e88:	0060202d 	move	a0,v1
ffffffffa0806e8c:	0040282d 	move	a1,v0
ffffffffa0806e90:	dfc60010 	ld	a2,16(s8)
ffffffffa0806e94:	0c201a30 	jal	ffffffffa08068c0 <set_pcb>
ffffffffa0806e98:	00000000 	nop
ffffffffa0806e9c:	8fc40000 	lw	a0,0(s8)
ffffffffa0806ea0:	0080182d 	move	v1,a0
ffffffffa0806ea4:	00031178 	dsll	v0,v1,0x5
ffffffffa0806ea8:	0040182d 	move	v1,v0
ffffffffa0806eac:	000310b8 	dsll	v0,v1,0x2
ffffffffa0806eb0:	0043102f 	dsubu	v0,v0,v1
ffffffffa0806eb4:	0044102d 	daddu	v0,v0,a0
ffffffffa0806eb8:	000210f8 	dsll	v0,v0,0x3
ffffffffa0806ebc:	3c030000 	lui	v1,0x0
ffffffffa0806ec0:	64630000 	daddiu	v1,v1,0
ffffffffa0806ec4:	00031c38 	dsll	v1,v1,0x10
ffffffffa0806ec8:	6463a081 	daddiu	v1,v1,-24447
ffffffffa0806ecc:	00031c38 	dsll	v1,v1,0x10
ffffffffa0806ed0:	64634928 	daddiu	v1,v1,18728
ffffffffa0806ed4:	0043182d 	daddu	v1,v0,v1
ffffffffa0806ed8:	3c020000 	lui	v0,0x0
ffffffffa0806edc:	64420000 	daddiu	v0,v0,0
ffffffffa0806ee0:	00021438 	dsll	v0,v0,0x10
ffffffffa0806ee4:	6442a081 	daddiu	v0,v0,-24447
ffffffffa0806ee8:	00021438 	dsll	v0,v0,0x10
ffffffffa0806eec:	64444910 	daddiu	a0,v0,18704
ffffffffa0806ef0:	0060282d 	move	a1,v1
ffffffffa0806ef4:	0c201d9c 	jal	ffffffffa0807670 <queue_push>
ffffffffa0806ef8:	00000000 	nop
ffffffffa0806efc:	3c050000 	lui	a1,0x0
ffffffffa0806f00:	64a50000 	daddiu	a1,a1,0
ffffffffa0806f04:	00052c38 	dsll	a1,a1,0x10
ffffffffa0806f08:	64a5a081 	daddiu	a1,a1,-24447
ffffffffa0806f0c:	00052c38 	dsll	a1,a1,0x10
ffffffffa0806f10:	8fc40000 	lw	a0,0(s8)
ffffffffa0806f14:	0080182d 	move	v1,a0
ffffffffa0806f18:	00031178 	dsll	v0,v1,0x5
ffffffffa0806f1c:	0040182d 	move	v1,v0
ffffffffa0806f20:	000310b8 	dsll	v0,v1,0x2
ffffffffa0806f24:	0043102f 	dsubu	v0,v0,v1
ffffffffa0806f28:	0044102d 	daddu	v0,v0,a0
ffffffffa0806f2c:	000210f8 	dsll	v0,v0,0x3
ffffffffa0806f30:	64a34928 	daddiu	v1,a1,18728
ffffffffa0806f34:	0043102d 	daddu	v0,v0,v1
ffffffffa0806f38:	24030002 	li	v1,2
ffffffffa0806f3c:	ac4302fc 	sw	v1,764(v0)
ffffffffa0806f40:	03c0e82d 	move	sp,s8
ffffffffa0806f44:	dfbf0028 	ld	ra,40(sp)
ffffffffa0806f48:	dfbe0020 	ld	s8,32(sp)
ffffffffa0806f4c:	67bd0030 	daddiu	sp,sp,48
ffffffffa0806f50:	03e00008 	jr	ra
ffffffffa0806f54:	00000000 	nop

ffffffffa0806f58 <do_kill>:
ffffffffa0806f58:	67bdffc0 	daddiu	sp,sp,-64
ffffffffa0806f5c:	ffbf0038 	sd	ra,56(sp)
ffffffffa0806f60:	ffbe0030 	sd	s8,48(sp)
ffffffffa0806f64:	03a0f02d 	move	s8,sp
ffffffffa0806f68:	0080102d 	move	v0,a0
ffffffffa0806f6c:	00021000 	sll	v0,v0,0x0
ffffffffa0806f70:	afc20020 	sw	v0,32(s8)
ffffffffa0806f74:	afc00004 	sw	zero,4(s8)
ffffffffa0806f78:	afc00000 	sw	zero,0(s8)
ffffffffa0806f7c:	08201c0e 	j	ffffffffa0807038 <do_kill+0xe0>
ffffffffa0806f80:	00000000 	nop
ffffffffa0806f84:	3c050000 	lui	a1,0x0
ffffffffa0806f88:	64a50000 	daddiu	a1,a1,0
ffffffffa0806f8c:	00052c38 	dsll	a1,a1,0x10
ffffffffa0806f90:	64a5a081 	daddiu	a1,a1,-24447
ffffffffa0806f94:	00052c38 	dsll	a1,a1,0x10
ffffffffa0806f98:	8fc40000 	lw	a0,0(s8)
ffffffffa0806f9c:	0080182d 	move	v1,a0
ffffffffa0806fa0:	00031178 	dsll	v0,v1,0x5
ffffffffa0806fa4:	0040182d 	move	v1,v0
ffffffffa0806fa8:	000310b8 	dsll	v0,v1,0x2
ffffffffa0806fac:	0043102f 	dsubu	v0,v0,v1
ffffffffa0806fb0:	0044102d 	daddu	v0,v0,a0
ffffffffa0806fb4:	000210f8 	dsll	v0,v0,0x3
ffffffffa0806fb8:	64a34928 	daddiu	v1,a1,18728
ffffffffa0806fbc:	0043102d 	daddu	v0,v0,v1
ffffffffa0806fc0:	8c4302f4 	lw	v1,756(v0)
ffffffffa0806fc4:	8fc20020 	lw	v0,32(s8)
ffffffffa0806fc8:	14430018 	bne	v0,v1,ffffffffa080702c <do_kill+0xd4>
ffffffffa0806fcc:	00000000 	nop
ffffffffa0806fd0:	3c050000 	lui	a1,0x0
ffffffffa0806fd4:	64a50000 	daddiu	a1,a1,0
ffffffffa0806fd8:	00052c38 	dsll	a1,a1,0x10
ffffffffa0806fdc:	64a5a081 	daddiu	a1,a1,-24447
ffffffffa0806fe0:	00052c38 	dsll	a1,a1,0x10
ffffffffa0806fe4:	8fc40000 	lw	a0,0(s8)
ffffffffa0806fe8:	0080182d 	move	v1,a0
ffffffffa0806fec:	00031178 	dsll	v0,v1,0x5
ffffffffa0806ff0:	0040182d 	move	v1,v0
ffffffffa0806ff4:	000310b8 	dsll	v0,v1,0x2
ffffffffa0806ff8:	0043102f 	dsubu	v0,v0,v1
ffffffffa0806ffc:	0044102d 	daddu	v0,v0,a0
ffffffffa0807000:	000210f8 	dsll	v0,v0,0x3
ffffffffa0807004:	64a34928 	daddiu	v1,a1,18728
ffffffffa0807008:	0043102d 	daddu	v0,v0,v1
ffffffffa080700c:	8c4302fc 	lw	v1,764(v0)
ffffffffa0807010:	24020003 	li	v0,3
ffffffffa0807014:	10620005 	beq	v1,v0,ffffffffa080702c <do_kill+0xd4>
ffffffffa0807018:	00000000 	nop
ffffffffa080701c:	24020001 	li	v0,1
ffffffffa0807020:	afc20004 	sw	v0,4(s8)
ffffffffa0807024:	08201c12 	j	ffffffffa0807048 <do_kill+0xf0>
ffffffffa0807028:	00000000 	nop
ffffffffa080702c:	8fc20000 	lw	v0,0(s8)
ffffffffa0807030:	24420001 	addiu	v0,v0,1
ffffffffa0807034:	afc20000 	sw	v0,0(s8)
ffffffffa0807038:	8fc20000 	lw	v0,0(s8)
ffffffffa080703c:	28420020 	slti	v0,v0,32
ffffffffa0807040:	1440ffd0 	bnez	v0,ffffffffa0806f84 <do_kill+0x2c>
ffffffffa0807044:	00000000 	nop
ffffffffa0807048:	8fc20004 	lw	v0,4(s8)
ffffffffa080704c:	14400004 	bnez	v0,ffffffffa0807060 <do_kill+0x108>
ffffffffa0807050:	00000000 	nop
ffffffffa0807054:	2402ffff 	li	v0,-1
ffffffffa0807058:	08201c72 	j	ffffffffa08071c8 <do_kill+0x270>
ffffffffa080705c:	00000000 	nop
ffffffffa0807060:	8fc40000 	lw	a0,0(s8)
ffffffffa0807064:	0080182d 	move	v1,a0
ffffffffa0807068:	00031178 	dsll	v0,v1,0x5
ffffffffa080706c:	0040182d 	move	v1,v0
ffffffffa0807070:	000310b8 	dsll	v0,v1,0x2
ffffffffa0807074:	0043102f 	dsubu	v0,v0,v1
ffffffffa0807078:	0044102d 	daddu	v0,v0,a0
ffffffffa080707c:	000210f8 	dsll	v0,v0,0x3
ffffffffa0807080:	3c030000 	lui	v1,0x0
ffffffffa0807084:	64630000 	daddiu	v1,v1,0
ffffffffa0807088:	00031c38 	dsll	v1,v1,0x10
ffffffffa080708c:	6463a081 	daddiu	v1,v1,-24447
ffffffffa0807090:	00031c38 	dsll	v1,v1,0x10
ffffffffa0807094:	64634928 	daddiu	v1,v1,18728
ffffffffa0807098:	0043102d 	daddu	v0,v0,v1
ffffffffa080709c:	ffc20008 	sd	v0,8(s8)
ffffffffa08070a0:	dfc20008 	ld	v0,8(s8)
ffffffffa08070a4:	8c4202fc 	lw	v0,764(v0)
ffffffffa08070a8:	14400009 	bnez	v0,ffffffffa08070d0 <do_kill+0x178>
ffffffffa08070ac:	00000000 	nop
ffffffffa08070b0:	dfc20008 	ld	v0,8(s8)
ffffffffa08070b4:	dc4202c8 	ld	v0,712(v0)
ffffffffa08070b8:	0040202d 	move	a0,v0
ffffffffa08070bc:	dfc50008 	ld	a1,8(s8)
ffffffffa08070c0:	0c201de8 	jal	ffffffffa08077a0 <queue_remove>
ffffffffa08070c4:	00000000 	nop
ffffffffa08070c8:	08201c4f 	j	ffffffffa080713c <do_kill+0x1e4>
ffffffffa08070cc:	00000000 	nop
ffffffffa08070d0:	dfc20008 	ld	v0,8(s8)
ffffffffa08070d4:	8c4302fc 	lw	v1,764(v0)
ffffffffa08070d8:	24020002 	li	v0,2
ffffffffa08070dc:	1462000c 	bne	v1,v0,ffffffffa0807110 <do_kill+0x1b8>
ffffffffa08070e0:	00000000 	nop
ffffffffa08070e4:	3c020000 	lui	v0,0x0
ffffffffa08070e8:	64420000 	daddiu	v0,v0,0
ffffffffa08070ec:	00021438 	dsll	v0,v0,0x10
ffffffffa08070f0:	6442a081 	daddiu	v0,v0,-24447
ffffffffa08070f4:	00021438 	dsll	v0,v0,0x10
ffffffffa08070f8:	64444910 	daddiu	a0,v0,18704
ffffffffa08070fc:	dfc50008 	ld	a1,8(s8)
ffffffffa0807100:	0c201de8 	jal	ffffffffa08077a0 <queue_remove>
ffffffffa0807104:	00000000 	nop
ffffffffa0807108:	08201c4f 	j	ffffffffa080713c <do_kill+0x1e4>
ffffffffa080710c:	00000000 	nop
ffffffffa0807110:	3c020000 	lui	v0,0x0
ffffffffa0807114:	64420000 	daddiu	v0,v0,0
ffffffffa0807118:	00021438 	dsll	v0,v0,0x10
ffffffffa080711c:	6442a081 	daddiu	v0,v0,-24447
ffffffffa0807120:	00021438 	dsll	v0,v0,0x10
ffffffffa0807124:	64444910 	daddiu	a0,v0,18704
ffffffffa0807128:	dfc50008 	ld	a1,8(s8)
ffffffffa080712c:	0c201de8 	jal	ffffffffa08077a0 <queue_remove>
ffffffffa0807130:	00000000 	nop
ffffffffa0807134:	0c2000b6 	jal	ffffffffa08002d8 <do_scheduler>
ffffffffa0807138:	00000000 	nop
ffffffffa080713c:	08201c60 	j	ffffffffa0807180 <do_kill+0x228>
ffffffffa0807140:	00000000 	nop
ffffffffa0807144:	dfc20008 	ld	v0,8(s8)
ffffffffa0807148:	dc4202a8 	ld	v0,680(v0)
ffffffffa080714c:	ffc20010 	sd	v0,16(s8)
ffffffffa0807150:	dfc20010 	ld	v0,16(s8)
ffffffffa0807154:	64420018 	daddiu	v0,v0,24
ffffffffa0807158:	0040202d 	move	a0,v0
ffffffffa080715c:	0c201b75 	jal	ffffffffa0806dd4 <do_unblock_all>
ffffffffa0807160:	00000000 	nop
ffffffffa0807164:	dfc20008 	ld	v0,8(s8)
ffffffffa0807168:	644202a8 	daddiu	v0,v0,680
ffffffffa080716c:	0040202d 	move	a0,v0
ffffffffa0807170:	0c201dc5 	jal	ffffffffa0807714 <queue_dequeue>
ffffffffa0807174:	00000000 	nop
ffffffffa0807178:	dfc20010 	ld	v0,16(s8)
ffffffffa080717c:	ac400000 	sw	zero,0(v0)
ffffffffa0807180:	dfc20008 	ld	v0,8(s8)
ffffffffa0807184:	644202a8 	daddiu	v0,v0,680
ffffffffa0807188:	0040202d 	move	a0,v0
ffffffffa080718c:	0c201d8b 	jal	ffffffffa080762c <queue_is_empty>
ffffffffa0807190:	00000000 	nop
ffffffffa0807194:	1040ffeb 	beqz	v0,ffffffffa0807144 <do_kill+0x1ec>
ffffffffa0807198:	00000000 	nop
ffffffffa080719c:	dfc20008 	ld	v0,8(s8)
ffffffffa08071a0:	644202b8 	daddiu	v0,v0,696
ffffffffa08071a4:	0040202d 	move	a0,v0
ffffffffa08071a8:	0c201b75 	jal	ffffffffa0806dd4 <do_unblock_all>
ffffffffa08071ac:	00000000 	nop
ffffffffa08071b0:	dfc20008 	ld	v0,8(s8)
ffffffffa08071b4:	24030003 	li	v1,3
ffffffffa08071b8:	ac4302fc 	sw	v1,764(v0)
ffffffffa08071bc:	dfc20008 	ld	v0,8(s8)
ffffffffa08071c0:	fc4002c8 	sd	zero,712(v0)
ffffffffa08071c4:	0000102d 	move	v0,zero
ffffffffa08071c8:	03c0e82d 	move	sp,s8
ffffffffa08071cc:	dfbf0038 	ld	ra,56(sp)
ffffffffa08071d0:	dfbe0030 	ld	s8,48(sp)
ffffffffa08071d4:	67bd0040 	daddiu	sp,sp,64
ffffffffa08071d8:	03e00008 	jr	ra
ffffffffa08071dc:	00000000 	nop

ffffffffa08071e0 <do_waitpid>:
ffffffffa08071e0:	67bdffd0 	daddiu	sp,sp,-48
ffffffffa08071e4:	ffbf0028 	sd	ra,40(sp)
ffffffffa08071e8:	ffbe0020 	sd	s8,32(sp)
ffffffffa08071ec:	03a0f02d 	move	s8,sp
ffffffffa08071f0:	0080102d 	move	v0,a0
ffffffffa08071f4:	00021000 	sll	v0,v0,0x0
ffffffffa08071f8:	afc20010 	sw	v0,16(s8)
ffffffffa08071fc:	afc00004 	sw	zero,4(s8)
ffffffffa0807200:	afc00000 	sw	zero,0(s8)
ffffffffa0807204:	08201c9d 	j	ffffffffa0807274 <do_waitpid+0x94>
ffffffffa0807208:	00000000 	nop
ffffffffa080720c:	3c050000 	lui	a1,0x0
ffffffffa0807210:	64a50000 	daddiu	a1,a1,0
ffffffffa0807214:	00052c38 	dsll	a1,a1,0x10
ffffffffa0807218:	64a5a081 	daddiu	a1,a1,-24447
ffffffffa080721c:	00052c38 	dsll	a1,a1,0x10
ffffffffa0807220:	8fc40000 	lw	a0,0(s8)
ffffffffa0807224:	0080182d 	move	v1,a0
ffffffffa0807228:	00031178 	dsll	v0,v1,0x5
ffffffffa080722c:	0040182d 	move	v1,v0
ffffffffa0807230:	000310b8 	dsll	v0,v1,0x2
ffffffffa0807234:	0043102f 	dsubu	v0,v0,v1
ffffffffa0807238:	0044102d 	daddu	v0,v0,a0
ffffffffa080723c:	000210f8 	dsll	v0,v0,0x3
ffffffffa0807240:	64a34928 	daddiu	v1,a1,18728
ffffffffa0807244:	0043102d 	daddu	v0,v0,v1
ffffffffa0807248:	8c4302f4 	lw	v1,756(v0)
ffffffffa080724c:	8fc20010 	lw	v0,16(s8)
ffffffffa0807250:	14430005 	bne	v0,v1,ffffffffa0807268 <do_waitpid+0x88>
ffffffffa0807254:	00000000 	nop
ffffffffa0807258:	24020001 	li	v0,1
ffffffffa080725c:	afc20004 	sw	v0,4(s8)
ffffffffa0807260:	08201ca1 	j	ffffffffa0807284 <do_waitpid+0xa4>
ffffffffa0807264:	00000000 	nop
ffffffffa0807268:	8fc20000 	lw	v0,0(s8)
ffffffffa080726c:	24420001 	addiu	v0,v0,1
ffffffffa0807270:	afc20000 	sw	v0,0(s8)
ffffffffa0807274:	8fc20000 	lw	v0,0(s8)
ffffffffa0807278:	28420020 	slti	v0,v0,32
ffffffffa080727c:	1440ffe3 	bnez	v0,ffffffffa080720c <do_waitpid+0x2c>
ffffffffa0807280:	00000000 	nop
ffffffffa0807284:	8fc20004 	lw	v0,4(s8)
ffffffffa0807288:	14400008 	bnez	v0,ffffffffa08072ac <do_waitpid+0xcc>
ffffffffa080728c:	00000000 	nop
ffffffffa0807290:	8fc30000 	lw	v1,0(s8)
ffffffffa0807294:	2402001f 	li	v0,31
ffffffffa0807298:	14620004 	bne	v1,v0,ffffffffa08072ac <do_waitpid+0xcc>
ffffffffa080729c:	00000000 	nop
ffffffffa08072a0:	2402ffff 	li	v0,-1
ffffffffa08072a4:	08201cd2 	j	ffffffffa0807348 <do_waitpid+0x168>
ffffffffa08072a8:	00000000 	nop
ffffffffa08072ac:	3c050000 	lui	a1,0x0
ffffffffa08072b0:	64a50000 	daddiu	a1,a1,0
ffffffffa08072b4:	00052c38 	dsll	a1,a1,0x10
ffffffffa08072b8:	64a5a081 	daddiu	a1,a1,-24447
ffffffffa08072bc:	00052c38 	dsll	a1,a1,0x10
ffffffffa08072c0:	8fc40000 	lw	a0,0(s8)
ffffffffa08072c4:	0080182d 	move	v1,a0
ffffffffa08072c8:	00031178 	dsll	v0,v1,0x5
ffffffffa08072cc:	0040182d 	move	v1,v0
ffffffffa08072d0:	000310b8 	dsll	v0,v1,0x2
ffffffffa08072d4:	0043102f 	dsubu	v0,v0,v1
ffffffffa08072d8:	0044102d 	daddu	v0,v0,a0
ffffffffa08072dc:	000210f8 	dsll	v0,v0,0x3
ffffffffa08072e0:	64a34928 	daddiu	v1,a1,18728
ffffffffa08072e4:	0043102d 	daddu	v0,v0,v1
ffffffffa08072e8:	8c4302fc 	lw	v1,764(v0)
ffffffffa08072ec:	24020003 	li	v0,3
ffffffffa08072f0:	10620015 	beq	v1,v0,ffffffffa0807348 <do_waitpid+0x168>
ffffffffa08072f4:	00000000 	nop
ffffffffa08072f8:	8fc40000 	lw	a0,0(s8)
ffffffffa08072fc:	0080182d 	move	v1,a0
ffffffffa0807300:	00031178 	dsll	v0,v1,0x5
ffffffffa0807304:	0040182d 	move	v1,v0
ffffffffa0807308:	000310b8 	dsll	v0,v1,0x2
ffffffffa080730c:	0043102f 	dsubu	v0,v0,v1
ffffffffa0807310:	0044102d 	daddu	v0,v0,a0
ffffffffa0807314:	000210f8 	dsll	v0,v0,0x3
ffffffffa0807318:	644302b0 	daddiu	v1,v0,688
ffffffffa080731c:	3c020000 	lui	v0,0x0
ffffffffa0807320:	64420000 	daddiu	v0,v0,0
ffffffffa0807324:	00021438 	dsll	v0,v0,0x10
ffffffffa0807328:	6442a081 	daddiu	v0,v0,-24447
ffffffffa080732c:	00021438 	dsll	v0,v0,0x10
ffffffffa0807330:	64424928 	daddiu	v0,v0,18728
ffffffffa0807334:	0062102d 	daddu	v0,v1,v0
ffffffffa0807338:	64420008 	daddiu	v0,v0,8
ffffffffa080733c:	0040202d 	move	a0,v0
ffffffffa0807340:	0c201b32 	jal	ffffffffa0806cc8 <do_block>
ffffffffa0807344:	00000000 	nop
ffffffffa0807348:	03c0e82d 	move	sp,s8
ffffffffa080734c:	dfbf0028 	ld	ra,40(sp)
ffffffffa0807350:	dfbe0020 	ld	s8,32(sp)
ffffffffa0807354:	67bd0030 	daddiu	sp,sp,48
ffffffffa0807358:	03e00008 	jr	ra
ffffffffa080735c:	00000000 	nop

ffffffffa0807360 <do_process_show>:
ffffffffa0807360:	67bdffe0 	daddiu	sp,sp,-32
ffffffffa0807364:	ffbf0018 	sd	ra,24(sp)
ffffffffa0807368:	ffbe0010 	sd	s8,16(sp)
ffffffffa080736c:	03a0f02d 	move	s8,sp
ffffffffa0807370:	3c020000 	lui	v0,0x0
ffffffffa0807374:	64420000 	daddiu	v0,v0,0
ffffffffa0807378:	00021438 	dsll	v0,v0,0x10
ffffffffa080737c:	6442a081 	daddiu	v0,v0,-24447
ffffffffa0807380:	00021438 	dsll	v0,v0,0x10
ffffffffa0807384:	6444b0b0 	daddiu	a0,v0,-20304
ffffffffa0807388:	0c2023af 	jal	ffffffffa0808ebc <kprintf>
ffffffffa080738c:	00000000 	nop
ffffffffa0807390:	afc00004 	sw	zero,4(s8)
ffffffffa0807394:	afc00000 	sw	zero,0(s8)
ffffffffa0807398:	08201d61 	j	ffffffffa0807584 <do_process_show+0x224>
ffffffffa080739c:	00000000 	nop
ffffffffa08073a0:	3c050000 	lui	a1,0x0
ffffffffa08073a4:	64a50000 	daddiu	a1,a1,0
ffffffffa08073a8:	00052c38 	dsll	a1,a1,0x10
ffffffffa08073ac:	64a5a081 	daddiu	a1,a1,-24447
ffffffffa08073b0:	00052c38 	dsll	a1,a1,0x10
ffffffffa08073b4:	8fc40000 	lw	a0,0(s8)
ffffffffa08073b8:	0080182d 	move	v1,a0
ffffffffa08073bc:	00031178 	dsll	v0,v1,0x5
ffffffffa08073c0:	0040182d 	move	v1,v0
ffffffffa08073c4:	000310b8 	dsll	v0,v1,0x2
ffffffffa08073c8:	0043102f 	dsubu	v0,v0,v1
ffffffffa08073cc:	0044102d 	daddu	v0,v0,a0
ffffffffa08073d0:	000210f8 	dsll	v0,v0,0x3
ffffffffa08073d4:	64a34928 	daddiu	v1,a1,18728
ffffffffa08073d8:	0043102d 	daddu	v0,v0,v1
ffffffffa08073dc:	8c4202fc 	lw	v0,764(v0)
ffffffffa08073e0:	afc20008 	sw	v0,8(s8)
ffffffffa08073e4:	8fc20008 	lw	v0,8(s8)
ffffffffa08073e8:	24030001 	li	v1,1
ffffffffa08073ec:	10430009 	beq	v0,v1,ffffffffa0807414 <do_process_show+0xb4>
ffffffffa08073f0:	00000000 	nop
ffffffffa08073f4:	2c430001 	sltiu	v1,v0,1
ffffffffa08073f8:	14600042 	bnez	v1,ffffffffa0807504 <do_process_show+0x1a4>
ffffffffa08073fc:	00000000 	nop
ffffffffa0807400:	24030002 	li	v1,2
ffffffffa0807404:	10430021 	beq	v0,v1,ffffffffa080748c <do_process_show+0x12c>
ffffffffa0807408:	00000000 	nop
ffffffffa080740c:	08201d5e 	j	ffffffffa0807578 <do_process_show+0x218>
ffffffffa0807410:	00000000 	nop
ffffffffa0807414:	8fc50004 	lw	a1,4(s8)
ffffffffa0807418:	24a20001 	addiu	v0,a1,1
ffffffffa080741c:	afc20004 	sw	v0,4(s8)
ffffffffa0807420:	3c060000 	lui	a2,0x0
ffffffffa0807424:	64c60000 	daddiu	a2,a2,0
ffffffffa0807428:	00063438 	dsll	a2,a2,0x10
ffffffffa080742c:	64c6a081 	daddiu	a2,a2,-24447
ffffffffa0807430:	00063438 	dsll	a2,a2,0x10
ffffffffa0807434:	8fc40000 	lw	a0,0(s8)
ffffffffa0807438:	0080182d 	move	v1,a0
ffffffffa080743c:	00031178 	dsll	v0,v1,0x5
ffffffffa0807440:	0040182d 	move	v1,v0
ffffffffa0807444:	000310b8 	dsll	v0,v1,0x2
ffffffffa0807448:	0043102f 	dsubu	v0,v0,v1
ffffffffa080744c:	0044102d 	daddu	v0,v0,a0
ffffffffa0807450:	000210f8 	dsll	v0,v0,0x3
ffffffffa0807454:	64c34928 	daddiu	v1,a2,18728
ffffffffa0807458:	0043102d 	daddu	v0,v0,v1
ffffffffa080745c:	8c4302f4 	lw	v1,756(v0)
ffffffffa0807460:	3c020000 	lui	v0,0x0
ffffffffa0807464:	64420000 	daddiu	v0,v0,0
ffffffffa0807468:	00021438 	dsll	v0,v0,0x10
ffffffffa080746c:	6442a081 	daddiu	v0,v0,-24447
ffffffffa0807470:	00021438 	dsll	v0,v0,0x10
ffffffffa0807474:	6444b0c8 	daddiu	a0,v0,-20280
ffffffffa0807478:	0060302d 	move	a2,v1
ffffffffa080747c:	0c2023af 	jal	ffffffffa0808ebc <kprintf>
ffffffffa0807480:	00000000 	nop
ffffffffa0807484:	08201d5e 	j	ffffffffa0807578 <do_process_show+0x218>
ffffffffa0807488:	00000000 	nop
ffffffffa080748c:	8fc50004 	lw	a1,4(s8)
ffffffffa0807490:	24a20001 	addiu	v0,a1,1
ffffffffa0807494:	afc20004 	sw	v0,4(s8)
ffffffffa0807498:	3c060000 	lui	a2,0x0
ffffffffa080749c:	64c60000 	daddiu	a2,a2,0
ffffffffa08074a0:	00063438 	dsll	a2,a2,0x10
ffffffffa08074a4:	64c6a081 	daddiu	a2,a2,-24447
ffffffffa08074a8:	00063438 	dsll	a2,a2,0x10
ffffffffa08074ac:	8fc40000 	lw	a0,0(s8)
ffffffffa08074b0:	0080182d 	move	v1,a0
ffffffffa08074b4:	00031178 	dsll	v0,v1,0x5
ffffffffa08074b8:	0040182d 	move	v1,v0
ffffffffa08074bc:	000310b8 	dsll	v0,v1,0x2
ffffffffa08074c0:	0043102f 	dsubu	v0,v0,v1
ffffffffa08074c4:	0044102d 	daddu	v0,v0,a0
ffffffffa08074c8:	000210f8 	dsll	v0,v0,0x3
ffffffffa08074cc:	64c34928 	daddiu	v1,a2,18728
ffffffffa08074d0:	0043102d 	daddu	v0,v0,v1
ffffffffa08074d4:	8c4302f4 	lw	v1,756(v0)
ffffffffa08074d8:	3c020000 	lui	v0,0x0
ffffffffa08074dc:	64420000 	daddiu	v0,v0,0
ffffffffa08074e0:	00021438 	dsll	v0,v0,0x10
ffffffffa08074e4:	6442a081 	daddiu	v0,v0,-24447
ffffffffa08074e8:	00021438 	dsll	v0,v0,0x10
ffffffffa08074ec:	6444b0e8 	daddiu	a0,v0,-20248
ffffffffa08074f0:	0060302d 	move	a2,v1
ffffffffa08074f4:	0c2023af 	jal	ffffffffa0808ebc <kprintf>
ffffffffa08074f8:	00000000 	nop
ffffffffa08074fc:	08201d5e 	j	ffffffffa0807578 <do_process_show+0x218>
ffffffffa0807500:	00000000 	nop
ffffffffa0807504:	8fc50004 	lw	a1,4(s8)
ffffffffa0807508:	24a20001 	addiu	v0,a1,1
ffffffffa080750c:	afc20004 	sw	v0,4(s8)
ffffffffa0807510:	3c060000 	lui	a2,0x0
ffffffffa0807514:	64c60000 	daddiu	a2,a2,0
ffffffffa0807518:	00063438 	dsll	a2,a2,0x10
ffffffffa080751c:	64c6a081 	daddiu	a2,a2,-24447
ffffffffa0807520:	00063438 	dsll	a2,a2,0x10
ffffffffa0807524:	8fc40000 	lw	a0,0(s8)
ffffffffa0807528:	0080182d 	move	v1,a0
ffffffffa080752c:	00031178 	dsll	v0,v1,0x5
ffffffffa0807530:	0040182d 	move	v1,v0
ffffffffa0807534:	000310b8 	dsll	v0,v1,0x2
ffffffffa0807538:	0043102f 	dsubu	v0,v0,v1
ffffffffa080753c:	0044102d 	daddu	v0,v0,a0
ffffffffa0807540:	000210f8 	dsll	v0,v0,0x3
ffffffffa0807544:	64c34928 	daddiu	v1,a2,18728
ffffffffa0807548:	0043102d 	daddu	v0,v0,v1
ffffffffa080754c:	8c4302f4 	lw	v1,756(v0)
ffffffffa0807550:	3c020000 	lui	v0,0x0
ffffffffa0807554:	64420000 	daddiu	v0,v0,0
ffffffffa0807558:	00021438 	dsll	v0,v0,0x10
ffffffffa080755c:	6442a081 	daddiu	v0,v0,-24447
ffffffffa0807560:	00021438 	dsll	v0,v0,0x10
ffffffffa0807564:	6444b108 	daddiu	a0,v0,-20216
ffffffffa0807568:	0060302d 	move	a2,v1
ffffffffa080756c:	0c2023af 	jal	ffffffffa0808ebc <kprintf>
ffffffffa0807570:	00000000 	nop
ffffffffa0807574:	00000000 	nop
ffffffffa0807578:	8fc20000 	lw	v0,0(s8)
ffffffffa080757c:	24420001 	addiu	v0,v0,1
ffffffffa0807580:	afc20000 	sw	v0,0(s8)
ffffffffa0807584:	8fc20000 	lw	v0,0(s8)
ffffffffa0807588:	28420020 	slti	v0,v0,32
ffffffffa080758c:	1440ff84 	bnez	v0,ffffffffa08073a0 <do_process_show+0x40>
ffffffffa0807590:	00000000 	nop
ffffffffa0807594:	03c0e82d 	move	sp,s8
ffffffffa0807598:	dfbf0018 	ld	ra,24(sp)
ffffffffa080759c:	dfbe0010 	ld	s8,16(sp)
ffffffffa08075a0:	67bd0020 	daddiu	sp,sp,32
ffffffffa08075a4:	03e00008 	jr	ra
ffffffffa08075a8:	00000000 	nop

ffffffffa08075ac <do_getpid>:
ffffffffa08075ac:	67bdfff0 	daddiu	sp,sp,-16
ffffffffa08075b0:	ffbe0008 	sd	s8,8(sp)
ffffffffa08075b4:	03a0f02d 	move	s8,sp
ffffffffa08075b8:	3c020000 	lui	v0,0x0
ffffffffa08075bc:	64420000 	daddiu	v0,v0,0
ffffffffa08075c0:	00021438 	dsll	v0,v0,0x10
ffffffffa08075c4:	6442a081 	daddiu	v0,v0,-24447
ffffffffa08075c8:	00021438 	dsll	v0,v0,0x10
ffffffffa08075cc:	dc424920 	ld	v0,18720(v0)
ffffffffa08075d0:	8c4202f4 	lw	v0,756(v0)
ffffffffa08075d4:	03c0e82d 	move	sp,s8
ffffffffa08075d8:	dfbe0008 	ld	s8,8(sp)
ffffffffa08075dc:	67bd0010 	daddiu	sp,sp,16
ffffffffa08075e0:	03e00008 	jr	ra
ffffffffa08075e4:	00000000 	nop
	...

ffffffffa08075f0 <queue_init>:
ffffffffa08075f0:	67bdffe0 	daddiu	sp,sp,-32
ffffffffa08075f4:	ffbe0018 	sd	s8,24(sp)
ffffffffa08075f8:	03a0f02d 	move	s8,sp
ffffffffa08075fc:	ffc40000 	sd	a0,0(s8)
ffffffffa0807600:	dfc20000 	ld	v0,0(s8)
ffffffffa0807604:	fc400008 	sd	zero,8(v0)
ffffffffa0807608:	dfc20000 	ld	v0,0(s8)
ffffffffa080760c:	dc430008 	ld	v1,8(v0)
ffffffffa0807610:	dfc20000 	ld	v0,0(s8)
ffffffffa0807614:	fc430000 	sd	v1,0(v0)
ffffffffa0807618:	03c0e82d 	move	sp,s8
ffffffffa080761c:	dfbe0018 	ld	s8,24(sp)
ffffffffa0807620:	67bd0020 	daddiu	sp,sp,32
ffffffffa0807624:	03e00008 	jr	ra
ffffffffa0807628:	00000000 	nop

ffffffffa080762c <queue_is_empty>:
ffffffffa080762c:	67bdffe0 	daddiu	sp,sp,-32
ffffffffa0807630:	ffbe0018 	sd	s8,24(sp)
ffffffffa0807634:	03a0f02d 	move	s8,sp
ffffffffa0807638:	ffc40000 	sd	a0,0(s8)
ffffffffa080763c:	dfc20000 	ld	v0,0(s8)
ffffffffa0807640:	dc420000 	ld	v0,0(v0)
ffffffffa0807644:	14400004 	bnez	v0,ffffffffa0807658 <queue_is_empty+0x2c>
ffffffffa0807648:	00000000 	nop
ffffffffa080764c:	24020001 	li	v0,1
ffffffffa0807650:	08201d97 	j	ffffffffa080765c <queue_is_empty+0x30>
ffffffffa0807654:	00000000 	nop
ffffffffa0807658:	0000102d 	move	v0,zero
ffffffffa080765c:	03c0e82d 	move	sp,s8
ffffffffa0807660:	dfbe0018 	ld	s8,24(sp)
ffffffffa0807664:	67bd0020 	daddiu	sp,sp,32
ffffffffa0807668:	03e00008 	jr	ra
ffffffffa080766c:	00000000 	nop

ffffffffa0807670 <queue_push>:
ffffffffa0807670:	67bdffd0 	daddiu	sp,sp,-48
ffffffffa0807674:	ffbe0028 	sd	s8,40(sp)
ffffffffa0807678:	03a0f02d 	move	s8,sp
ffffffffa080767c:	ffc40010 	sd	a0,16(s8)
ffffffffa0807680:	ffc50018 	sd	a1,24(s8)
ffffffffa0807684:	dfc20018 	ld	v0,24(s8)
ffffffffa0807688:	ffc20000 	sd	v0,0(s8)
ffffffffa080768c:	dfc20010 	ld	v0,16(s8)
ffffffffa0807690:	dc420000 	ld	v0,0(v0)
ffffffffa0807694:	1440000d 	bnez	v0,ffffffffa08076cc <queue_push+0x5c>
ffffffffa0807698:	00000000 	nop
ffffffffa080769c:	dfc20010 	ld	v0,16(s8)
ffffffffa08076a0:	dfc30018 	ld	v1,24(s8)
ffffffffa08076a4:	fc430000 	sd	v1,0(v0)
ffffffffa08076a8:	dfc20010 	ld	v0,16(s8)
ffffffffa08076ac:	dfc30018 	ld	v1,24(s8)
ffffffffa08076b0:	fc430008 	sd	v1,8(v0)
ffffffffa08076b4:	dfc20000 	ld	v0,0(s8)
ffffffffa08076b8:	fc4002a0 	sd	zero,672(v0)
ffffffffa08076bc:	dfc20000 	ld	v0,0(s8)
ffffffffa08076c0:	fc400298 	sd	zero,664(v0)
ffffffffa08076c4:	08201dc0 	j	ffffffffa0807700 <queue_push+0x90>
ffffffffa08076c8:	00000000 	nop
ffffffffa08076cc:	dfc20010 	ld	v0,16(s8)
ffffffffa08076d0:	dc420008 	ld	v0,8(v0)
ffffffffa08076d4:	dfc30018 	ld	v1,24(s8)
ffffffffa08076d8:	fc4302a0 	sd	v1,672(v0)
ffffffffa08076dc:	dfc20000 	ld	v0,0(s8)
ffffffffa08076e0:	fc4002a0 	sd	zero,672(v0)
ffffffffa08076e4:	dfc20010 	ld	v0,16(s8)
ffffffffa08076e8:	dc430008 	ld	v1,8(v0)
ffffffffa08076ec:	dfc20000 	ld	v0,0(s8)
ffffffffa08076f0:	fc430298 	sd	v1,664(v0)
ffffffffa08076f4:	dfc20010 	ld	v0,16(s8)
ffffffffa08076f8:	dfc30018 	ld	v1,24(s8)
ffffffffa08076fc:	fc430008 	sd	v1,8(v0)
ffffffffa0807700:	03c0e82d 	move	sp,s8
ffffffffa0807704:	dfbe0028 	ld	s8,40(sp)
ffffffffa0807708:	67bd0030 	daddiu	sp,sp,48
ffffffffa080770c:	03e00008 	jr	ra
ffffffffa0807710:	00000000 	nop

ffffffffa0807714 <queue_dequeue>:
ffffffffa0807714:	67bdffd0 	daddiu	sp,sp,-48
ffffffffa0807718:	ffbe0028 	sd	s8,40(sp)
ffffffffa080771c:	03a0f02d 	move	s8,sp
ffffffffa0807720:	ffc40010 	sd	a0,16(s8)
ffffffffa0807724:	dfc20010 	ld	v0,16(s8)
ffffffffa0807728:	dc420000 	ld	v0,0(v0)
ffffffffa080772c:	ffc20000 	sd	v0,0(s8)
ffffffffa0807730:	dfc20000 	ld	v0,0(s8)
ffffffffa0807734:	dc4202a0 	ld	v0,672(v0)
ffffffffa0807738:	14400007 	bnez	v0,ffffffffa0807758 <queue_dequeue+0x44>
ffffffffa080773c:	00000000 	nop
ffffffffa0807740:	dfc20010 	ld	v0,16(s8)
ffffffffa0807744:	fc400000 	sd	zero,0(v0)
ffffffffa0807748:	dfc20010 	ld	v0,16(s8)
ffffffffa080774c:	fc400008 	sd	zero,8(v0)
ffffffffa0807750:	08201dde 	j	ffffffffa0807778 <queue_dequeue+0x64>
ffffffffa0807754:	00000000 	nop
ffffffffa0807758:	dfc20010 	ld	v0,16(s8)
ffffffffa080775c:	dc420000 	ld	v0,0(v0)
ffffffffa0807760:	dc4302a0 	ld	v1,672(v0)
ffffffffa0807764:	dfc20010 	ld	v0,16(s8)
ffffffffa0807768:	fc430000 	sd	v1,0(v0)
ffffffffa080776c:	dfc20010 	ld	v0,16(s8)
ffffffffa0807770:	dc420000 	ld	v0,0(v0)
ffffffffa0807774:	fc400298 	sd	zero,664(v0)
ffffffffa0807778:	dfc20000 	ld	v0,0(s8)
ffffffffa080777c:	fc400298 	sd	zero,664(v0)
ffffffffa0807780:	dfc20000 	ld	v0,0(s8)
ffffffffa0807784:	fc4002a0 	sd	zero,672(v0)
ffffffffa0807788:	dfc20000 	ld	v0,0(s8)
ffffffffa080778c:	03c0e82d 	move	sp,s8
ffffffffa0807790:	dfbe0028 	ld	s8,40(sp)
ffffffffa0807794:	67bd0030 	daddiu	sp,sp,48
ffffffffa0807798:	03e00008 	jr	ra
ffffffffa080779c:	00000000 	nop

ffffffffa08077a0 <queue_remove>:
ffffffffa08077a0:	67bdffd0 	daddiu	sp,sp,-48
ffffffffa08077a4:	ffbe0028 	sd	s8,40(sp)
ffffffffa08077a8:	03a0f02d 	move	s8,sp
ffffffffa08077ac:	ffc40010 	sd	a0,16(s8)
ffffffffa08077b0:	ffc50018 	sd	a1,24(s8)
ffffffffa08077b4:	dfc20018 	ld	v0,24(s8)
ffffffffa08077b8:	ffc20000 	sd	v0,0(s8)
ffffffffa08077bc:	dfc20000 	ld	v0,0(s8)
ffffffffa08077c0:	dc4202a0 	ld	v0,672(v0)
ffffffffa08077c4:	ffc20008 	sd	v0,8(s8)
ffffffffa08077c8:	dfc20010 	ld	v0,16(s8)
ffffffffa08077cc:	dc430000 	ld	v1,0(v0)
ffffffffa08077d0:	dfc20018 	ld	v0,24(s8)
ffffffffa08077d4:	1462000c 	bne	v1,v0,ffffffffa0807808 <queue_remove+0x68>
ffffffffa08077d8:	00000000 	nop
ffffffffa08077dc:	dfc20010 	ld	v0,16(s8)
ffffffffa08077e0:	dc430008 	ld	v1,8(v0)
ffffffffa08077e4:	dfc20018 	ld	v0,24(s8)
ffffffffa08077e8:	14620007 	bne	v1,v0,ffffffffa0807808 <queue_remove+0x68>
ffffffffa08077ec:	00000000 	nop
ffffffffa08077f0:	dfc20010 	ld	v0,16(s8)
ffffffffa08077f4:	fc400000 	sd	zero,0(v0)
ffffffffa08077f8:	dfc20010 	ld	v0,16(s8)
ffffffffa08077fc:	fc400008 	sd	zero,8(v0)
ffffffffa0807800:	08201e28 	j	ffffffffa08078a0 <queue_remove+0x100>
ffffffffa0807804:	00000000 	nop
ffffffffa0807808:	dfc20010 	ld	v0,16(s8)
ffffffffa080780c:	dc430000 	ld	v1,0(v0)
ffffffffa0807810:	dfc20018 	ld	v0,24(s8)
ffffffffa0807814:	1462000a 	bne	v1,v0,ffffffffa0807840 <queue_remove+0xa0>
ffffffffa0807818:	00000000 	nop
ffffffffa080781c:	dfc20000 	ld	v0,0(s8)
ffffffffa0807820:	dc4302a0 	ld	v1,672(v0)
ffffffffa0807824:	dfc20010 	ld	v0,16(s8)
ffffffffa0807828:	fc430000 	sd	v1,0(v0)
ffffffffa080782c:	dfc20010 	ld	v0,16(s8)
ffffffffa0807830:	dc420000 	ld	v0,0(v0)
ffffffffa0807834:	fc400298 	sd	zero,664(v0)
ffffffffa0807838:	08201e28 	j	ffffffffa08078a0 <queue_remove+0x100>
ffffffffa080783c:	00000000 	nop
ffffffffa0807840:	dfc20010 	ld	v0,16(s8)
ffffffffa0807844:	dc430008 	ld	v1,8(v0)
ffffffffa0807848:	dfc20018 	ld	v0,24(s8)
ffffffffa080784c:	1462000a 	bne	v1,v0,ffffffffa0807878 <queue_remove+0xd8>
ffffffffa0807850:	00000000 	nop
ffffffffa0807854:	dfc20000 	ld	v0,0(s8)
ffffffffa0807858:	dc430298 	ld	v1,664(v0)
ffffffffa080785c:	dfc20010 	ld	v0,16(s8)
ffffffffa0807860:	fc430008 	sd	v1,8(v0)
ffffffffa0807864:	dfc20010 	ld	v0,16(s8)
ffffffffa0807868:	dc420008 	ld	v0,8(v0)
ffffffffa080786c:	fc4002a0 	sd	zero,672(v0)
ffffffffa0807870:	08201e28 	j	ffffffffa08078a0 <queue_remove+0x100>
ffffffffa0807874:	00000000 	nop
ffffffffa0807878:	dfc20000 	ld	v0,0(s8)
ffffffffa080787c:	dc420298 	ld	v0,664(v0)
ffffffffa0807880:	dfc30000 	ld	v1,0(s8)
ffffffffa0807884:	dc6302a0 	ld	v1,672(v1)
ffffffffa0807888:	fc4302a0 	sd	v1,672(v0)
ffffffffa080788c:	dfc20000 	ld	v0,0(s8)
ffffffffa0807890:	dc4202a0 	ld	v0,672(v0)
ffffffffa0807894:	dfc30000 	ld	v1,0(s8)
ffffffffa0807898:	dc630298 	ld	v1,664(v1)
ffffffffa080789c:	fc430298 	sd	v1,664(v0)
ffffffffa08078a0:	dfc20000 	ld	v0,0(s8)
ffffffffa08078a4:	fc400298 	sd	zero,664(v0)
ffffffffa08078a8:	dfc20000 	ld	v0,0(s8)
ffffffffa08078ac:	fc4002a0 	sd	zero,672(v0)
ffffffffa08078b0:	dfc20008 	ld	v0,8(s8)
ffffffffa08078b4:	03c0e82d 	move	sp,s8
ffffffffa08078b8:	dfbe0028 	ld	s8,40(sp)
ffffffffa08078bc:	67bd0030 	daddiu	sp,sp,48
ffffffffa08078c0:	03e00008 	jr	ra
ffffffffa08078c4:	00000000 	nop
	...

ffffffffa08078d0 <get_ticks>:
ffffffffa08078d0:	67bdfff0 	daddiu	sp,sp,-16
ffffffffa08078d4:	ffbe0008 	sd	s8,8(sp)
ffffffffa08078d8:	03a0f02d 	move	s8,sp
ffffffffa08078dc:	3c020000 	lui	v0,0x0
ffffffffa08078e0:	64420000 	daddiu	v0,v0,0
ffffffffa08078e4:	00021438 	dsll	v0,v0,0x10
ffffffffa08078e8:	6442a081 	daddiu	v0,v0,-24447
ffffffffa08078ec:	00021438 	dsll	v0,v0,0x10
ffffffffa08078f0:	8c423580 	lw	v0,13696(v0)
ffffffffa08078f4:	03c0e82d 	move	sp,s8
ffffffffa08078f8:	dfbe0008 	ld	s8,8(sp)
ffffffffa08078fc:	67bd0010 	daddiu	sp,sp,16
ffffffffa0807900:	03e00008 	jr	ra
ffffffffa0807904:	00000000 	nop

ffffffffa0807908 <get_timer>:
ffffffffa0807908:	67bdfff0 	daddiu	sp,sp,-16
ffffffffa080790c:	ffbe0008 	sd	s8,8(sp)
ffffffffa0807910:	03a0f02d 	move	s8,sp
ffffffffa0807914:	3c020000 	lui	v0,0x0
ffffffffa0807918:	64420000 	daddiu	v0,v0,0
ffffffffa080791c:	00021438 	dsll	v0,v0,0x10
ffffffffa0807920:	6442a081 	daddiu	v0,v0,-24447
ffffffffa0807924:	00021438 	dsll	v0,v0,0x10
ffffffffa0807928:	8c423580 	lw	v0,13696(v0)
ffffffffa080792c:	0040182d 	move	v1,v0
ffffffffa0807930:	3c026b5f 	lui	v0,0x6b5f
ffffffffa0807934:	3442ca6b 	ori	v0,v0,0xca6b
ffffffffa0807938:	00620019 	multu	v1,v0
ffffffffa080793c:	00001010 	mfhi	v0
ffffffffa0807940:	00021582 	srl	v0,v0,0x16
ffffffffa0807944:	03c0e82d 	move	sp,s8
ffffffffa0807948:	dfbe0008 	ld	s8,8(sp)
ffffffffa080794c:	67bd0010 	daddiu	sp,sp,16
ffffffffa0807950:	03e00008 	jr	ra
ffffffffa0807954:	00000000 	nop

ffffffffa0807958 <latency>:
ffffffffa0807958:	67bdffd0 	daddiu	sp,sp,-48
ffffffffa080795c:	ffbf0028 	sd	ra,40(sp)
ffffffffa0807960:	ffbe0020 	sd	s8,32(sp)
ffffffffa0807964:	03a0f02d 	move	s8,sp
ffffffffa0807968:	0080102d 	move	v0,a0
ffffffffa080796c:	00021000 	sll	v0,v0,0x0
ffffffffa0807970:	afc20010 	sw	v0,16(s8)
ffffffffa0807974:	0c201e42 	jal	ffffffffa0807908 <get_timer>
ffffffffa0807978:	00000000 	nop
ffffffffa080797c:	afc20000 	sw	v0,0(s8)
ffffffffa0807980:	00000000 	nop
ffffffffa0807984:	0c201e42 	jal	ffffffffa0807908 <get_timer>
ffffffffa0807988:	00000000 	nop
ffffffffa080798c:	0040182d 	move	v1,v0
ffffffffa0807990:	8fc20000 	lw	v0,0(s8)
ffffffffa0807994:	00621023 	subu	v0,v1,v0
ffffffffa0807998:	8fc30010 	lw	v1,16(s8)
ffffffffa080799c:	0043102b 	sltu	v0,v0,v1
ffffffffa08079a0:	1440fff8 	bnez	v0,ffffffffa0807984 <latency+0x2c>
ffffffffa08079a4:	00000000 	nop
ffffffffa08079a8:	00000000 	nop
ffffffffa08079ac:	03c0e82d 	move	sp,s8
ffffffffa08079b0:	dfbf0028 	ld	ra,40(sp)
ffffffffa08079b4:	dfbe0020 	ld	s8,32(sp)
ffffffffa08079b8:	67bd0030 	daddiu	sp,sp,48
ffffffffa08079bc:	03e00008 	jr	ra
ffffffffa08079c0:	00000000 	nop
	...

ffffffffa08079d0 <system_call_helper>:
ffffffffa08079d0:	67bdffd0 	daddiu	sp,sp,-48
ffffffffa08079d4:	ffbe0028 	sd	s8,40(sp)
ffffffffa08079d8:	03a0f02d 	move	s8,sp
ffffffffa08079dc:	ffc40000 	sd	a0,0(s8)
ffffffffa08079e0:	ffc50008 	sd	a1,8(s8)
ffffffffa08079e4:	ffc60010 	sd	a2,16(s8)
ffffffffa08079e8:	ffc70018 	sd	a3,24(s8)
ffffffffa08079ec:	03c0e82d 	move	sp,s8
ffffffffa08079f0:	dfbe0028 	ld	s8,40(sp)
ffffffffa08079f4:	67bd0030 	daddiu	sp,sp,48
ffffffffa08079f8:	03e00008 	jr	ra
ffffffffa08079fc:	00000000 	nop

ffffffffa0807a00 <sys_spawn>:
ffffffffa0807a00:	67bdffe0 	daddiu	sp,sp,-32
ffffffffa0807a04:	ffbe0018 	sd	s8,24(sp)
ffffffffa0807a08:	03a0f02d 	move	s8,sp
ffffffffa0807a0c:	ffc40000 	sd	a0,0(s8)
ffffffffa0807a10:	03c0e82d 	move	sp,s8
ffffffffa0807a14:	dfbe0018 	ld	s8,24(sp)
ffffffffa0807a18:	67bd0020 	daddiu	sp,sp,32
ffffffffa0807a1c:	03e00008 	jr	ra
ffffffffa0807a20:	00000000 	nop

ffffffffa0807a24 <sys_exit>:
ffffffffa0807a24:	67bdfff0 	daddiu	sp,sp,-16
ffffffffa0807a28:	ffbe0008 	sd	s8,8(sp)
ffffffffa0807a2c:	03a0f02d 	move	s8,sp
ffffffffa0807a30:	03c0e82d 	move	sp,s8
ffffffffa0807a34:	dfbe0008 	ld	s8,8(sp)
ffffffffa0807a38:	67bd0010 	daddiu	sp,sp,16
ffffffffa0807a3c:	03e00008 	jr	ra
ffffffffa0807a40:	00000000 	nop

ffffffffa0807a44 <sys_sleep>:
ffffffffa0807a44:	67bdffe0 	daddiu	sp,sp,-32
ffffffffa0807a48:	ffbe0018 	sd	s8,24(sp)
ffffffffa0807a4c:	03a0f02d 	move	s8,sp
ffffffffa0807a50:	0080102d 	move	v0,a0
ffffffffa0807a54:	00021000 	sll	v0,v0,0x0
ffffffffa0807a58:	afc20000 	sw	v0,0(s8)
ffffffffa0807a5c:	03c0e82d 	move	sp,s8
ffffffffa0807a60:	dfbe0018 	ld	s8,24(sp)
ffffffffa0807a64:	67bd0020 	daddiu	sp,sp,32
ffffffffa0807a68:	03e00008 	jr	ra
ffffffffa0807a6c:	00000000 	nop

ffffffffa0807a70 <sys_kill>:
ffffffffa0807a70:	67bdffe0 	daddiu	sp,sp,-32
ffffffffa0807a74:	ffbe0018 	sd	s8,24(sp)
ffffffffa0807a78:	03a0f02d 	move	s8,sp
ffffffffa0807a7c:	0080102d 	move	v0,a0
ffffffffa0807a80:	00021000 	sll	v0,v0,0x0
ffffffffa0807a84:	afc20000 	sw	v0,0(s8)
ffffffffa0807a88:	03c0e82d 	move	sp,s8
ffffffffa0807a8c:	dfbe0018 	ld	s8,24(sp)
ffffffffa0807a90:	67bd0020 	daddiu	sp,sp,32
ffffffffa0807a94:	03e00008 	jr	ra
ffffffffa0807a98:	00000000 	nop

ffffffffa0807a9c <sys_waitpid>:
ffffffffa0807a9c:	67bdffe0 	daddiu	sp,sp,-32
ffffffffa0807aa0:	ffbe0018 	sd	s8,24(sp)
ffffffffa0807aa4:	03a0f02d 	move	s8,sp
ffffffffa0807aa8:	0080102d 	move	v0,a0
ffffffffa0807aac:	00021000 	sll	v0,v0,0x0
ffffffffa0807ab0:	afc20000 	sw	v0,0(s8)
ffffffffa0807ab4:	03c0e82d 	move	sp,s8
ffffffffa0807ab8:	dfbe0018 	ld	s8,24(sp)
ffffffffa0807abc:	67bd0020 	daddiu	sp,sp,32
ffffffffa0807ac0:	03e00008 	jr	ra
ffffffffa0807ac4:	00000000 	nop

ffffffffa0807ac8 <sys_write>:
ffffffffa0807ac8:	67bdffe0 	daddiu	sp,sp,-32
ffffffffa0807acc:	ffbe0018 	sd	s8,24(sp)
ffffffffa0807ad0:	03a0f02d 	move	s8,sp
ffffffffa0807ad4:	ffc40000 	sd	a0,0(s8)
ffffffffa0807ad8:	03c0e82d 	move	sp,s8
ffffffffa0807adc:	dfbe0018 	ld	s8,24(sp)
ffffffffa0807ae0:	67bd0020 	daddiu	sp,sp,32
ffffffffa0807ae4:	03e00008 	jr	ra
ffffffffa0807ae8:	00000000 	nop

ffffffffa0807aec <sys_reflush>:
ffffffffa0807aec:	67bdfff0 	daddiu	sp,sp,-16
ffffffffa0807af0:	ffbe0008 	sd	s8,8(sp)
ffffffffa0807af4:	03a0f02d 	move	s8,sp
ffffffffa0807af8:	03c0e82d 	move	sp,s8
ffffffffa0807afc:	dfbe0008 	ld	s8,8(sp)
ffffffffa0807b00:	67bd0010 	daddiu	sp,sp,16
ffffffffa0807b04:	03e00008 	jr	ra
ffffffffa0807b08:	00000000 	nop

ffffffffa0807b0c <sys_move_cursor>:
ffffffffa0807b0c:	67bdffe0 	daddiu	sp,sp,-32
ffffffffa0807b10:	ffbe0018 	sd	s8,24(sp)
ffffffffa0807b14:	03a0f02d 	move	s8,sp
ffffffffa0807b18:	0080182d 	move	v1,a0
ffffffffa0807b1c:	00a0102d 	move	v0,a1
ffffffffa0807b20:	00031800 	sll	v1,v1,0x0
ffffffffa0807b24:	afc30000 	sw	v1,0(s8)
ffffffffa0807b28:	00021000 	sll	v0,v0,0x0
ffffffffa0807b2c:	afc20004 	sw	v0,4(s8)
ffffffffa0807b30:	03c0e82d 	move	sp,s8
ffffffffa0807b34:	dfbe0018 	ld	s8,24(sp)
ffffffffa0807b38:	67bd0020 	daddiu	sp,sp,32
ffffffffa0807b3c:	03e00008 	jr	ra
ffffffffa0807b40:	00000000 	nop

ffffffffa0807b44 <mutex_lock_init>:
ffffffffa0807b44:	67bdffe0 	daddiu	sp,sp,-32
ffffffffa0807b48:	ffbe0018 	sd	s8,24(sp)
ffffffffa0807b4c:	03a0f02d 	move	s8,sp
ffffffffa0807b50:	ffc40000 	sd	a0,0(s8)
ffffffffa0807b54:	03c0e82d 	move	sp,s8
ffffffffa0807b58:	dfbe0018 	ld	s8,24(sp)
ffffffffa0807b5c:	67bd0020 	daddiu	sp,sp,32
ffffffffa0807b60:	03e00008 	jr	ra
ffffffffa0807b64:	00000000 	nop

ffffffffa0807b68 <mutex_lock_acquire>:
ffffffffa0807b68:	67bdffe0 	daddiu	sp,sp,-32
ffffffffa0807b6c:	ffbe0018 	sd	s8,24(sp)
ffffffffa0807b70:	03a0f02d 	move	s8,sp
ffffffffa0807b74:	ffc40000 	sd	a0,0(s8)
ffffffffa0807b78:	03c0e82d 	move	sp,s8
ffffffffa0807b7c:	dfbe0018 	ld	s8,24(sp)
ffffffffa0807b80:	67bd0020 	daddiu	sp,sp,32
ffffffffa0807b84:	03e00008 	jr	ra
ffffffffa0807b88:	00000000 	nop

ffffffffa0807b8c <mutex_lock_release>:
ffffffffa0807b8c:	67bdffe0 	daddiu	sp,sp,-32
ffffffffa0807b90:	ffbe0018 	sd	s8,24(sp)
ffffffffa0807b94:	03a0f02d 	move	s8,sp
ffffffffa0807b98:	ffc40000 	sd	a0,0(s8)
ffffffffa0807b9c:	03c0e82d 	move	sp,s8
ffffffffa0807ba0:	dfbe0018 	ld	s8,24(sp)
ffffffffa0807ba4:	67bd0020 	daddiu	sp,sp,32
ffffffffa0807ba8:	03e00008 	jr	ra
ffffffffa0807bac:	00000000 	nop

ffffffffa0807bb0 <condition_init>:
ffffffffa0807bb0:	67bdffe0 	daddiu	sp,sp,-32
ffffffffa0807bb4:	ffbe0018 	sd	s8,24(sp)
ffffffffa0807bb8:	03a0f02d 	move	s8,sp
ffffffffa0807bbc:	ffc40000 	sd	a0,0(s8)
ffffffffa0807bc0:	03c0e82d 	move	sp,s8
ffffffffa0807bc4:	dfbe0018 	ld	s8,24(sp)
ffffffffa0807bc8:	67bd0020 	daddiu	sp,sp,32
ffffffffa0807bcc:	03e00008 	jr	ra
ffffffffa0807bd0:	00000000 	nop

ffffffffa0807bd4 <condition_wait>:
ffffffffa0807bd4:	67bdffe0 	daddiu	sp,sp,-32
ffffffffa0807bd8:	ffbe0018 	sd	s8,24(sp)
ffffffffa0807bdc:	03a0f02d 	move	s8,sp
ffffffffa0807be0:	ffc40000 	sd	a0,0(s8)
ffffffffa0807be4:	ffc50008 	sd	a1,8(s8)
ffffffffa0807be8:	03c0e82d 	move	sp,s8
ffffffffa0807bec:	dfbe0018 	ld	s8,24(sp)
ffffffffa0807bf0:	67bd0020 	daddiu	sp,sp,32
ffffffffa0807bf4:	03e00008 	jr	ra
ffffffffa0807bf8:	00000000 	nop

ffffffffa0807bfc <condition_signal>:
ffffffffa0807bfc:	67bdffe0 	daddiu	sp,sp,-32
ffffffffa0807c00:	ffbe0018 	sd	s8,24(sp)
ffffffffa0807c04:	03a0f02d 	move	s8,sp
ffffffffa0807c08:	ffc40000 	sd	a0,0(s8)
ffffffffa0807c0c:	03c0e82d 	move	sp,s8
ffffffffa0807c10:	dfbe0018 	ld	s8,24(sp)
ffffffffa0807c14:	67bd0020 	daddiu	sp,sp,32
ffffffffa0807c18:	03e00008 	jr	ra
ffffffffa0807c1c:	00000000 	nop

ffffffffa0807c20 <condition_broadcast>:
ffffffffa0807c20:	67bdffe0 	daddiu	sp,sp,-32
ffffffffa0807c24:	ffbe0018 	sd	s8,24(sp)
ffffffffa0807c28:	03a0f02d 	move	s8,sp
ffffffffa0807c2c:	ffc40000 	sd	a0,0(s8)
ffffffffa0807c30:	03c0e82d 	move	sp,s8
ffffffffa0807c34:	dfbe0018 	ld	s8,24(sp)
ffffffffa0807c38:	67bd0020 	daddiu	sp,sp,32
ffffffffa0807c3c:	03e00008 	jr	ra
ffffffffa0807c40:	00000000 	nop

ffffffffa0807c44 <semaphore_init>:
ffffffffa0807c44:	67bdffe0 	daddiu	sp,sp,-32
ffffffffa0807c48:	ffbe0018 	sd	s8,24(sp)
ffffffffa0807c4c:	03a0f02d 	move	s8,sp
ffffffffa0807c50:	ffc40000 	sd	a0,0(s8)
ffffffffa0807c54:	00a0102d 	move	v0,a1
ffffffffa0807c58:	00021000 	sll	v0,v0,0x0
ffffffffa0807c5c:	afc20008 	sw	v0,8(s8)
ffffffffa0807c60:	03c0e82d 	move	sp,s8
ffffffffa0807c64:	dfbe0018 	ld	s8,24(sp)
ffffffffa0807c68:	67bd0020 	daddiu	sp,sp,32
ffffffffa0807c6c:	03e00008 	jr	ra
ffffffffa0807c70:	00000000 	nop

ffffffffa0807c74 <semaphore_up>:
ffffffffa0807c74:	67bdffe0 	daddiu	sp,sp,-32
ffffffffa0807c78:	ffbe0018 	sd	s8,24(sp)
ffffffffa0807c7c:	03a0f02d 	move	s8,sp
ffffffffa0807c80:	ffc40000 	sd	a0,0(s8)
ffffffffa0807c84:	03c0e82d 	move	sp,s8
ffffffffa0807c88:	dfbe0018 	ld	s8,24(sp)
ffffffffa0807c8c:	67bd0020 	daddiu	sp,sp,32
ffffffffa0807c90:	03e00008 	jr	ra
ffffffffa0807c94:	00000000 	nop

ffffffffa0807c98 <semaphore_down>:
ffffffffa0807c98:	67bdffe0 	daddiu	sp,sp,-32
ffffffffa0807c9c:	ffbe0018 	sd	s8,24(sp)
ffffffffa0807ca0:	03a0f02d 	move	s8,sp
ffffffffa0807ca4:	ffc40000 	sd	a0,0(s8)
ffffffffa0807ca8:	03c0e82d 	move	sp,s8
ffffffffa0807cac:	dfbe0018 	ld	s8,24(sp)
ffffffffa0807cb0:	67bd0020 	daddiu	sp,sp,32
ffffffffa0807cb4:	03e00008 	jr	ra
ffffffffa0807cb8:	00000000 	nop

ffffffffa0807cbc <barrier_init>:
ffffffffa0807cbc:	67bdffe0 	daddiu	sp,sp,-32
ffffffffa0807cc0:	ffbe0018 	sd	s8,24(sp)
ffffffffa0807cc4:	03a0f02d 	move	s8,sp
ffffffffa0807cc8:	ffc40000 	sd	a0,0(s8)
ffffffffa0807ccc:	00a0102d 	move	v0,a1
ffffffffa0807cd0:	00021000 	sll	v0,v0,0x0
ffffffffa0807cd4:	afc20008 	sw	v0,8(s8)
ffffffffa0807cd8:	03c0e82d 	move	sp,s8
ffffffffa0807cdc:	dfbe0018 	ld	s8,24(sp)
ffffffffa0807ce0:	67bd0020 	daddiu	sp,sp,32
ffffffffa0807ce4:	03e00008 	jr	ra
ffffffffa0807ce8:	00000000 	nop

ffffffffa0807cec <barrier_wait>:
ffffffffa0807cec:	67bdffe0 	daddiu	sp,sp,-32
ffffffffa0807cf0:	ffbe0018 	sd	s8,24(sp)
ffffffffa0807cf4:	03a0f02d 	move	s8,sp
ffffffffa0807cf8:	ffc40000 	sd	a0,0(s8)
ffffffffa0807cfc:	03c0e82d 	move	sp,s8
ffffffffa0807d00:	dfbe0018 	ld	s8,24(sp)
ffffffffa0807d04:	67bd0020 	daddiu	sp,sp,32
ffffffffa0807d08:	03e00008 	jr	ra
ffffffffa0807d0c:	00000000 	nop

ffffffffa0807d10 <sys_read_shell_buff>:
ffffffffa0807d10:	67bdffe0 	daddiu	sp,sp,-32
ffffffffa0807d14:	ffbe0018 	sd	s8,24(sp)
ffffffffa0807d18:	03a0f02d 	move	s8,sp
ffffffffa0807d1c:	ffc40000 	sd	a0,0(s8)
ffffffffa0807d20:	03c0e82d 	move	sp,s8
ffffffffa0807d24:	dfbe0018 	ld	s8,24(sp)
ffffffffa0807d28:	67bd0020 	daddiu	sp,sp,32
ffffffffa0807d2c:	03e00008 	jr	ra
ffffffffa0807d30:	00000000 	nop

ffffffffa0807d34 <sys_process_show>:
ffffffffa0807d34:	67bdfff0 	daddiu	sp,sp,-16
ffffffffa0807d38:	ffbe0008 	sd	s8,8(sp)
ffffffffa0807d3c:	03a0f02d 	move	s8,sp
ffffffffa0807d40:	03c0e82d 	move	sp,s8
ffffffffa0807d44:	dfbe0008 	ld	s8,8(sp)
ffffffffa0807d48:	67bd0010 	daddiu	sp,sp,16
ffffffffa0807d4c:	03e00008 	jr	ra
ffffffffa0807d50:	00000000 	nop

ffffffffa0807d54 <sys_screen_clear>:
ffffffffa0807d54:	67bdffe0 	daddiu	sp,sp,-32
ffffffffa0807d58:	ffbe0018 	sd	s8,24(sp)
ffffffffa0807d5c:	03a0f02d 	move	s8,sp
ffffffffa0807d60:	0080182d 	move	v1,a0
ffffffffa0807d64:	00a0102d 	move	v0,a1
ffffffffa0807d68:	00031800 	sll	v1,v1,0x0
ffffffffa0807d6c:	afc30000 	sw	v1,0(s8)
ffffffffa0807d70:	00021000 	sll	v0,v0,0x0
ffffffffa0807d74:	afc20004 	sw	v0,4(s8)
ffffffffa0807d78:	03c0e82d 	move	sp,s8
ffffffffa0807d7c:	dfbe0018 	ld	s8,24(sp)
ffffffffa0807d80:	67bd0020 	daddiu	sp,sp,32
ffffffffa0807d84:	03e00008 	jr	ra
ffffffffa0807d88:	00000000 	nop

ffffffffa0807d8c <sys_getpid>:
ffffffffa0807d8c:	67bdfff0 	daddiu	sp,sp,-16
ffffffffa0807d90:	ffbe0008 	sd	s8,8(sp)
ffffffffa0807d94:	03a0f02d 	move	s8,sp
ffffffffa0807d98:	03c0e82d 	move	sp,s8
ffffffffa0807d9c:	dfbe0008 	ld	s8,8(sp)
ffffffffa0807da0:	67bd0010 	daddiu	sp,sp,16
ffffffffa0807da4:	03e00008 	jr	ra
ffffffffa0807da8:	00000000 	nop

ffffffffa0807dac <sys_mkfs>:
ffffffffa0807dac:	67bdfff0 	daddiu	sp,sp,-16
ffffffffa0807db0:	ffbe0008 	sd	s8,8(sp)
ffffffffa0807db4:	03a0f02d 	move	s8,sp
ffffffffa0807db8:	03c0e82d 	move	sp,s8
ffffffffa0807dbc:	dfbe0008 	ld	s8,8(sp)
ffffffffa0807dc0:	67bd0010 	daddiu	sp,sp,16
ffffffffa0807dc4:	03e00008 	jr	ra
ffffffffa0807dc8:	00000000 	nop

ffffffffa0807dcc <sys_mkdir>:
ffffffffa0807dcc:	67bdffe0 	daddiu	sp,sp,-32
ffffffffa0807dd0:	ffbe0018 	sd	s8,24(sp)
ffffffffa0807dd4:	03a0f02d 	move	s8,sp
ffffffffa0807dd8:	ffc40000 	sd	a0,0(s8)
ffffffffa0807ddc:	03c0e82d 	move	sp,s8
ffffffffa0807de0:	dfbe0018 	ld	s8,24(sp)
ffffffffa0807de4:	67bd0020 	daddiu	sp,sp,32
ffffffffa0807de8:	03e00008 	jr	ra
ffffffffa0807dec:	00000000 	nop

ffffffffa0807df0 <sys_readdir>:
ffffffffa0807df0:	67bdffe0 	daddiu	sp,sp,-32
ffffffffa0807df4:	ffbe0018 	sd	s8,24(sp)
ffffffffa0807df8:	03a0f02d 	move	s8,sp
ffffffffa0807dfc:	ffc40000 	sd	a0,0(s8)
ffffffffa0807e00:	03c0e82d 	move	sp,s8
ffffffffa0807e04:	dfbe0018 	ld	s8,24(sp)
ffffffffa0807e08:	67bd0020 	daddiu	sp,sp,32
ffffffffa0807e0c:	03e00008 	jr	ra
ffffffffa0807e10:	00000000 	nop

ffffffffa0807e14 <sys_enterdir>:
ffffffffa0807e14:	67bdffe0 	daddiu	sp,sp,-32
ffffffffa0807e18:	ffbe0018 	sd	s8,24(sp)
ffffffffa0807e1c:	03a0f02d 	move	s8,sp
ffffffffa0807e20:	ffc40000 	sd	a0,0(s8)
ffffffffa0807e24:	03c0e82d 	move	sp,s8
ffffffffa0807e28:	dfbe0018 	ld	s8,24(sp)
ffffffffa0807e2c:	67bd0020 	daddiu	sp,sp,32
ffffffffa0807e30:	03e00008 	jr	ra
ffffffffa0807e34:	00000000 	nop

ffffffffa0807e38 <sys_rmdir>:
ffffffffa0807e38:	67bdffe0 	daddiu	sp,sp,-32
ffffffffa0807e3c:	ffbe0018 	sd	s8,24(sp)
ffffffffa0807e40:	03a0f02d 	move	s8,sp
ffffffffa0807e44:	ffc40000 	sd	a0,0(s8)
ffffffffa0807e48:	03c0e82d 	move	sp,s8
ffffffffa0807e4c:	dfbe0018 	ld	s8,24(sp)
ffffffffa0807e50:	67bd0020 	daddiu	sp,sp,32
ffffffffa0807e54:	03e00008 	jr	ra
ffffffffa0807e58:	00000000 	nop

ffffffffa0807e5c <sys_print_fs>:
ffffffffa0807e5c:	67bdffe0 	daddiu	sp,sp,-32
ffffffffa0807e60:	ffbe0018 	sd	s8,24(sp)
ffffffffa0807e64:	03a0f02d 	move	s8,sp
ffffffffa0807e68:	ffc40000 	sd	a0,0(s8)
ffffffffa0807e6c:	03c0e82d 	move	sp,s8
ffffffffa0807e70:	dfbe0018 	ld	s8,24(sp)
ffffffffa0807e74:	67bd0020 	daddiu	sp,sp,32
ffffffffa0807e78:	03e00008 	jr	ra
ffffffffa0807e7c:	00000000 	nop

ffffffffa0807e80 <sys_mknod>:
ffffffffa0807e80:	67bdffe0 	daddiu	sp,sp,-32
ffffffffa0807e84:	ffbe0018 	sd	s8,24(sp)
ffffffffa0807e88:	03a0f02d 	move	s8,sp
ffffffffa0807e8c:	ffc40000 	sd	a0,0(s8)
ffffffffa0807e90:	03c0e82d 	move	sp,s8
ffffffffa0807e94:	dfbe0018 	ld	s8,24(sp)
ffffffffa0807e98:	67bd0020 	daddiu	sp,sp,32
ffffffffa0807e9c:	03e00008 	jr	ra
ffffffffa0807ea0:	00000000 	nop

ffffffffa0807ea4 <sys_fopen>:
ffffffffa0807ea4:	67bdffe0 	daddiu	sp,sp,-32
ffffffffa0807ea8:	ffbe0018 	sd	s8,24(sp)
ffffffffa0807eac:	03a0f02d 	move	s8,sp
ffffffffa0807eb0:	ffc40000 	sd	a0,0(s8)
ffffffffa0807eb4:	00a0102d 	move	v0,a1
ffffffffa0807eb8:	00021000 	sll	v0,v0,0x0
ffffffffa0807ebc:	afc20008 	sw	v0,8(s8)
ffffffffa0807ec0:	03c0e82d 	move	sp,s8
ffffffffa0807ec4:	dfbe0018 	ld	s8,24(sp)
ffffffffa0807ec8:	67bd0020 	daddiu	sp,sp,32
ffffffffa0807ecc:	03e00008 	jr	ra
ffffffffa0807ed0:	00000000 	nop

ffffffffa0807ed4 <sys_fwrite>:
ffffffffa0807ed4:	67bdffe0 	daddiu	sp,sp,-32
ffffffffa0807ed8:	ffbe0018 	sd	s8,24(sp)
ffffffffa0807edc:	03a0f02d 	move	s8,sp
ffffffffa0807ee0:	0080182d 	move	v1,a0
ffffffffa0807ee4:	ffc50008 	sd	a1,8(s8)
ffffffffa0807ee8:	00c0102d 	move	v0,a2
ffffffffa0807eec:	00031800 	sll	v1,v1,0x0
ffffffffa0807ef0:	afc30000 	sw	v1,0(s8)
ffffffffa0807ef4:	00021000 	sll	v0,v0,0x0
ffffffffa0807ef8:	afc20004 	sw	v0,4(s8)
ffffffffa0807efc:	03c0e82d 	move	sp,s8
ffffffffa0807f00:	dfbe0018 	ld	s8,24(sp)
ffffffffa0807f04:	67bd0020 	daddiu	sp,sp,32
ffffffffa0807f08:	03e00008 	jr	ra
ffffffffa0807f0c:	00000000 	nop

ffffffffa0807f10 <sys_cat>:
ffffffffa0807f10:	67bdffe0 	daddiu	sp,sp,-32
ffffffffa0807f14:	ffbe0018 	sd	s8,24(sp)
ffffffffa0807f18:	03a0f02d 	move	s8,sp
ffffffffa0807f1c:	ffc40000 	sd	a0,0(s8)
ffffffffa0807f20:	03c0e82d 	move	sp,s8
ffffffffa0807f24:	dfbe0018 	ld	s8,24(sp)
ffffffffa0807f28:	67bd0020 	daddiu	sp,sp,32
ffffffffa0807f2c:	03e00008 	jr	ra
ffffffffa0807f30:	00000000 	nop

ffffffffa0807f34 <sys_fread>:
ffffffffa0807f34:	67bdffe0 	daddiu	sp,sp,-32
ffffffffa0807f38:	ffbe0018 	sd	s8,24(sp)
ffffffffa0807f3c:	03a0f02d 	move	s8,sp
ffffffffa0807f40:	0080182d 	move	v1,a0
ffffffffa0807f44:	ffc50008 	sd	a1,8(s8)
ffffffffa0807f48:	00c0102d 	move	v0,a2
ffffffffa0807f4c:	00031800 	sll	v1,v1,0x0
ffffffffa0807f50:	afc30000 	sw	v1,0(s8)
ffffffffa0807f54:	00021000 	sll	v0,v0,0x0
ffffffffa0807f58:	afc20004 	sw	v0,4(s8)
ffffffffa0807f5c:	03c0e82d 	move	sp,s8
ffffffffa0807f60:	dfbe0018 	ld	s8,24(sp)
ffffffffa0807f64:	67bd0020 	daddiu	sp,sp,32
ffffffffa0807f68:	03e00008 	jr	ra
ffffffffa0807f6c:	00000000 	nop

ffffffffa0807f70 <sys_close>:
ffffffffa0807f70:	67bdffe0 	daddiu	sp,sp,-32
ffffffffa0807f74:	ffbe0018 	sd	s8,24(sp)
ffffffffa0807f78:	03a0f02d 	move	s8,sp
ffffffffa0807f7c:	0080102d 	move	v0,a0
ffffffffa0807f80:	00021000 	sll	v0,v0,0x0
ffffffffa0807f84:	afc20000 	sw	v0,0(s8)
ffffffffa0807f88:	03c0e82d 	move	sp,s8
ffffffffa0807f8c:	dfbe0018 	ld	s8,24(sp)
ffffffffa0807f90:	67bd0020 	daddiu	sp,sp,32
ffffffffa0807f94:	03e00008 	jr	ra
ffffffffa0807f98:	00000000 	nop

ffffffffa0807f9c <sys_net_recv>:
ffffffffa0807f9c:	67bdffd0 	daddiu	sp,sp,-48
ffffffffa0807fa0:	ffbe0028 	sd	s8,40(sp)
ffffffffa0807fa4:	03a0f02d 	move	s8,sp
ffffffffa0807fa8:	ffc40000 	sd	a0,0(s8)
ffffffffa0807fac:	ffc50008 	sd	a1,8(s8)
ffffffffa0807fb0:	ffc60010 	sd	a2,16(s8)
ffffffffa0807fb4:	03c0e82d 	move	sp,s8
ffffffffa0807fb8:	dfbe0028 	ld	s8,40(sp)
ffffffffa0807fbc:	67bd0030 	daddiu	sp,sp,48
ffffffffa0807fc0:	03e00008 	jr	ra
ffffffffa0807fc4:	00000000 	nop

ffffffffa0807fc8 <sys_net_send>:
ffffffffa0807fc8:	67bdffe0 	daddiu	sp,sp,-32
ffffffffa0807fcc:	ffbe0018 	sd	s8,24(sp)
ffffffffa0807fd0:	03a0f02d 	move	s8,sp
ffffffffa0807fd4:	ffc40000 	sd	a0,0(s8)
ffffffffa0807fd8:	ffc50008 	sd	a1,8(s8)
ffffffffa0807fdc:	03c0e82d 	move	sp,s8
ffffffffa0807fe0:	dfbe0018 	ld	s8,24(sp)
ffffffffa0807fe4:	67bd0020 	daddiu	sp,sp,32
ffffffffa0807fe8:	03e00008 	jr	ra
ffffffffa0807fec:	00000000 	nop

ffffffffa0807ff0 <sys_init_mac>:
ffffffffa0807ff0:	67bdfff0 	daddiu	sp,sp,-16
ffffffffa0807ff4:	ffbe0008 	sd	s8,8(sp)
ffffffffa0807ff8:	03a0f02d 	move	s8,sp
ffffffffa0807ffc:	03c0e82d 	move	sp,s8
ffffffffa0808000:	dfbe0008 	ld	s8,8(sp)
ffffffffa0808004:	67bd0010 	daddiu	sp,sp,16
ffffffffa0808008:	03e00008 	jr	ra
ffffffffa080800c:	00000000 	nop

ffffffffa0808010 <mbox_is_full>:
ffffffffa0808010:	67bdffe0 	daddiu	sp,sp,-32
ffffffffa0808014:	ffbe0018 	sd	s8,24(sp)
ffffffffa0808018:	03a0f02d 	move	s8,sp
ffffffffa080801c:	ffc40000 	sd	a0,0(s8)
ffffffffa0808020:	03c0e82d 	move	sp,s8
ffffffffa0808024:	dfbe0018 	ld	s8,24(sp)
ffffffffa0808028:	67bd0020 	daddiu	sp,sp,32
ffffffffa080802c:	03e00008 	jr	ra
ffffffffa0808030:	00000000 	nop

ffffffffa0808034 <mbox_is_empty>:
ffffffffa0808034:	67bdffe0 	daddiu	sp,sp,-32
ffffffffa0808038:	ffbe0018 	sd	s8,24(sp)
ffffffffa080803c:	03a0f02d 	move	s8,sp
ffffffffa0808040:	ffc40000 	sd	a0,0(s8)
ffffffffa0808044:	03c0e82d 	move	sp,s8
ffffffffa0808048:	dfbe0018 	ld	s8,24(sp)
ffffffffa080804c:	67bd0020 	daddiu	sp,sp,32
ffffffffa0808050:	03e00008 	jr	ra
ffffffffa0808054:	00000000 	nop

ffffffffa0808058 <init_mbox>:
ffffffffa0808058:	67bdffe0 	daddiu	sp,sp,-32
ffffffffa080805c:	ffbe0018 	sd	s8,24(sp)
ffffffffa0808060:	03a0f02d 	move	s8,sp
ffffffffa0808064:	ffc40000 	sd	a0,0(s8)
ffffffffa0808068:	03c0e82d 	move	sp,s8
ffffffffa080806c:	dfbe0018 	ld	s8,24(sp)
ffffffffa0808070:	67bd0020 	daddiu	sp,sp,32
ffffffffa0808074:	03e00008 	jr	ra
ffffffffa0808078:	00000000 	nop

ffffffffa080807c <mbox_init>:
ffffffffa080807c:	67bdfff0 	daddiu	sp,sp,-16
ffffffffa0808080:	ffbe0008 	sd	s8,8(sp)
ffffffffa0808084:	03a0f02d 	move	s8,sp
ffffffffa0808088:	03c0e82d 	move	sp,s8
ffffffffa080808c:	dfbe0008 	ld	s8,8(sp)
ffffffffa0808090:	67bd0010 	daddiu	sp,sp,16
ffffffffa0808094:	03e00008 	jr	ra
ffffffffa0808098:	00000000 	nop

ffffffffa080809c <mbox_open>:
ffffffffa080809c:	67bdffe0 	daddiu	sp,sp,-32
ffffffffa08080a0:	ffbe0018 	sd	s8,24(sp)
ffffffffa08080a4:	03a0f02d 	move	s8,sp
ffffffffa08080a8:	ffc40000 	sd	a0,0(s8)
ffffffffa08080ac:	03c0e82d 	move	sp,s8
ffffffffa08080b0:	dfbe0018 	ld	s8,24(sp)
ffffffffa08080b4:	67bd0020 	daddiu	sp,sp,32
ffffffffa08080b8:	03e00008 	jr	ra
ffffffffa08080bc:	00000000 	nop

ffffffffa08080c0 <mbox_close>:
ffffffffa08080c0:	67bdffe0 	daddiu	sp,sp,-32
ffffffffa08080c4:	ffbe0018 	sd	s8,24(sp)
ffffffffa08080c8:	03a0f02d 	move	s8,sp
ffffffffa08080cc:	ffc40000 	sd	a0,0(s8)
ffffffffa08080d0:	03c0e82d 	move	sp,s8
ffffffffa08080d4:	dfbe0018 	ld	s8,24(sp)
ffffffffa08080d8:	67bd0020 	daddiu	sp,sp,32
ffffffffa08080dc:	03e00008 	jr	ra
ffffffffa08080e0:	00000000 	nop

ffffffffa08080e4 <mbox_send>:
ffffffffa08080e4:	67bdffd0 	daddiu	sp,sp,-48
ffffffffa08080e8:	ffbe0028 	sd	s8,40(sp)
ffffffffa08080ec:	03a0f02d 	move	s8,sp
ffffffffa08080f0:	ffc40000 	sd	a0,0(s8)
ffffffffa08080f4:	ffc50008 	sd	a1,8(s8)
ffffffffa08080f8:	00c0102d 	move	v0,a2
ffffffffa08080fc:	00021000 	sll	v0,v0,0x0
ffffffffa0808100:	afc20010 	sw	v0,16(s8)
ffffffffa0808104:	03c0e82d 	move	sp,s8
ffffffffa0808108:	dfbe0028 	ld	s8,40(sp)
ffffffffa080810c:	67bd0030 	daddiu	sp,sp,48
ffffffffa0808110:	03e00008 	jr	ra
ffffffffa0808114:	00000000 	nop

ffffffffa0808118 <mbox_recv>:
ffffffffa0808118:	67bdffd0 	daddiu	sp,sp,-48
ffffffffa080811c:	ffbe0028 	sd	s8,40(sp)
ffffffffa0808120:	03a0f02d 	move	s8,sp
ffffffffa0808124:	ffc40000 	sd	a0,0(s8)
ffffffffa0808128:	ffc50008 	sd	a1,8(s8)
ffffffffa080812c:	00c0102d 	move	v0,a2
ffffffffa0808130:	00021000 	sll	v0,v0,0x0
ffffffffa0808134:	afc20010 	sw	v0,16(s8)
ffffffffa0808138:	03c0e82d 	move	sp,s8
ffffffffa080813c:	dfbe0028 	ld	s8,40(sp)
ffffffffa0808140:	67bd0030 	daddiu	sp,sp,48
ffffffffa0808144:	03e00008 	jr	ra
ffffffffa0808148:	00000000 	nop
ffffffffa080814c:	00000000 	nop

ffffffffa0808150 <strlen>:
ffffffffa0808150:	67bdffd0 	daddiu	sp,sp,-48
ffffffffa0808154:	ffbe0028 	sd	s8,40(sp)
ffffffffa0808158:	03a0f02d 	move	s8,sp
ffffffffa080815c:	ffc40010 	sd	a0,16(s8)
ffffffffa0808160:	afc00000 	sw	zero,0(s8)
ffffffffa0808164:	0820205e 	j	ffffffffa0808178 <strlen+0x28>
ffffffffa0808168:	00000000 	nop
ffffffffa080816c:	8fc20000 	lw	v0,0(s8)
ffffffffa0808170:	24420001 	addiu	v0,v0,1
ffffffffa0808174:	afc20000 	sw	v0,0(s8)
ffffffffa0808178:	8fc20000 	lw	v0,0(s8)
ffffffffa080817c:	dfc30010 	ld	v1,16(s8)
ffffffffa0808180:	0062102d 	daddu	v0,v1,v0
ffffffffa0808184:	80420000 	lb	v0,0(v0)
ffffffffa0808188:	1440fff8 	bnez	v0,ffffffffa080816c <strlen+0x1c>
ffffffffa080818c:	00000000 	nop
ffffffffa0808190:	8fc20000 	lw	v0,0(s8)
ffffffffa0808194:	03c0e82d 	move	sp,s8
ffffffffa0808198:	dfbe0028 	ld	s8,40(sp)
ffffffffa080819c:	67bd0030 	daddiu	sp,sp,48
ffffffffa08081a0:	03e00008 	jr	ra
ffffffffa08081a4:	00000000 	nop

ffffffffa08081a8 <memcpy>:
ffffffffa08081a8:	67bdffd0 	daddiu	sp,sp,-48
ffffffffa08081ac:	ffbe0028 	sd	s8,40(sp)
ffffffffa08081b0:	03a0f02d 	move	s8,sp
ffffffffa08081b4:	ffc40000 	sd	a0,0(s8)
ffffffffa08081b8:	ffc50008 	sd	a1,8(s8)
ffffffffa08081bc:	00c0102d 	move	v0,a2
ffffffffa08081c0:	00021000 	sll	v0,v0,0x0
ffffffffa08081c4:	afc20010 	sw	v0,16(s8)
ffffffffa08081c8:	0820207f 	j	ffffffffa08081fc <memcpy+0x54>
ffffffffa08081cc:	00000000 	nop
ffffffffa08081d0:	dfc20000 	ld	v0,0(s8)
ffffffffa08081d4:	64430001 	daddiu	v1,v0,1
ffffffffa08081d8:	ffc30000 	sd	v1,0(s8)
ffffffffa08081dc:	dfc30008 	ld	v1,8(s8)
ffffffffa08081e0:	64640001 	daddiu	a0,v1,1
ffffffffa08081e4:	ffc40008 	sd	a0,8(s8)
ffffffffa08081e8:	90630000 	lbu	v1,0(v1)
ffffffffa08081ec:	a0430000 	sb	v1,0(v0)
ffffffffa08081f0:	8fc20010 	lw	v0,16(s8)
ffffffffa08081f4:	2442ffff 	addiu	v0,v0,-1
ffffffffa08081f8:	afc20010 	sw	v0,16(s8)
ffffffffa08081fc:	8fc20010 	lw	v0,16(s8)
ffffffffa0808200:	1440fff3 	bnez	v0,ffffffffa08081d0 <memcpy+0x28>
ffffffffa0808204:	00000000 	nop
ffffffffa0808208:	03c0e82d 	move	sp,s8
ffffffffa080820c:	dfbe0028 	ld	s8,40(sp)
ffffffffa0808210:	67bd0030 	daddiu	sp,sp,48
ffffffffa0808214:	03e00008 	jr	ra
ffffffffa0808218:	00000000 	nop

ffffffffa080821c <memset>:
ffffffffa080821c:	67bdffd0 	daddiu	sp,sp,-48
ffffffffa0808220:	ffbe0028 	sd	s8,40(sp)
ffffffffa0808224:	03a0f02d 	move	s8,sp
ffffffffa0808228:	ffc40010 	sd	a0,16(s8)
ffffffffa080822c:	00a0182d 	move	v1,a1
ffffffffa0808230:	00c0102d 	move	v0,a2
ffffffffa0808234:	00031800 	sll	v1,v1,0x0
ffffffffa0808238:	a3c30018 	sb	v1,24(s8)
ffffffffa080823c:	00021000 	sll	v0,v0,0x0
ffffffffa0808240:	afc2001c 	sw	v0,28(s8)
ffffffffa0808244:	dfc20010 	ld	v0,16(s8)
ffffffffa0808248:	ffc20000 	sd	v0,0(s8)
ffffffffa080824c:	0820209d 	j	ffffffffa0808274 <memset+0x58>
ffffffffa0808250:	00000000 	nop
ffffffffa0808254:	dfc20000 	ld	v0,0(s8)
ffffffffa0808258:	64430001 	daddiu	v1,v0,1
ffffffffa080825c:	ffc30000 	sd	v1,0(s8)
ffffffffa0808260:	93c30018 	lbu	v1,24(s8)
ffffffffa0808264:	a0430000 	sb	v1,0(v0)
ffffffffa0808268:	8fc2001c 	lw	v0,28(s8)
ffffffffa080826c:	2442ffff 	addiu	v0,v0,-1
ffffffffa0808270:	afc2001c 	sw	v0,28(s8)
ffffffffa0808274:	8fc2001c 	lw	v0,28(s8)
ffffffffa0808278:	1440fff6 	bnez	v0,ffffffffa0808254 <memset+0x38>
ffffffffa080827c:	00000000 	nop
ffffffffa0808280:	03c0e82d 	move	sp,s8
ffffffffa0808284:	dfbe0028 	ld	s8,40(sp)
ffffffffa0808288:	67bd0030 	daddiu	sp,sp,48
ffffffffa080828c:	03e00008 	jr	ra
ffffffffa0808290:	00000000 	nop

ffffffffa0808294 <bzero>:
ffffffffa0808294:	67bdffe0 	daddiu	sp,sp,-32
ffffffffa0808298:	ffbf0018 	sd	ra,24(sp)
ffffffffa080829c:	ffbe0010 	sd	s8,16(sp)
ffffffffa08082a0:	03a0f02d 	move	s8,sp
ffffffffa08082a4:	ffc40000 	sd	a0,0(s8)
ffffffffa08082a8:	00a0102d 	move	v0,a1
ffffffffa08082ac:	00021000 	sll	v0,v0,0x0
ffffffffa08082b0:	afc20008 	sw	v0,8(s8)
ffffffffa08082b4:	8fc20008 	lw	v0,8(s8)
ffffffffa08082b8:	dfc40000 	ld	a0,0(s8)
ffffffffa08082bc:	0000282d 	move	a1,zero
ffffffffa08082c0:	0040302d 	move	a2,v0
ffffffffa08082c4:	0c202087 	jal	ffffffffa080821c <memset>
ffffffffa08082c8:	00000000 	nop
ffffffffa08082cc:	03c0e82d 	move	sp,s8
ffffffffa08082d0:	dfbf0018 	ld	ra,24(sp)
ffffffffa08082d4:	dfbe0010 	ld	s8,16(sp)
ffffffffa08082d8:	67bd0020 	daddiu	sp,sp,32
ffffffffa08082dc:	03e00008 	jr	ra
ffffffffa08082e0:	00000000 	nop

ffffffffa08082e4 <strcmp>:
ffffffffa08082e4:	67bdffd0 	daddiu	sp,sp,-48
ffffffffa08082e8:	ffbf0028 	sd	ra,40(sp)
ffffffffa08082ec:	ffbe0020 	sd	s8,32(sp)
ffffffffa08082f0:	03a0f02d 	move	s8,sp
ffffffffa08082f4:	ffc40010 	sd	a0,16(s8)
ffffffffa08082f8:	ffc50018 	sd	a1,24(s8)
ffffffffa08082fc:	dfc40010 	ld	a0,16(s8)
ffffffffa0808300:	0c202054 	jal	ffffffffa0808150 <strlen>
ffffffffa0808304:	00000000 	nop
ffffffffa0808308:	afc20004 	sw	v0,4(s8)
ffffffffa080830c:	dfc40018 	ld	a0,24(s8)
ffffffffa0808310:	0c202054 	jal	ffffffffa0808150 <strlen>
ffffffffa0808314:	00000000 	nop
ffffffffa0808318:	afc20008 	sw	v0,8(s8)
ffffffffa080831c:	afc00000 	sw	zero,0(s8)
ffffffffa0808320:	082020e9 	j	ffffffffa08083a4 <strcmp+0xc0>
ffffffffa0808324:	00000000 	nop
ffffffffa0808328:	8fc20000 	lw	v0,0(s8)
ffffffffa080832c:	dfc30010 	ld	v1,16(s8)
ffffffffa0808330:	0062102d 	daddu	v0,v1,v0
ffffffffa0808334:	80430000 	lb	v1,0(v0)
ffffffffa0808338:	8fc20000 	lw	v0,0(s8)
ffffffffa080833c:	dfc40018 	ld	a0,24(s8)
ffffffffa0808340:	0082102d 	daddu	v0,a0,v0
ffffffffa0808344:	80420000 	lb	v0,0(v0)
ffffffffa0808348:	0043102a 	slt	v0,v0,v1
ffffffffa080834c:	10400004 	beqz	v0,ffffffffa0808360 <strcmp+0x7c>
ffffffffa0808350:	00000000 	nop
ffffffffa0808354:	24020001 	li	v0,1
ffffffffa0808358:	082020f4 	j	ffffffffa08083d0 <strcmp+0xec>
ffffffffa080835c:	00000000 	nop
ffffffffa0808360:	8fc20000 	lw	v0,0(s8)
ffffffffa0808364:	dfc30010 	ld	v1,16(s8)
ffffffffa0808368:	0062102d 	daddu	v0,v1,v0
ffffffffa080836c:	80430000 	lb	v1,0(v0)
ffffffffa0808370:	8fc20000 	lw	v0,0(s8)
ffffffffa0808374:	dfc40018 	ld	a0,24(s8)
ffffffffa0808378:	0082102d 	daddu	v0,a0,v0
ffffffffa080837c:	80420000 	lb	v0,0(v0)
ffffffffa0808380:	0062102a 	slt	v0,v1,v0
ffffffffa0808384:	10400004 	beqz	v0,ffffffffa0808398 <strcmp+0xb4>
ffffffffa0808388:	00000000 	nop
ffffffffa080838c:	2402ffff 	li	v0,-1
ffffffffa0808390:	082020f4 	j	ffffffffa08083d0 <strcmp+0xec>
ffffffffa0808394:	00000000 	nop
ffffffffa0808398:	8fc20000 	lw	v0,0(s8)
ffffffffa080839c:	24420001 	addiu	v0,v0,1
ffffffffa08083a0:	afc20000 	sw	v0,0(s8)
ffffffffa08083a4:	8fc30000 	lw	v1,0(s8)
ffffffffa08083a8:	8fc20004 	lw	v0,4(s8)
ffffffffa08083ac:	0062102a 	slt	v0,v1,v0
ffffffffa08083b0:	1440ffdd 	bnez	v0,ffffffffa0808328 <strcmp+0x44>
ffffffffa08083b4:	00000000 	nop
ffffffffa08083b8:	8fc30000 	lw	v1,0(s8)
ffffffffa08083bc:	8fc20008 	lw	v0,8(s8)
ffffffffa08083c0:	0062102a 	slt	v0,v1,v0
ffffffffa08083c4:	1440ffd8 	bnez	v0,ffffffffa0808328 <strcmp+0x44>
ffffffffa08083c8:	00000000 	nop
ffffffffa08083cc:	0000102d 	move	v0,zero
ffffffffa08083d0:	03c0e82d 	move	sp,s8
ffffffffa08083d4:	dfbf0028 	ld	ra,40(sp)
ffffffffa08083d8:	dfbe0020 	ld	s8,32(sp)
ffffffffa08083dc:	67bd0030 	daddiu	sp,sp,48
ffffffffa08083e0:	03e00008 	jr	ra
ffffffffa08083e4:	00000000 	nop

ffffffffa08083e8 <memcmp>:
ffffffffa08083e8:	67bdffc0 	daddiu	sp,sp,-64
ffffffffa08083ec:	ffbe0038 	sd	s8,56(sp)
ffffffffa08083f0:	03a0f02d 	move	s8,sp
ffffffffa08083f4:	ffc40010 	sd	a0,16(s8)
ffffffffa08083f8:	ffc50018 	sd	a1,24(s8)
ffffffffa08083fc:	00c0102d 	move	v0,a2
ffffffffa0808400:	00021000 	sll	v0,v0,0x0
ffffffffa0808404:	afc20020 	sw	v0,32(s8)
ffffffffa0808408:	afc00000 	sw	zero,0(s8)
ffffffffa080840c:	08202124 	j	ffffffffa0808490 <memcmp+0xa8>
ffffffffa0808410:	00000000 	nop
ffffffffa0808414:	8fc20000 	lw	v0,0(s8)
ffffffffa0808418:	dfc30010 	ld	v1,16(s8)
ffffffffa080841c:	0062102d 	daddu	v0,v1,v0
ffffffffa0808420:	80430000 	lb	v1,0(v0)
ffffffffa0808424:	8fc20000 	lw	v0,0(s8)
ffffffffa0808428:	dfc40018 	ld	a0,24(s8)
ffffffffa080842c:	0082102d 	daddu	v0,a0,v0
ffffffffa0808430:	80420000 	lb	v0,0(v0)
ffffffffa0808434:	0043102a 	slt	v0,v0,v1
ffffffffa0808438:	10400004 	beqz	v0,ffffffffa080844c <memcmp+0x64>
ffffffffa080843c:	00000000 	nop
ffffffffa0808440:	24020001 	li	v0,1
ffffffffa0808444:	0820212a 	j	ffffffffa08084a8 <memcmp+0xc0>
ffffffffa0808448:	00000000 	nop
ffffffffa080844c:	8fc20000 	lw	v0,0(s8)
ffffffffa0808450:	dfc30010 	ld	v1,16(s8)
ffffffffa0808454:	0062102d 	daddu	v0,v1,v0
ffffffffa0808458:	80430000 	lb	v1,0(v0)
ffffffffa080845c:	8fc20000 	lw	v0,0(s8)
ffffffffa0808460:	dfc40018 	ld	a0,24(s8)
ffffffffa0808464:	0082102d 	daddu	v0,a0,v0
ffffffffa0808468:	80420000 	lb	v0,0(v0)
ffffffffa080846c:	0062102a 	slt	v0,v1,v0
ffffffffa0808470:	10400004 	beqz	v0,ffffffffa0808484 <memcmp+0x9c>
ffffffffa0808474:	00000000 	nop
ffffffffa0808478:	2402ffff 	li	v0,-1
ffffffffa080847c:	0820212a 	j	ffffffffa08084a8 <memcmp+0xc0>
ffffffffa0808480:	00000000 	nop
ffffffffa0808484:	8fc20000 	lw	v0,0(s8)
ffffffffa0808488:	24420001 	addiu	v0,v0,1
ffffffffa080848c:	afc20000 	sw	v0,0(s8)
ffffffffa0808490:	8fc20000 	lw	v0,0(s8)
ffffffffa0808494:	8fc30020 	lw	v1,32(s8)
ffffffffa0808498:	0043102b 	sltu	v0,v0,v1
ffffffffa080849c:	1440ffdd 	bnez	v0,ffffffffa0808414 <memcmp+0x2c>
ffffffffa08084a0:	00000000 	nop
ffffffffa08084a4:	0000102d 	move	v0,zero
ffffffffa08084a8:	03c0e82d 	move	sp,s8
ffffffffa08084ac:	dfbe0038 	ld	s8,56(sp)
ffffffffa08084b0:	67bd0040 	daddiu	sp,sp,64
ffffffffa08084b4:	03e00008 	jr	ra
ffffffffa08084b8:	00000000 	nop

ffffffffa08084bc <strcpy>:
ffffffffa08084bc:	67bdffd0 	daddiu	sp,sp,-48
ffffffffa08084c0:	ffbf0028 	sd	ra,40(sp)
ffffffffa08084c4:	ffbe0020 	sd	s8,32(sp)
ffffffffa08084c8:	03a0f02d 	move	s8,sp
ffffffffa08084cc:	ffc40010 	sd	a0,16(s8)
ffffffffa08084d0:	ffc50018 	sd	a1,24(s8)
ffffffffa08084d4:	dfc40018 	ld	a0,24(s8)
ffffffffa08084d8:	0c202054 	jal	ffffffffa0808150 <strlen>
ffffffffa08084dc:	00000000 	nop
ffffffffa08084e0:	afc20004 	sw	v0,4(s8)
ffffffffa08084e4:	afc00000 	sw	zero,0(s8)
ffffffffa08084e8:	08202147 	j	ffffffffa080851c <strcpy+0x60>
ffffffffa08084ec:	00000000 	nop
ffffffffa08084f0:	8fc20000 	lw	v0,0(s8)
ffffffffa08084f4:	dfc30010 	ld	v1,16(s8)
ffffffffa08084f8:	0062102d 	daddu	v0,v1,v0
ffffffffa08084fc:	8fc30000 	lw	v1,0(s8)
ffffffffa0808500:	dfc40018 	ld	a0,24(s8)
ffffffffa0808504:	0083182d 	daddu	v1,a0,v1
ffffffffa0808508:	80630000 	lb	v1,0(v1)
ffffffffa080850c:	a0430000 	sb	v1,0(v0)
ffffffffa0808510:	8fc20000 	lw	v0,0(s8)
ffffffffa0808514:	24420001 	addiu	v0,v0,1
ffffffffa0808518:	afc20000 	sw	v0,0(s8)
ffffffffa080851c:	8fc30000 	lw	v1,0(s8)
ffffffffa0808520:	8fc20004 	lw	v0,4(s8)
ffffffffa0808524:	0062102a 	slt	v0,v1,v0
ffffffffa0808528:	1440fff1 	bnez	v0,ffffffffa08084f0 <strcpy+0x34>
ffffffffa080852c:	00000000 	nop
ffffffffa0808530:	8fc20000 	lw	v0,0(s8)
ffffffffa0808534:	dfc30010 	ld	v1,16(s8)
ffffffffa0808538:	0062102d 	daddu	v0,v1,v0
ffffffffa080853c:	a0400000 	sb	zero,0(v0)
ffffffffa0808540:	03c0e82d 	move	sp,s8
ffffffffa0808544:	dfbf0028 	ld	ra,40(sp)
ffffffffa0808548:	dfbe0020 	ld	s8,32(sp)
ffffffffa080854c:	67bd0030 	daddiu	sp,sp,48
ffffffffa0808550:	03e00008 	jr	ra
ffffffffa0808554:	00000000 	nop
	...

ffffffffa0808560 <mini_strlen>:
ffffffffa0808560:	67bdffd0 	daddiu	sp,sp,-48
ffffffffa0808564:	ffbe0028 	sd	s8,40(sp)
ffffffffa0808568:	03a0f02d 	move	s8,sp
ffffffffa080856c:	ffc40010 	sd	a0,16(s8)
ffffffffa0808570:	afc00000 	sw	zero,0(s8)
ffffffffa0808574:	08202162 	j	ffffffffa0808588 <mini_strlen+0x28>
ffffffffa0808578:	00000000 	nop
ffffffffa080857c:	8fc20000 	lw	v0,0(s8)
ffffffffa0808580:	24420001 	addiu	v0,v0,1
ffffffffa0808584:	afc20000 	sw	v0,0(s8)
ffffffffa0808588:	9fc20000 	lwu	v0,0(s8)
ffffffffa080858c:	dfc30010 	ld	v1,16(s8)
ffffffffa0808590:	0062102d 	daddu	v0,v1,v0
ffffffffa0808594:	80420000 	lb	v0,0(v0)
ffffffffa0808598:	1440fff8 	bnez	v0,ffffffffa080857c <mini_strlen+0x1c>
ffffffffa080859c:	00000000 	nop
ffffffffa08085a0:	8fc20000 	lw	v0,0(s8)
ffffffffa08085a4:	03c0e82d 	move	sp,s8
ffffffffa08085a8:	dfbe0028 	ld	s8,40(sp)
ffffffffa08085ac:	67bd0030 	daddiu	sp,sp,48
ffffffffa08085b0:	03e00008 	jr	ra
ffffffffa08085b4:	00000000 	nop

ffffffffa08085b8 <mini_itoa>:
ffffffffa08085b8:	67bdffb0 	daddiu	sp,sp,-80
ffffffffa08085bc:	ffbe0048 	sd	s8,72(sp)
ffffffffa08085c0:	03a0f02d 	move	s8,sp
ffffffffa08085c4:	0080502d 	move	a6,a0
ffffffffa08085c8:	00c0202d 	move	a0,a2
ffffffffa08085cc:	00e0182d 	move	v1,a3
ffffffffa08085d0:	ffc80030 	sd	a4,48(s8)
ffffffffa08085d4:	0120102d 	move	v0,a5
ffffffffa08085d8:	000a3000 	sll	a2,a6,0x0
ffffffffa08085dc:	afc60020 	sw	a2,32(s8)
ffffffffa08085e0:	00052800 	sll	a1,a1,0x0
ffffffffa08085e4:	afc50024 	sw	a1,36(s8)
ffffffffa08085e8:	00042000 	sll	a0,a0,0x0
ffffffffa08085ec:	afc40028 	sw	a0,40(s8)
ffffffffa08085f0:	00031800 	sll	v1,v1,0x0
ffffffffa08085f4:	afc3002c 	sw	v1,44(s8)
ffffffffa08085f8:	00021000 	sll	v0,v0,0x0
ffffffffa08085fc:	afc20038 	sw	v0,56(s8)
ffffffffa0808600:	dfc20030 	ld	v0,48(s8)
ffffffffa0808604:	ffc20000 	sd	v0,0(s8)
ffffffffa0808608:	afc00008 	sw	zero,8(s8)
ffffffffa080860c:	8fc20024 	lw	v0,36(s8)
ffffffffa0808610:	2c420011 	sltiu	v0,v0,17
ffffffffa0808614:	14400004 	bnez	v0,ffffffffa0808628 <mini_itoa+0x70>
ffffffffa0808618:	00000000 	nop
ffffffffa080861c:	0000102d 	move	v0,zero
ffffffffa0808620:	0820220f 	j	ffffffffa080883c <mini_itoa+0x284>
ffffffffa0808624:	00000000 	nop
ffffffffa0808628:	8fc20020 	lw	v0,32(s8)
ffffffffa080862c:	04410009 	bgez	v0,ffffffffa0808654 <mini_itoa+0x9c>
ffffffffa0808630:	00000000 	nop
ffffffffa0808634:	8fc2002c 	lw	v0,44(s8)
ffffffffa0808638:	14400006 	bnez	v0,ffffffffa0808654 <mini_itoa+0x9c>
ffffffffa080863c:	00000000 	nop
ffffffffa0808640:	24020001 	li	v0,1
ffffffffa0808644:	afc20008 	sw	v0,8(s8)
ffffffffa0808648:	8fc20020 	lw	v0,32(s8)
ffffffffa080864c:	00021023 	negu	v0,v0
ffffffffa0808650:	afc20020 	sw	v0,32(s8)
ffffffffa0808654:	8fc20020 	lw	v0,32(s8)
ffffffffa0808658:	0040182d 	move	v1,v0
ffffffffa080865c:	8fc20024 	lw	v0,36(s8)
ffffffffa0808660:	0062001b 	divu	zero,v1,v0
ffffffffa0808664:	004001f4 	teq	v0,zero,0x7
ffffffffa0808668:	00001010 	mfhi	v0
ffffffffa080866c:	afc20010 	sw	v0,16(s8)
ffffffffa0808670:	dfc20000 	ld	v0,0(s8)
ffffffffa0808674:	64430001 	daddiu	v1,v0,1
ffffffffa0808678:	ffc30000 	sd	v1,0(s8)
ffffffffa080867c:	8fc30010 	lw	v1,16(s8)
ffffffffa0808680:	2863000a 	slti	v1,v1,10
ffffffffa0808684:	10600009 	beqz	v1,ffffffffa08086ac <mini_itoa+0xf4>
ffffffffa0808688:	00000000 	nop
ffffffffa080868c:	8fc30010 	lw	v1,16(s8)
ffffffffa0808690:	306300ff 	andi	v1,v1,0xff
ffffffffa0808694:	24630030 	addiu	v1,v1,48
ffffffffa0808698:	306300ff 	andi	v1,v1,0xff
ffffffffa080869c:	00031e3c 	dsll32	v1,v1,0x18
ffffffffa08086a0:	00031e3f 	dsra32	v1,v1,0x18
ffffffffa08086a4:	082021ba 	j	ffffffffa08086e8 <mini_itoa+0x130>
ffffffffa08086a8:	00000000 	nop
ffffffffa08086ac:	8fc30028 	lw	v1,40(s8)
ffffffffa08086b0:	10600004 	beqz	v1,ffffffffa08086c4 <mini_itoa+0x10c>
ffffffffa08086b4:	00000000 	nop
ffffffffa08086b8:	24030041 	li	v1,65
ffffffffa08086bc:	082021b2 	j	ffffffffa08086c8 <mini_itoa+0x110>
ffffffffa08086c0:	00000000 	nop
ffffffffa08086c4:	24030061 	li	v1,97
ffffffffa08086c8:	8fc40010 	lw	a0,16(s8)
ffffffffa08086cc:	308400ff 	andi	a0,a0,0xff
ffffffffa08086d0:	00641821 	addu	v1,v1,a0
ffffffffa08086d4:	306300ff 	andi	v1,v1,0xff
ffffffffa08086d8:	2463fff6 	addiu	v1,v1,-10
ffffffffa08086dc:	306300ff 	andi	v1,v1,0xff
ffffffffa08086e0:	00031e3c 	dsll32	v1,v1,0x18
ffffffffa08086e4:	00031e3f 	dsra32	v1,v1,0x18
ffffffffa08086e8:	a0430000 	sb	v1,0(v0)
ffffffffa08086ec:	8fc30020 	lw	v1,32(s8)
ffffffffa08086f0:	8fc20024 	lw	v0,36(s8)
ffffffffa08086f4:	0062001b 	divu	zero,v1,v0
ffffffffa08086f8:	004001f4 	teq	v0,zero,0x7
ffffffffa08086fc:	00001810 	mfhi	v1
ffffffffa0808700:	00001012 	mflo	v0
ffffffffa0808704:	afc20020 	sw	v0,32(s8)
ffffffffa0808708:	8fc20020 	lw	v0,32(s8)
ffffffffa080870c:	1c40ffd1 	bgtz	v0,ffffffffa0808654 <mini_itoa+0x9c>
ffffffffa0808710:	00000000 	nop
ffffffffa0808714:	dfc30000 	ld	v1,0(s8)
ffffffffa0808718:	dfc20030 	ld	v0,48(s8)
ffffffffa080871c:	0062102f 	dsubu	v0,v1,v0
ffffffffa0808720:	afc2000c 	sw	v0,12(s8)
ffffffffa0808724:	082021d3 	j	ffffffffa080874c <mini_itoa+0x194>
ffffffffa0808728:	00000000 	nop
ffffffffa080872c:	dfc20000 	ld	v0,0(s8)
ffffffffa0808730:	64430001 	daddiu	v1,v0,1
ffffffffa0808734:	ffc30000 	sd	v1,0(s8)
ffffffffa0808738:	24030030 	li	v1,48
ffffffffa080873c:	a0430000 	sb	v1,0(v0)
ffffffffa0808740:	8fc2000c 	lw	v0,12(s8)
ffffffffa0808744:	24420001 	addiu	v0,v0,1
ffffffffa0808748:	afc2000c 	sw	v0,12(s8)
ffffffffa080874c:	8fc3000c 	lw	v1,12(s8)
ffffffffa0808750:	8fc20038 	lw	v0,56(s8)
ffffffffa0808754:	0062102b 	sltu	v0,v1,v0
ffffffffa0808758:	1440fff4 	bnez	v0,ffffffffa080872c <mini_itoa+0x174>
ffffffffa080875c:	00000000 	nop
ffffffffa0808760:	8fc20008 	lw	v0,8(s8)
ffffffffa0808764:	10400006 	beqz	v0,ffffffffa0808780 <mini_itoa+0x1c8>
ffffffffa0808768:	00000000 	nop
ffffffffa080876c:	dfc20000 	ld	v0,0(s8)
ffffffffa0808770:	64430001 	daddiu	v1,v0,1
ffffffffa0808774:	ffc30000 	sd	v1,0(s8)
ffffffffa0808778:	2403002d 	li	v1,45
ffffffffa080877c:	a0430000 	sb	v1,0(v0)
ffffffffa0808780:	dfc20000 	ld	v0,0(s8)
ffffffffa0808784:	a0400000 	sb	zero,0(v0)
ffffffffa0808788:	dfc30000 	ld	v1,0(s8)
ffffffffa080878c:	dfc20030 	ld	v0,48(s8)
ffffffffa0808790:	0062102f 	dsubu	v0,v1,v0
ffffffffa0808794:	afc20014 	sw	v0,20(s8)
ffffffffa0808798:	afc0000c 	sw	zero,12(s8)
ffffffffa080879c:	08202208 	j	ffffffffa0808820 <mini_itoa+0x268>
ffffffffa08087a0:	00000000 	nop
ffffffffa08087a4:	9fc2000c 	lwu	v0,12(s8)
ffffffffa08087a8:	dfc30030 	ld	v1,48(s8)
ffffffffa08087ac:	0062102d 	daddu	v0,v1,v0
ffffffffa08087b0:	90420000 	lbu	v0,0(v0)
ffffffffa08087b4:	a3c20018 	sb	v0,24(s8)
ffffffffa08087b8:	9fc2000c 	lwu	v0,12(s8)
ffffffffa08087bc:	dfc30030 	ld	v1,48(s8)
ffffffffa08087c0:	0062102d 	daddu	v0,v1,v0
ffffffffa08087c4:	8fc40014 	lw	a0,20(s8)
ffffffffa08087c8:	8fc3000c 	lw	v1,12(s8)
ffffffffa08087cc:	00831823 	subu	v1,a0,v1
ffffffffa08087d0:	2463ffff 	addiu	v1,v1,-1
ffffffffa08087d4:	0003183c 	dsll32	v1,v1,0x0
ffffffffa08087d8:	0003183e 	dsrl32	v1,v1,0x0
ffffffffa08087dc:	dfc40030 	ld	a0,48(s8)
ffffffffa08087e0:	0083182d 	daddu	v1,a0,v1
ffffffffa08087e4:	80630000 	lb	v1,0(v1)
ffffffffa08087e8:	a0430000 	sb	v1,0(v0)
ffffffffa08087ec:	8fc30014 	lw	v1,20(s8)
ffffffffa08087f0:	8fc2000c 	lw	v0,12(s8)
ffffffffa08087f4:	00621023 	subu	v0,v1,v0
ffffffffa08087f8:	2442ffff 	addiu	v0,v0,-1
ffffffffa08087fc:	0002103c 	dsll32	v0,v0,0x0
ffffffffa0808800:	0002103e 	dsrl32	v0,v0,0x0
ffffffffa0808804:	dfc30030 	ld	v1,48(s8)
ffffffffa0808808:	0062102d 	daddu	v0,v1,v0
ffffffffa080880c:	93c30018 	lbu	v1,24(s8)
ffffffffa0808810:	a0430000 	sb	v1,0(v0)
ffffffffa0808814:	8fc2000c 	lw	v0,12(s8)
ffffffffa0808818:	24420001 	addiu	v0,v0,1
ffffffffa080881c:	afc2000c 	sw	v0,12(s8)
ffffffffa0808820:	8fc20014 	lw	v0,20(s8)
ffffffffa0808824:	00021042 	srl	v0,v0,0x1
ffffffffa0808828:	8fc3000c 	lw	v1,12(s8)
ffffffffa080882c:	0062102b 	sltu	v0,v1,v0
ffffffffa0808830:	1440ffdc 	bnez	v0,ffffffffa08087a4 <mini_itoa+0x1ec>
ffffffffa0808834:	00000000 	nop
ffffffffa0808838:	8fc20014 	lw	v0,20(s8)
ffffffffa080883c:	03c0e82d 	move	sp,s8
ffffffffa0808840:	dfbe0048 	ld	s8,72(sp)
ffffffffa0808844:	67bd0050 	daddiu	sp,sp,80
ffffffffa0808848:	03e00008 	jr	ra
ffffffffa080884c:	00000000 	nop

ffffffffa0808850 <_putc>:
ffffffffa0808850:	67bdffe0 	daddiu	sp,sp,-32
ffffffffa0808854:	ffbe0018 	sd	s8,24(sp)
ffffffffa0808858:	03a0f02d 	move	s8,sp
ffffffffa080885c:	0080102d 	move	v0,a0
ffffffffa0808860:	ffc50008 	sd	a1,8(s8)
ffffffffa0808864:	00021000 	sll	v0,v0,0x0
ffffffffa0808868:	afc20000 	sw	v0,0(s8)
ffffffffa080886c:	dfc20008 	ld	v0,8(s8)
ffffffffa0808870:	dc420008 	ld	v0,8(v0)
ffffffffa0808874:	0040182d 	move	v1,v0
ffffffffa0808878:	dfc20008 	ld	v0,8(s8)
ffffffffa080887c:	dc420000 	ld	v0,0(v0)
ffffffffa0808880:	0062102f 	dsubu	v0,v1,v0
ffffffffa0808884:	00021000 	sll	v0,v0,0x0
ffffffffa0808888:	24420001 	addiu	v0,v0,1
ffffffffa080888c:	0040182d 	move	v1,v0
ffffffffa0808890:	dfc20008 	ld	v0,8(s8)
ffffffffa0808894:	8c420010 	lw	v0,16(v0)
ffffffffa0808898:	0062102b 	sltu	v0,v1,v0
ffffffffa080889c:	14400004 	bnez	v0,ffffffffa08088b0 <_putc+0x60>
ffffffffa08088a0:	00000000 	nop
ffffffffa08088a4:	0000102d 	move	v0,zero
ffffffffa08088a8:	08202239 	j	ffffffffa08088e4 <_putc+0x94>
ffffffffa08088ac:	00000000 	nop
ffffffffa08088b0:	dfc20008 	ld	v0,8(s8)
ffffffffa08088b4:	dc420008 	ld	v0,8(v0)
ffffffffa08088b8:	64440001 	daddiu	a0,v0,1
ffffffffa08088bc:	dfc30008 	ld	v1,8(s8)
ffffffffa08088c0:	fc640008 	sd	a0,8(v1)
ffffffffa08088c4:	8fc30000 	lw	v1,0(s8)
ffffffffa08088c8:	00031e3c 	dsll32	v1,v1,0x18
ffffffffa08088cc:	00031e3f 	dsra32	v1,v1,0x18
ffffffffa08088d0:	a0430000 	sb	v1,0(v0)
ffffffffa08088d4:	dfc20008 	ld	v0,8(s8)
ffffffffa08088d8:	dc420008 	ld	v0,8(v0)
ffffffffa08088dc:	a0400000 	sb	zero,0(v0)
ffffffffa08088e0:	24020001 	li	v0,1
ffffffffa08088e4:	03c0e82d 	move	sp,s8
ffffffffa08088e8:	dfbe0018 	ld	s8,24(sp)
ffffffffa08088ec:	67bd0020 	daddiu	sp,sp,32
ffffffffa08088f0:	03e00008 	jr	ra
ffffffffa08088f4:	00000000 	nop

ffffffffa08088f8 <_puts>:
ffffffffa08088f8:	67bdffc0 	daddiu	sp,sp,-64
ffffffffa08088fc:	ffbe0038 	sd	s8,56(sp)
ffffffffa0808900:	03a0f02d 	move	s8,sp
ffffffffa0808904:	ffc40010 	sd	a0,16(s8)
ffffffffa0808908:	00a0102d 	move	v0,a1
ffffffffa080890c:	ffc60020 	sd	a2,32(s8)
ffffffffa0808910:	00021000 	sll	v0,v0,0x0
ffffffffa0808914:	afc20018 	sw	v0,24(s8)
ffffffffa0808918:	dfc20020 	ld	v0,32(s8)
ffffffffa080891c:	8c420010 	lw	v0,16(v0)
ffffffffa0808920:	0002183c 	dsll32	v1,v0,0x0
ffffffffa0808924:	0003183e 	dsrl32	v1,v1,0x0
ffffffffa0808928:	dfc20020 	ld	v0,32(s8)
ffffffffa080892c:	dc420000 	ld	v0,0(v0)
ffffffffa0808930:	0040202d 	move	a0,v0
ffffffffa0808934:	dfc20020 	ld	v0,32(s8)
ffffffffa0808938:	dc420008 	ld	v0,8(v0)
ffffffffa080893c:	0082102f 	dsubu	v0,a0,v0
ffffffffa0808940:	0062102d 	daddu	v0,v1,v0
ffffffffa0808944:	6443ffff 	daddiu	v1,v0,-1
ffffffffa0808948:	9fc20018 	lwu	v0,24(s8)
ffffffffa080894c:	0062102a 	slt	v0,v1,v0
ffffffffa0808950:	1040000e 	beqz	v0,ffffffffa080898c <_puts+0x94>
ffffffffa0808954:	00000000 	nop
ffffffffa0808958:	dfc20020 	ld	v0,32(s8)
ffffffffa080895c:	8c420010 	lw	v0,16(v0)
ffffffffa0808960:	0002183c 	dsll32	v1,v0,0x0
ffffffffa0808964:	0003183e 	dsrl32	v1,v1,0x0
ffffffffa0808968:	dfc20020 	ld	v0,32(s8)
ffffffffa080896c:	dc420000 	ld	v0,0(v0)
ffffffffa0808970:	0040202d 	move	a0,v0
ffffffffa0808974:	dfc20020 	ld	v0,32(s8)
ffffffffa0808978:	dc420008 	ld	v0,8(v0)
ffffffffa080897c:	0082102f 	dsubu	v0,a0,v0
ffffffffa0808980:	0062102d 	daddu	v0,v1,v0
ffffffffa0808984:	6442ffff 	daddiu	v0,v0,-1
ffffffffa0808988:	afc20018 	sw	v0,24(s8)
ffffffffa080898c:	afc00000 	sw	zero,0(s8)
ffffffffa0808990:	08202273 	j	ffffffffa08089cc <_puts+0xd4>
ffffffffa0808994:	00000000 	nop
ffffffffa0808998:	dfc20020 	ld	v0,32(s8)
ffffffffa080899c:	dc420008 	ld	v0,8(v0)
ffffffffa08089a0:	64440001 	daddiu	a0,v0,1
ffffffffa08089a4:	dfc30020 	ld	v1,32(s8)
ffffffffa08089a8:	fc640008 	sd	a0,8(v1)
ffffffffa08089ac:	9fc30000 	lwu	v1,0(s8)
ffffffffa08089b0:	dfc40010 	ld	a0,16(s8)
ffffffffa08089b4:	0083182d 	daddu	v1,a0,v1
ffffffffa08089b8:	80630000 	lb	v1,0(v1)
ffffffffa08089bc:	a0430000 	sb	v1,0(v0)
ffffffffa08089c0:	8fc20000 	lw	v0,0(s8)
ffffffffa08089c4:	24420001 	addiu	v0,v0,1
ffffffffa08089c8:	afc20000 	sw	v0,0(s8)
ffffffffa08089cc:	8fc30000 	lw	v1,0(s8)
ffffffffa08089d0:	8fc20018 	lw	v0,24(s8)
ffffffffa08089d4:	0062102b 	sltu	v0,v1,v0
ffffffffa08089d8:	1440ffef 	bnez	v0,ffffffffa0808998 <_puts+0xa0>
ffffffffa08089dc:	00000000 	nop
ffffffffa08089e0:	dfc20020 	ld	v0,32(s8)
ffffffffa08089e4:	dc420008 	ld	v0,8(v0)
ffffffffa08089e8:	a0400000 	sb	zero,0(v0)
ffffffffa08089ec:	8fc20018 	lw	v0,24(s8)
ffffffffa08089f0:	03c0e82d 	move	sp,s8
ffffffffa08089f4:	dfbe0038 	ld	s8,56(sp)
ffffffffa08089f8:	67bd0040 	daddiu	sp,sp,64
ffffffffa08089fc:	03e00008 	jr	ra
ffffffffa0808a00:	00000000 	nop

ffffffffa0808a04 <mini_vsnprintf>:
ffffffffa0808a04:	67bdff90 	daddiu	sp,sp,-112
ffffffffa0808a08:	ffbf0068 	sd	ra,104(sp)
ffffffffa0808a0c:	ffbe0060 	sd	s8,96(sp)
ffffffffa0808a10:	03a0f02d 	move	s8,sp
ffffffffa0808a14:	ffc40040 	sd	a0,64(s8)
ffffffffa0808a18:	00a0102d 	move	v0,a1
ffffffffa0808a1c:	ffc60050 	sd	a2,80(s8)
ffffffffa0808a20:	ffc70058 	sd	a3,88(s8)
ffffffffa0808a24:	00021000 	sll	v0,v0,0x0
ffffffffa0808a28:	afc20048 	sw	v0,72(s8)
ffffffffa0808a2c:	dfc20040 	ld	v0,64(s8)
ffffffffa0808a30:	ffc20010 	sd	v0,16(s8)
ffffffffa0808a34:	dfc20040 	ld	v0,64(s8)
ffffffffa0808a38:	ffc20018 	sd	v0,24(s8)
ffffffffa0808a3c:	8fc20048 	lw	v0,72(s8)
ffffffffa0808a40:	afc20020 	sw	v0,32(s8)
ffffffffa0808a44:	0820234d 	j	ffffffffa0808d34 <mini_vsnprintf+0x330>
ffffffffa0808a48:	00000000 	nop
ffffffffa0808a4c:	dfc20018 	ld	v0,24(s8)
ffffffffa0808a50:	0040182d 	move	v1,v0
ffffffffa0808a54:	dfc20010 	ld	v0,16(s8)
ffffffffa0808a58:	0062102f 	dsubu	v0,v1,v0
ffffffffa0808a5c:	00021000 	sll	v0,v0,0x0
ffffffffa0808a60:	24420001 	addiu	v0,v0,1
ffffffffa0808a64:	0040182d 	move	v1,v0
ffffffffa0808a68:	8fc20020 	lw	v0,32(s8)
ffffffffa0808a6c:	0062102b 	sltu	v0,v1,v0
ffffffffa0808a70:	14400003 	bnez	v0,ffffffffa0808a80 <mini_vsnprintf+0x7c>
ffffffffa0808a74:	00000000 	nop
ffffffffa0808a78:	08202358 	j	ffffffffa0808d60 <mini_vsnprintf+0x35c>
ffffffffa0808a7c:	00000000 	nop
ffffffffa0808a80:	83c30000 	lb	v1,0(s8)
ffffffffa0808a84:	24020025 	li	v0,37
ffffffffa0808a88:	1062000a 	beq	v1,v0,ffffffffa0808ab4 <mini_vsnprintf+0xb0>
ffffffffa0808a8c:	00000000 	nop
ffffffffa0808a90:	83c20000 	lb	v0,0(s8)
ffffffffa0808a94:	0040182d 	move	v1,v0
ffffffffa0808a98:	67c20010 	daddiu	v0,s8,16
ffffffffa0808a9c:	0060202d 	move	a0,v1
ffffffffa0808aa0:	0040282d 	move	a1,v0
ffffffffa0808aa4:	0c202214 	jal	ffffffffa0808850 <_putc>
ffffffffa0808aa8:	00000000 	nop
ffffffffa0808aac:	0820234d 	j	ffffffffa0808d34 <mini_vsnprintf+0x330>
ffffffffa0808ab0:	00000000 	nop
ffffffffa0808ab4:	a3c00001 	sb	zero,1(s8)
ffffffffa0808ab8:	dfc20050 	ld	v0,80(s8)
ffffffffa0808abc:	64430001 	daddiu	v1,v0,1
ffffffffa0808ac0:	ffc30050 	sd	v1,80(s8)
ffffffffa0808ac4:	90420000 	lbu	v0,0(v0)
ffffffffa0808ac8:	a3c20000 	sb	v0,0(s8)
ffffffffa0808acc:	83c30000 	lb	v1,0(s8)
ffffffffa0808ad0:	24020030 	li	v0,48
ffffffffa0808ad4:	1462001c 	bne	v1,v0,ffffffffa0808b48 <mini_vsnprintf+0x144>
ffffffffa0808ad8:	00000000 	nop
ffffffffa0808adc:	dfc20050 	ld	v0,80(s8)
ffffffffa0808ae0:	64430001 	daddiu	v1,v0,1
ffffffffa0808ae4:	ffc30050 	sd	v1,80(s8)
ffffffffa0808ae8:	90420000 	lbu	v0,0(v0)
ffffffffa0808aec:	a3c20000 	sb	v0,0(s8)
ffffffffa0808af0:	83c20000 	lb	v0,0(s8)
ffffffffa0808af4:	14400003 	bnez	v0,ffffffffa0808b04 <mini_vsnprintf+0x100>
ffffffffa0808af8:	00000000 	nop
ffffffffa0808afc:	08202358 	j	ffffffffa0808d60 <mini_vsnprintf+0x35c>
ffffffffa0808b00:	00000000 	nop
ffffffffa0808b04:	83c20000 	lb	v0,0(s8)
ffffffffa0808b08:	28420030 	slti	v0,v0,48
ffffffffa0808b0c:	14400009 	bnez	v0,ffffffffa0808b34 <mini_vsnprintf+0x130>
ffffffffa0808b10:	00000000 	nop
ffffffffa0808b14:	83c20000 	lb	v0,0(s8)
ffffffffa0808b18:	2842003a 	slti	v0,v0,58
ffffffffa0808b1c:	10400005 	beqz	v0,ffffffffa0808b34 <mini_vsnprintf+0x130>
ffffffffa0808b20:	00000000 	nop
ffffffffa0808b24:	93c20000 	lbu	v0,0(s8)
ffffffffa0808b28:	2442ffd0 	addiu	v0,v0,-48
ffffffffa0808b2c:	304200ff 	andi	v0,v0,0xff
ffffffffa0808b30:	a3c20001 	sb	v0,1(s8)
ffffffffa0808b34:	dfc20050 	ld	v0,80(s8)
ffffffffa0808b38:	64430001 	daddiu	v1,v0,1
ffffffffa0808b3c:	ffc30050 	sd	v1,80(s8)
ffffffffa0808b40:	90420000 	lbu	v0,0(v0)
ffffffffa0808b44:	a3c20000 	sb	v0,0(s8)
ffffffffa0808b48:	83c20000 	lb	v0,0(s8)
ffffffffa0808b4c:	24030064 	li	v1,100
ffffffffa0808b50:	10430019 	beq	v0,v1,ffffffffa0808bb8 <mini_vsnprintf+0x1b4>
ffffffffa0808b54:	00000000 	nop
ffffffffa0808b58:	28430065 	slti	v1,v0,101
ffffffffa0808b5c:	1060000b 	beqz	v1,ffffffffa0808b8c <mini_vsnprintf+0x188>
ffffffffa0808b60:	00000000 	nop
ffffffffa0808b64:	24030058 	li	v1,88
ffffffffa0808b68:	1043002f 	beq	v0,v1,ffffffffa0808c28 <mini_vsnprintf+0x224>
ffffffffa0808b6c:	00000000 	nop
ffffffffa0808b70:	24030063 	li	v1,99
ffffffffa0808b74:	10430048 	beq	v0,v1,ffffffffa0808c98 <mini_vsnprintf+0x294>
ffffffffa0808b78:	00000000 	nop
ffffffffa0808b7c:	10400077 	beqz	v0,ffffffffa0808d5c <mini_vsnprintf+0x358>
ffffffffa0808b80:	00000000 	nop
ffffffffa0808b84:	08202345 	j	ffffffffa0808d14 <mini_vsnprintf+0x310>
ffffffffa0808b88:	00000000 	nop
ffffffffa0808b8c:	24030075 	li	v1,117
ffffffffa0808b90:	10430009 	beq	v0,v1,ffffffffa0808bb8 <mini_vsnprintf+0x1b4>
ffffffffa0808b94:	00000000 	nop
ffffffffa0808b98:	24030078 	li	v1,120
ffffffffa0808b9c:	10430022 	beq	v0,v1,ffffffffa0808c28 <mini_vsnprintf+0x224>
ffffffffa0808ba0:	00000000 	nop
ffffffffa0808ba4:	24030073 	li	v1,115
ffffffffa0808ba8:	10430049 	beq	v0,v1,ffffffffa0808cd0 <mini_vsnprintf+0x2cc>
ffffffffa0808bac:	00000000 	nop
ffffffffa0808bb0:	08202345 	j	ffffffffa0808d14 <mini_vsnprintf+0x310>
ffffffffa0808bb4:	00000000 	nop
ffffffffa0808bb8:	dfc20058 	ld	v0,88(s8)
ffffffffa0808bbc:	64430008 	daddiu	v1,v0,8
ffffffffa0808bc0:	ffc30058 	sd	v1,88(s8)
ffffffffa0808bc4:	8c420000 	lw	v0,0(v0)
ffffffffa0808bc8:	0040202d 	move	a0,v0
ffffffffa0808bcc:	83c20000 	lb	v0,0(s8)
ffffffffa0808bd0:	38420075 	xori	v0,v0,0x75
ffffffffa0808bd4:	2c420001 	sltiu	v0,v0,1
ffffffffa0808bd8:	304200ff 	andi	v0,v0,0xff
ffffffffa0808bdc:	0040382d 	move	a3,v0
ffffffffa0808be0:	83c20001 	lb	v0,1(s8)
ffffffffa0808be4:	67c30028 	daddiu	v1,s8,40
ffffffffa0808be8:	2405000a 	li	a1,10
ffffffffa0808bec:	0000302d 	move	a2,zero
ffffffffa0808bf0:	0060402d 	move	a4,v1
ffffffffa0808bf4:	0040482d 	move	a5,v0
ffffffffa0808bf8:	0c20216e 	jal	ffffffffa08085b8 <mini_itoa>
ffffffffa0808bfc:	00000000 	nop
ffffffffa0808c00:	afc20004 	sw	v0,4(s8)
ffffffffa0808c04:	67c40028 	daddiu	a0,s8,40
ffffffffa0808c08:	8fc30004 	lw	v1,4(s8)
ffffffffa0808c0c:	67c20010 	daddiu	v0,s8,16
ffffffffa0808c10:	0060282d 	move	a1,v1
ffffffffa0808c14:	0040302d 	move	a2,v0
ffffffffa0808c18:	0c20223e 	jal	ffffffffa08088f8 <_puts>
ffffffffa0808c1c:	00000000 	nop
ffffffffa0808c20:	0820234d 	j	ffffffffa0808d34 <mini_vsnprintf+0x330>
ffffffffa0808c24:	00000000 	nop
ffffffffa0808c28:	dfc20058 	ld	v0,88(s8)
ffffffffa0808c2c:	64430008 	daddiu	v1,v0,8
ffffffffa0808c30:	ffc30058 	sd	v1,88(s8)
ffffffffa0808c34:	8c420000 	lw	v0,0(v0)
ffffffffa0808c38:	0040202d 	move	a0,v0
ffffffffa0808c3c:	83c20000 	lb	v0,0(s8)
ffffffffa0808c40:	38420058 	xori	v0,v0,0x58
ffffffffa0808c44:	2c420001 	sltiu	v0,v0,1
ffffffffa0808c48:	304200ff 	andi	v0,v0,0xff
ffffffffa0808c4c:	0040302d 	move	a2,v0
ffffffffa0808c50:	83c20001 	lb	v0,1(s8)
ffffffffa0808c54:	67c30028 	daddiu	v1,s8,40
ffffffffa0808c58:	24050010 	li	a1,16
ffffffffa0808c5c:	24070001 	li	a3,1
ffffffffa0808c60:	0060402d 	move	a4,v1
ffffffffa0808c64:	0040482d 	move	a5,v0
ffffffffa0808c68:	0c20216e 	jal	ffffffffa08085b8 <mini_itoa>
ffffffffa0808c6c:	00000000 	nop
ffffffffa0808c70:	afc20004 	sw	v0,4(s8)
ffffffffa0808c74:	67c40028 	daddiu	a0,s8,40
ffffffffa0808c78:	8fc30004 	lw	v1,4(s8)
ffffffffa0808c7c:	67c20010 	daddiu	v0,s8,16
ffffffffa0808c80:	0060282d 	move	a1,v1
ffffffffa0808c84:	0040302d 	move	a2,v0
ffffffffa0808c88:	0c20223e 	jal	ffffffffa08088f8 <_puts>
ffffffffa0808c8c:	00000000 	nop
ffffffffa0808c90:	0820234d 	j	ffffffffa0808d34 <mini_vsnprintf+0x330>
ffffffffa0808c94:	00000000 	nop
ffffffffa0808c98:	dfc20058 	ld	v0,88(s8)
ffffffffa0808c9c:	64430008 	daddiu	v1,v0,8
ffffffffa0808ca0:	ffc30058 	sd	v1,88(s8)
ffffffffa0808ca4:	8c420000 	lw	v0,0(v0)
ffffffffa0808ca8:	0002163c 	dsll32	v0,v0,0x18
ffffffffa0808cac:	0002163f 	dsra32	v0,v0,0x18
ffffffffa0808cb0:	0040182d 	move	v1,v0
ffffffffa0808cb4:	67c20010 	daddiu	v0,s8,16
ffffffffa0808cb8:	0060202d 	move	a0,v1
ffffffffa0808cbc:	0040282d 	move	a1,v0
ffffffffa0808cc0:	0c202214 	jal	ffffffffa0808850 <_putc>
ffffffffa0808cc4:	00000000 	nop
ffffffffa0808cc8:	0820234d 	j	ffffffffa0808d34 <mini_vsnprintf+0x330>
ffffffffa0808ccc:	00000000 	nop
ffffffffa0808cd0:	dfc20058 	ld	v0,88(s8)
ffffffffa0808cd4:	64430008 	daddiu	v1,v0,8
ffffffffa0808cd8:	ffc30058 	sd	v1,88(s8)
ffffffffa0808cdc:	dc420000 	ld	v0,0(v0)
ffffffffa0808ce0:	ffc20008 	sd	v0,8(s8)
ffffffffa0808ce4:	dfc40008 	ld	a0,8(s8)
ffffffffa0808ce8:	0c202158 	jal	ffffffffa0808560 <mini_strlen>
ffffffffa0808cec:	00000000 	nop
ffffffffa0808cf0:	0040182d 	move	v1,v0
ffffffffa0808cf4:	67c20010 	daddiu	v0,s8,16
ffffffffa0808cf8:	dfc40008 	ld	a0,8(s8)
ffffffffa0808cfc:	0060282d 	move	a1,v1
ffffffffa0808d00:	0040302d 	move	a2,v0
ffffffffa0808d04:	0c20223e 	jal	ffffffffa08088f8 <_puts>
ffffffffa0808d08:	00000000 	nop
ffffffffa0808d0c:	0820234d 	j	ffffffffa0808d34 <mini_vsnprintf+0x330>
ffffffffa0808d10:	00000000 	nop
ffffffffa0808d14:	83c20000 	lb	v0,0(s8)
ffffffffa0808d18:	0040182d 	move	v1,v0
ffffffffa0808d1c:	67c20010 	daddiu	v0,s8,16
ffffffffa0808d20:	0060202d 	move	a0,v1
ffffffffa0808d24:	0040282d 	move	a1,v0
ffffffffa0808d28:	0c202214 	jal	ffffffffa0808850 <_putc>
ffffffffa0808d2c:	00000000 	nop
ffffffffa0808d30:	00000000 	nop
ffffffffa0808d34:	dfc20050 	ld	v0,80(s8)
ffffffffa0808d38:	64430001 	daddiu	v1,v0,1
ffffffffa0808d3c:	ffc30050 	sd	v1,80(s8)
ffffffffa0808d40:	90420000 	lbu	v0,0(v0)
ffffffffa0808d44:	a3c20000 	sb	v0,0(s8)
ffffffffa0808d48:	83c20000 	lb	v0,0(s8)
ffffffffa0808d4c:	1440ff3f 	bnez	v0,ffffffffa0808a4c <mini_vsnprintf+0x48>
ffffffffa0808d50:	00000000 	nop
ffffffffa0808d54:	08202358 	j	ffffffffa0808d60 <mini_vsnprintf+0x35c>
ffffffffa0808d58:	00000000 	nop
ffffffffa0808d5c:	00000000 	nop
ffffffffa0808d60:	dfc20018 	ld	v0,24(s8)
ffffffffa0808d64:	0040182d 	move	v1,v0
ffffffffa0808d68:	dfc20010 	ld	v0,16(s8)
ffffffffa0808d6c:	0062102f 	dsubu	v0,v1,v0
ffffffffa0808d70:	00021000 	sll	v0,v0,0x0
ffffffffa0808d74:	03c0e82d 	move	sp,s8
ffffffffa0808d78:	dfbf0068 	ld	ra,104(sp)
ffffffffa0808d7c:	dfbe0060 	ld	s8,96(sp)
ffffffffa0808d80:	67bd0070 	daddiu	sp,sp,112
ffffffffa0808d84:	03e00008 	jr	ra
ffffffffa0808d88:	00000000 	nop

ffffffffa0808d8c <printk>:
ffffffffa0808d8c:	67bdfe90 	daddiu	sp,sp,-368
ffffffffa0808d90:	ffbf0128 	sd	ra,296(sp)
ffffffffa0808d94:	ffbe0120 	sd	s8,288(sp)
ffffffffa0808d98:	03a0f02d 	move	s8,sp
ffffffffa0808d9c:	ffc50138 	sd	a1,312(s8)
ffffffffa0808da0:	ffc60140 	sd	a2,320(s8)
ffffffffa0808da4:	ffc70148 	sd	a3,328(s8)
ffffffffa0808da8:	ffc80150 	sd	a4,336(s8)
ffffffffa0808dac:	ffc90158 	sd	a5,344(s8)
ffffffffa0808db0:	ffca0160 	sd	a6,352(s8)
ffffffffa0808db4:	ffcb0168 	sd	a7,360(s8)
ffffffffa0808db8:	ffc40110 	sd	a0,272(s8)
ffffffffa0808dbc:	67c20170 	daddiu	v0,s8,368
ffffffffa0808dc0:	6442ffc8 	daddiu	v0,v0,-56
ffffffffa0808dc4:	ffc20008 	sd	v0,8(s8)
ffffffffa0808dc8:	dfc20008 	ld	v0,8(s8)
ffffffffa0808dcc:	67c30010 	daddiu	v1,s8,16
ffffffffa0808dd0:	0060202d 	move	a0,v1
ffffffffa0808dd4:	24050100 	li	a1,256
ffffffffa0808dd8:	dfc60110 	ld	a2,272(s8)
ffffffffa0808ddc:	0040382d 	move	a3,v0
ffffffffa0808de0:	0c202281 	jal	ffffffffa0808a04 <mini_vsnprintf>
ffffffffa0808de4:	00000000 	nop
ffffffffa0808de8:	afc20000 	sw	v0,0(s8)
ffffffffa0808dec:	8fc20000 	lw	v0,0(s8)
ffffffffa0808df0:	03c2102d 	daddu	v0,s8,v0
ffffffffa0808df4:	a0400010 	sb	zero,16(v0)
ffffffffa0808df8:	67c20010 	daddiu	v0,s8,16
ffffffffa0808dfc:	0040202d 	move	a0,v0
ffffffffa0808e00:	0c20011a 	jal	ffffffffa0800468 <port_write>
ffffffffa0808e04:	00000000 	nop
ffffffffa0808e08:	8fc20000 	lw	v0,0(s8)
ffffffffa0808e0c:	03c0e82d 	move	sp,s8
ffffffffa0808e10:	dfbf0128 	ld	ra,296(sp)
ffffffffa0808e14:	dfbe0120 	ld	s8,288(sp)
ffffffffa0808e18:	67bd0170 	daddiu	sp,sp,368
ffffffffa0808e1c:	03e00008 	jr	ra
ffffffffa0808e20:	00000000 	nop

ffffffffa0808e24 <printf>:
ffffffffa0808e24:	67bdfe90 	daddiu	sp,sp,-368
ffffffffa0808e28:	ffbf0128 	sd	ra,296(sp)
ffffffffa0808e2c:	ffbe0120 	sd	s8,288(sp)
ffffffffa0808e30:	03a0f02d 	move	s8,sp
ffffffffa0808e34:	ffc50138 	sd	a1,312(s8)
ffffffffa0808e38:	ffc60140 	sd	a2,320(s8)
ffffffffa0808e3c:	ffc70148 	sd	a3,328(s8)
ffffffffa0808e40:	ffc80150 	sd	a4,336(s8)
ffffffffa0808e44:	ffc90158 	sd	a5,344(s8)
ffffffffa0808e48:	ffca0160 	sd	a6,352(s8)
ffffffffa0808e4c:	ffcb0168 	sd	a7,360(s8)
ffffffffa0808e50:	ffc40110 	sd	a0,272(s8)
ffffffffa0808e54:	67c20170 	daddiu	v0,s8,368
ffffffffa0808e58:	6442ffc8 	daddiu	v0,v0,-56
ffffffffa0808e5c:	ffc20008 	sd	v0,8(s8)
ffffffffa0808e60:	dfc20008 	ld	v0,8(s8)
ffffffffa0808e64:	67c30010 	daddiu	v1,s8,16
ffffffffa0808e68:	0060202d 	move	a0,v1
ffffffffa0808e6c:	24050100 	li	a1,256
ffffffffa0808e70:	dfc60110 	ld	a2,272(s8)
ffffffffa0808e74:	0040382d 	move	a3,v0
ffffffffa0808e78:	0c202281 	jal	ffffffffa0808a04 <mini_vsnprintf>
ffffffffa0808e7c:	00000000 	nop
ffffffffa0808e80:	afc20000 	sw	v0,0(s8)
ffffffffa0808e84:	8fc20000 	lw	v0,0(s8)
ffffffffa0808e88:	03c2102d 	daddu	v0,s8,v0
ffffffffa0808e8c:	a0400010 	sb	zero,16(v0)
ffffffffa0808e90:	67c20010 	daddiu	v0,s8,16
ffffffffa0808e94:	0040202d 	move	a0,v0
ffffffffa0808e98:	0c201eb2 	jal	ffffffffa0807ac8 <sys_write>
ffffffffa0808e9c:	00000000 	nop
ffffffffa0808ea0:	8fc20000 	lw	v0,0(s8)
ffffffffa0808ea4:	03c0e82d 	move	sp,s8
ffffffffa0808ea8:	dfbf0128 	ld	ra,296(sp)
ffffffffa0808eac:	dfbe0120 	ld	s8,288(sp)
ffffffffa0808eb0:	67bd0170 	daddiu	sp,sp,368
ffffffffa0808eb4:	03e00008 	jr	ra
ffffffffa0808eb8:	00000000 	nop

ffffffffa0808ebc <kprintf>:
ffffffffa0808ebc:	67bdfe90 	daddiu	sp,sp,-368
ffffffffa0808ec0:	ffbf0128 	sd	ra,296(sp)
ffffffffa0808ec4:	ffbe0120 	sd	s8,288(sp)
ffffffffa0808ec8:	03a0f02d 	move	s8,sp
ffffffffa0808ecc:	ffc50138 	sd	a1,312(s8)
ffffffffa0808ed0:	ffc60140 	sd	a2,320(s8)
ffffffffa0808ed4:	ffc70148 	sd	a3,328(s8)
ffffffffa0808ed8:	ffc80150 	sd	a4,336(s8)
ffffffffa0808edc:	ffc90158 	sd	a5,344(s8)
ffffffffa0808ee0:	ffca0160 	sd	a6,352(s8)
ffffffffa0808ee4:	ffcb0168 	sd	a7,360(s8)
ffffffffa0808ee8:	ffc40110 	sd	a0,272(s8)
ffffffffa0808eec:	67c20170 	daddiu	v0,s8,368
ffffffffa0808ef0:	6442ffc8 	daddiu	v0,v0,-56
ffffffffa0808ef4:	ffc20008 	sd	v0,8(s8)
ffffffffa0808ef8:	dfc20008 	ld	v0,8(s8)
ffffffffa0808efc:	67c30010 	daddiu	v1,s8,16
ffffffffa0808f00:	0060202d 	move	a0,v1
ffffffffa0808f04:	24050100 	li	a1,256
ffffffffa0808f08:	dfc60110 	ld	a2,272(s8)
ffffffffa0808f0c:	0040382d 	move	a3,v0
ffffffffa0808f10:	0c202281 	jal	ffffffffa0808a04 <mini_vsnprintf>
ffffffffa0808f14:	00000000 	nop
ffffffffa0808f18:	afc20000 	sw	v0,0(s8)
ffffffffa0808f1c:	8fc20000 	lw	v0,0(s8)
ffffffffa0808f20:	03c2102d 	daddu	v0,s8,v0
ffffffffa0808f24:	a0400010 	sb	zero,16(v0)
ffffffffa0808f28:	67c20010 	daddiu	v0,s8,16
ffffffffa0808f2c:	0040202d 	move	a0,v0
ffffffffa0808f30:	0c201588 	jal	ffffffffa0805620 <screen_write>
ffffffffa0808f34:	00000000 	nop
ffffffffa0808f38:	0c201631 	jal	ffffffffa08058c4 <screen_reflush_shell>
ffffffffa0808f3c:	00000000 	nop
ffffffffa0808f40:	8fc20000 	lw	v0,0(s8)
ffffffffa0808f44:	03c0e82d 	move	sp,s8
ffffffffa0808f48:	dfbf0128 	ld	ra,296(sp)
ffffffffa0808f4c:	dfbe0120 	ld	s8,288(sp)
ffffffffa0808f50:	67bd0170 	daddiu	sp,sp,368
ffffffffa0808f54:	03e00008 	jr	ra
ffffffffa0808f58:	00000000 	nop
ffffffffa0808f5c:	00000000 	nop

ffffffffa0808f60 <read_uart_ch>:
ffffffffa0808f60:	67bdffd0 	daddiu	sp,sp,-48
ffffffffa0808f64:	ffbe0028 	sd	s8,40(sp)
ffffffffa0808f68:	03a0f02d 	move	s8,sp
ffffffffa0808f6c:	a3c00000 	sb	zero,0(s8)
ffffffffa0808f70:	3c02bfe0 	lui	v0,0xbfe0
ffffffffa0808f74:	ffc20008 	sd	v0,8(s8)
ffffffffa0808f78:	3c02bfe0 	lui	v0,0xbfe0
ffffffffa0808f7c:	34420005 	ori	v0,v0,0x5
ffffffffa0808f80:	ffc20010 	sd	v0,16(s8)
ffffffffa0808f84:	dfc20010 	ld	v0,16(s8)
ffffffffa0808f88:	90420000 	lbu	v0,0(v0)
ffffffffa0808f8c:	30420001 	andi	v0,v0,0x1
ffffffffa0808f90:	10400004 	beqz	v0,ffffffffa0808fa4 <read_uart_ch+0x44>
ffffffffa0808f94:	00000000 	nop
ffffffffa0808f98:	dfc20008 	ld	v0,8(s8)
ffffffffa0808f9c:	90420000 	lbu	v0,0(v0)
ffffffffa0808fa0:	a3c20000 	sb	v0,0(s8)
ffffffffa0808fa4:	83c20000 	lb	v0,0(s8)
ffffffffa0808fa8:	03c0e82d 	move	sp,s8
ffffffffa0808fac:	dfbe0028 	ld	s8,40(sp)
ffffffffa0808fb0:	67bd0030 	daddiu	sp,sp,48
ffffffffa0808fb4:	03e00008 	jr	ra
ffffffffa0808fb8:	00000000 	nop

ffffffffa0808fbc <test_shell>:
ffffffffa0808fbc:	67bdff20 	daddiu	sp,sp,-224
ffffffffa0808fc0:	ffbf00d8 	sd	ra,216(sp)
ffffffffa0808fc4:	ffbe00d0 	sd	s8,208(sp)
ffffffffa0808fc8:	03a0f02d 	move	s8,sp
ffffffffa0808fcc:	afc00000 	sw	zero,0(s8)
ffffffffa0808fd0:	afc00004 	sw	zero,4(s8)
ffffffffa0808fd4:	3c020000 	lui	v0,0x0
ffffffffa0808fd8:	64420000 	daddiu	v0,v0,0
ffffffffa0808fdc:	00021438 	dsll	v0,v0,0x10
ffffffffa0808fe0:	6442a081 	daddiu	v0,v0,-24447
ffffffffa0808fe4:	00021438 	dsll	v0,v0,0x10
ffffffffa0808fe8:	dc43b850 	ld	v1,-18352(v0)
ffffffffa0808fec:	3c020000 	lui	v0,0x0
ffffffffa0808ff0:	64420000 	daddiu	v0,v0,0
ffffffffa0808ff4:	00021438 	dsll	v0,v0,0x10
ffffffffa0808ff8:	6442a081 	daddiu	v0,v0,-24447
ffffffffa0808ffc:	00021438 	dsll	v0,v0,0x10
ffffffffa0809000:	6444b170 	daddiu	a0,v0,-20112
ffffffffa0809004:	0060282d 	move	a1,v1
ffffffffa0809008:	0c2023af 	jal	ffffffffa0808ebc <kprintf>
ffffffffa080900c:	00000000 	nop
ffffffffa0809010:	3c020000 	lui	v0,0x0
ffffffffa0809014:	64420000 	daddiu	v0,v0,0
ffffffffa0809018:	00021438 	dsll	v0,v0,0x10
ffffffffa080901c:	6442a081 	daddiu	v0,v0,-24447
ffffffffa0809020:	00021438 	dsll	v0,v0,0x10
ffffffffa0809024:	dc43b858 	ld	v1,-18344(v0)
ffffffffa0809028:	3c020000 	lui	v0,0x0
ffffffffa080902c:	64420000 	daddiu	v0,v0,0
ffffffffa0809030:	00021438 	dsll	v0,v0,0x10
ffffffffa0809034:	6442a081 	daddiu	v0,v0,-24447
ffffffffa0809038:	00021438 	dsll	v0,v0,0x10
ffffffffa080903c:	6444b178 	daddiu	a0,v0,-20104
ffffffffa0809040:	0060282d 	move	a1,v1
ffffffffa0809044:	0c2023af 	jal	ffffffffa0808ebc <kprintf>
ffffffffa0809048:	00000000 	nop
ffffffffa080904c:	67c30028 	daddiu	v1,s8,40
ffffffffa0809050:	24020078 	li	v0,120
ffffffffa0809054:	0060202d 	move	a0,v1
ffffffffa0809058:	0000282d 	move	a1,zero
ffffffffa080905c:	0040302d 	move	a2,v0
ffffffffa0809060:	0c202087 	jal	ffffffffa080821c <memset>
ffffffffa0809064:	00000000 	nop
ffffffffa0809068:	ffc000a0 	sd	zero,160(s8)
ffffffffa080906c:	ffc000a8 	sd	zero,168(s8)
ffffffffa0809070:	ffc000b0 	sd	zero,176(s8)
ffffffffa0809074:	ffc000b8 	sd	zero,184(s8)
ffffffffa0809078:	ffc000c0 	sd	zero,192(s8)
ffffffffa080907c:	afc0000c 	sw	zero,12(s8)
ffffffffa0809080:	0c2023d8 	jal	ffffffffa0808f60 <read_uart_ch>
ffffffffa0809084:	00000000 	nop
ffffffffa0809088:	a3c20018 	sb	v0,24(s8)
ffffffffa080908c:	83c20018 	lb	v0,24(s8)
ffffffffa0809090:	14400003 	bnez	v0,ffffffffa08090a0 <test_shell+0xe4>
ffffffffa0809094:	00000000 	nop
ffffffffa0809098:	08202942 	j	ffffffffa080a508 <test_shell+0x154c>
ffffffffa080909c:	00000000 	nop
ffffffffa08090a0:	83c30018 	lb	v1,24(s8)
ffffffffa08090a4:	2402000d 	li	v0,13
ffffffffa08090a8:	10620031 	beq	v1,v0,ffffffffa0809170 <test_shell+0x1b4>
ffffffffa08090ac:	00000000 	nop
ffffffffa08090b0:	83c30018 	lb	v1,24(s8)
ffffffffa08090b4:	24020008 	li	v0,8
ffffffffa08090b8:	14620016 	bne	v1,v0,ffffffffa0809114 <test_shell+0x158>
ffffffffa08090bc:	00000000 	nop
ffffffffa08090c0:	8fc2000c 	lw	v0,12(s8)
ffffffffa08090c4:	1840050e 	blez	v0,ffffffffa080a500 <test_shell+0x1544>
ffffffffa08090c8:	00000000 	nop
ffffffffa08090cc:	83c20018 	lb	v0,24(s8)
ffffffffa08090d0:	0040182d 	move	v1,v0
ffffffffa08090d4:	3c020000 	lui	v0,0x0
ffffffffa08090d8:	64420000 	daddiu	v0,v0,0
ffffffffa08090dc:	00021438 	dsll	v0,v0,0x10
ffffffffa08090e0:	6442a081 	daddiu	v0,v0,-24447
ffffffffa08090e4:	00021438 	dsll	v0,v0,0x10
ffffffffa08090e8:	6444b180 	daddiu	a0,v0,-20096
ffffffffa08090ec:	0060282d 	move	a1,v1
ffffffffa08090f0:	0c2023af 	jal	ffffffffa0808ebc <kprintf>
ffffffffa08090f4:	00000000 	nop
ffffffffa08090f8:	8fc2000c 	lw	v0,12(s8)
ffffffffa08090fc:	2443ffff 	addiu	v1,v0,-1
ffffffffa0809100:	afc3000c 	sw	v1,12(s8)
ffffffffa0809104:	03c2102d 	daddu	v0,s8,v0
ffffffffa0809108:	a04000a0 	sb	zero,160(v0)
ffffffffa080910c:	08202940 	j	ffffffffa080a500 <test_shell+0x1544>
ffffffffa0809110:	00000000 	nop
ffffffffa0809114:	8fc2000c 	lw	v0,12(s8)
ffffffffa0809118:	28420028 	slti	v0,v0,40
ffffffffa080911c:	104004f8 	beqz	v0,ffffffffa080a500 <test_shell+0x1544>
ffffffffa0809120:	00000000 	nop
ffffffffa0809124:	83c20018 	lb	v0,24(s8)
ffffffffa0809128:	0040182d 	move	v1,v0
ffffffffa080912c:	3c020000 	lui	v0,0x0
ffffffffa0809130:	64420000 	daddiu	v0,v0,0
ffffffffa0809134:	00021438 	dsll	v0,v0,0x10
ffffffffa0809138:	6442a081 	daddiu	v0,v0,-24447
ffffffffa080913c:	00021438 	dsll	v0,v0,0x10
ffffffffa0809140:	6444b180 	daddiu	a0,v0,-20096
ffffffffa0809144:	0060282d 	move	a1,v1
ffffffffa0809148:	0c2023af 	jal	ffffffffa0808ebc <kprintf>
ffffffffa080914c:	00000000 	nop
ffffffffa0809150:	8fc2000c 	lw	v0,12(s8)
ffffffffa0809154:	24430001 	addiu	v1,v0,1
ffffffffa0809158:	afc3000c 	sw	v1,12(s8)
ffffffffa080915c:	03c2102d 	daddu	v0,s8,v0
ffffffffa0809160:	93c30018 	lbu	v1,24(s8)
ffffffffa0809164:	a04300a0 	sb	v1,160(v0)
ffffffffa0809168:	08202940 	j	ffffffffa080a500 <test_shell+0x1544>
ffffffffa080916c:	00000000 	nop
ffffffffa0809170:	83c20018 	lb	v0,24(s8)
ffffffffa0809174:	0040182d 	move	v1,v0
ffffffffa0809178:	3c020000 	lui	v0,0x0
ffffffffa080917c:	64420000 	daddiu	v0,v0,0
ffffffffa0809180:	00021438 	dsll	v0,v0,0x10
ffffffffa0809184:	6442a081 	daddiu	v0,v0,-24447
ffffffffa0809188:	00021438 	dsll	v0,v0,0x10
ffffffffa080918c:	6444b180 	daddiu	a0,v0,-20096
ffffffffa0809190:	0060282d 	move	a1,v1
ffffffffa0809194:	0c2023af 	jal	ffffffffa0808ebc <kprintf>
ffffffffa0809198:	00000000 	nop
ffffffffa080919c:	8fc2000c 	lw	v0,12(s8)
ffffffffa08091a0:	03c2102d 	daddu	v0,s8,v0
ffffffffa08091a4:	a04000a0 	sb	zero,160(v0)
ffffffffa08091a8:	67c200a0 	daddiu	v0,s8,160
ffffffffa08091ac:	0040202d 	move	a0,v0
ffffffffa08091b0:	3c020000 	lui	v0,0x0
ffffffffa08091b4:	64420000 	daddiu	v0,v0,0
ffffffffa08091b8:	00021438 	dsll	v0,v0,0x10
ffffffffa08091bc:	6442a081 	daddiu	v0,v0,-24447
ffffffffa08091c0:	00021438 	dsll	v0,v0,0x10
ffffffffa08091c4:	6445b188 	daddiu	a1,v0,-20088
ffffffffa08091c8:	24060002 	li	a2,2
ffffffffa08091cc:	0c2020fa 	jal	ffffffffa08083e8 <memcmp>
ffffffffa08091d0:	00000000 	nop
ffffffffa08091d4:	14400017 	bnez	v0,ffffffffa0809234 <test_shell+0x278>
ffffffffa08091d8:	00000000 	nop
ffffffffa08091dc:	83c200a2 	lb	v0,162(s8)
ffffffffa08091e0:	14400014 	bnez	v0,ffffffffa0809234 <test_shell+0x278>
ffffffffa08091e4:	00000000 	nop
ffffffffa08091e8:	0c201cd8 	jal	ffffffffa0807360 <do_process_show>
ffffffffa08091ec:	00000000 	nop
ffffffffa08091f0:	3c020000 	lui	v0,0x0
ffffffffa08091f4:	64420000 	daddiu	v0,v0,0
ffffffffa08091f8:	00021438 	dsll	v0,v0,0x10
ffffffffa08091fc:	6442a081 	daddiu	v0,v0,-24447
ffffffffa0809200:	00021438 	dsll	v0,v0,0x10
ffffffffa0809204:	dc43b858 	ld	v1,-18344(v0)
ffffffffa0809208:	3c020000 	lui	v0,0x0
ffffffffa080920c:	64420000 	daddiu	v0,v0,0
ffffffffa0809210:	00021438 	dsll	v0,v0,0x10
ffffffffa0809214:	6442a081 	daddiu	v0,v0,-24447
ffffffffa0809218:	00021438 	dsll	v0,v0,0x10
ffffffffa080921c:	6444b178 	daddiu	a0,v0,-20104
ffffffffa0809220:	0060282d 	move	a1,v1
ffffffffa0809224:	0c2023af 	jal	ffffffffa0808ebc <kprintf>
ffffffffa0809228:	00000000 	nop
ffffffffa080922c:	0820293d 	j	ffffffffa080a4f4 <test_shell+0x1538>
ffffffffa0809230:	00000000 	nop
ffffffffa0809234:	67c200a0 	daddiu	v0,s8,160
ffffffffa0809238:	0040202d 	move	a0,v0
ffffffffa080923c:	3c020000 	lui	v0,0x0
ffffffffa0809240:	64420000 	daddiu	v0,v0,0
ffffffffa0809244:	00021438 	dsll	v0,v0,0x10
ffffffffa0809248:	6442a081 	daddiu	v0,v0,-24447
ffffffffa080924c:	00021438 	dsll	v0,v0,0x10
ffffffffa0809250:	6445b190 	daddiu	a1,v0,-20080
ffffffffa0809254:	24060005 	li	a2,5
ffffffffa0809258:	0c2020fa 	jal	ffffffffa08083e8 <memcmp>
ffffffffa080925c:	00000000 	nop
ffffffffa0809260:	1440002c 	bnez	v0,ffffffffa0809314 <test_shell+0x358>
ffffffffa0809264:	00000000 	nop
ffffffffa0809268:	83c200a5 	lb	v0,165(s8)
ffffffffa080926c:	14400029 	bnez	v0,ffffffffa0809314 <test_shell+0x358>
ffffffffa0809270:	00000000 	nop
ffffffffa0809274:	24040012 	li	a0,18
ffffffffa0809278:	24050029 	li	a1,41
ffffffffa080927c:	0c201527 	jal	ffffffffa080549c <screen_clear_shell>
ffffffffa0809280:	00000000 	nop
ffffffffa0809284:	0000202d 	move	a0,zero
ffffffffa0809288:	24050012 	li	a1,18
ffffffffa080928c:	0c20156c 	jal	ffffffffa08055b0 <screen_move_cursor>
ffffffffa0809290:	00000000 	nop
ffffffffa0809294:	3c020000 	lui	v0,0x0
ffffffffa0809298:	64420000 	daddiu	v0,v0,0
ffffffffa080929c:	00021438 	dsll	v0,v0,0x10
ffffffffa08092a0:	6442a081 	daddiu	v0,v0,-24447
ffffffffa08092a4:	00021438 	dsll	v0,v0,0x10
ffffffffa08092a8:	dc43b850 	ld	v1,-18352(v0)
ffffffffa08092ac:	3c020000 	lui	v0,0x0
ffffffffa08092b0:	64420000 	daddiu	v0,v0,0
ffffffffa08092b4:	00021438 	dsll	v0,v0,0x10
ffffffffa08092b8:	6442a081 	daddiu	v0,v0,-24447
ffffffffa08092bc:	00021438 	dsll	v0,v0,0x10
ffffffffa08092c0:	6444b170 	daddiu	a0,v0,-20112
ffffffffa08092c4:	0060282d 	move	a1,v1
ffffffffa08092c8:	0c2023af 	jal	ffffffffa0808ebc <kprintf>
ffffffffa08092cc:	00000000 	nop
ffffffffa08092d0:	3c020000 	lui	v0,0x0
ffffffffa08092d4:	64420000 	daddiu	v0,v0,0
ffffffffa08092d8:	00021438 	dsll	v0,v0,0x10
ffffffffa08092dc:	6442a081 	daddiu	v0,v0,-24447
ffffffffa08092e0:	00021438 	dsll	v0,v0,0x10
ffffffffa08092e4:	dc43b858 	ld	v1,-18344(v0)
ffffffffa08092e8:	3c020000 	lui	v0,0x0
ffffffffa08092ec:	64420000 	daddiu	v0,v0,0
ffffffffa08092f0:	00021438 	dsll	v0,v0,0x10
ffffffffa08092f4:	6442a081 	daddiu	v0,v0,-24447
ffffffffa08092f8:	00021438 	dsll	v0,v0,0x10
ffffffffa08092fc:	6444b178 	daddiu	a0,v0,-20104
ffffffffa0809300:	0060282d 	move	a1,v1
ffffffffa0809304:	0c2023af 	jal	ffffffffa0808ebc <kprintf>
ffffffffa0809308:	00000000 	nop
ffffffffa080930c:	0820293d 	j	ffffffffa080a4f4 <test_shell+0x1538>
ffffffffa0809310:	00000000 	nop
ffffffffa0809314:	67c200a0 	daddiu	v0,s8,160
ffffffffa0809318:	0040202d 	move	a0,v0
ffffffffa080931c:	3c020000 	lui	v0,0x0
ffffffffa0809320:	64420000 	daddiu	v0,v0,0
ffffffffa0809324:	00021438 	dsll	v0,v0,0x10
ffffffffa0809328:	6442a081 	daddiu	v0,v0,-24447
ffffffffa080932c:	00021438 	dsll	v0,v0,0x10
ffffffffa0809330:	6445b198 	daddiu	a1,v0,-20072
ffffffffa0809334:	24060009 	li	a2,9
ffffffffa0809338:	0c2020fa 	jal	ffffffffa08083e8 <memcmp>
ffffffffa080933c:	00000000 	nop
ffffffffa0809340:	1440002c 	bnez	v0,ffffffffa08093f4 <test_shell+0x438>
ffffffffa0809344:	00000000 	nop
ffffffffa0809348:	83c200a9 	lb	v0,169(s8)
ffffffffa080934c:	14400029 	bnez	v0,ffffffffa08093f4 <test_shell+0x438>
ffffffffa0809350:	00000000 	nop
ffffffffa0809354:	24040001 	li	a0,1
ffffffffa0809358:	24050029 	li	a1,41
ffffffffa080935c:	0c2014e2 	jal	ffffffffa0805388 <screen_clear>
ffffffffa0809360:	00000000 	nop
ffffffffa0809364:	0000202d 	move	a0,zero
ffffffffa0809368:	24050012 	li	a1,18
ffffffffa080936c:	0c20156c 	jal	ffffffffa08055b0 <screen_move_cursor>
ffffffffa0809370:	00000000 	nop
ffffffffa0809374:	3c020000 	lui	v0,0x0
ffffffffa0809378:	64420000 	daddiu	v0,v0,0
ffffffffa080937c:	00021438 	dsll	v0,v0,0x10
ffffffffa0809380:	6442a081 	daddiu	v0,v0,-24447
ffffffffa0809384:	00021438 	dsll	v0,v0,0x10
ffffffffa0809388:	dc43b850 	ld	v1,-18352(v0)
ffffffffa080938c:	3c020000 	lui	v0,0x0
ffffffffa0809390:	64420000 	daddiu	v0,v0,0
ffffffffa0809394:	00021438 	dsll	v0,v0,0x10
ffffffffa0809398:	6442a081 	daddiu	v0,v0,-24447
ffffffffa080939c:	00021438 	dsll	v0,v0,0x10
ffffffffa08093a0:	6444b170 	daddiu	a0,v0,-20112
ffffffffa08093a4:	0060282d 	move	a1,v1
ffffffffa08093a8:	0c2023af 	jal	ffffffffa0808ebc <kprintf>
ffffffffa08093ac:	00000000 	nop
ffffffffa08093b0:	3c020000 	lui	v0,0x0
ffffffffa08093b4:	64420000 	daddiu	v0,v0,0
ffffffffa08093b8:	00021438 	dsll	v0,v0,0x10
ffffffffa08093bc:	6442a081 	daddiu	v0,v0,-24447
ffffffffa08093c0:	00021438 	dsll	v0,v0,0x10
ffffffffa08093c4:	dc43b858 	ld	v1,-18344(v0)
ffffffffa08093c8:	3c020000 	lui	v0,0x0
ffffffffa08093cc:	64420000 	daddiu	v0,v0,0
ffffffffa08093d0:	00021438 	dsll	v0,v0,0x10
ffffffffa08093d4:	6442a081 	daddiu	v0,v0,-24447
ffffffffa08093d8:	00021438 	dsll	v0,v0,0x10
ffffffffa08093dc:	6444b178 	daddiu	a0,v0,-20104
ffffffffa08093e0:	0060282d 	move	a1,v1
ffffffffa08093e4:	0c2023af 	jal	ffffffffa0808ebc <kprintf>
ffffffffa08093e8:	00000000 	nop
ffffffffa08093ec:	0820293d 	j	ffffffffa080a4f4 <test_shell+0x1538>
ffffffffa08093f0:	00000000 	nop
ffffffffa08093f4:	67c200a0 	daddiu	v0,s8,160
ffffffffa08093f8:	0040202d 	move	a0,v0
ffffffffa08093fc:	3c020000 	lui	v0,0x0
ffffffffa0809400:	64420000 	daddiu	v0,v0,0
ffffffffa0809404:	00021438 	dsll	v0,v0,0x10
ffffffffa0809408:	6442a081 	daddiu	v0,v0,-24447
ffffffffa080940c:	00021438 	dsll	v0,v0,0x10
ffffffffa0809410:	6445b1a8 	daddiu	a1,v0,-20056
ffffffffa0809414:	24060004 	li	a2,4
ffffffffa0809418:	0c2020fa 	jal	ffffffffa08083e8 <memcmp>
ffffffffa080941c:	00000000 	nop
ffffffffa0809420:	1440004d 	bnez	v0,ffffffffa0809558 <test_shell+0x59c>
ffffffffa0809424:	00000000 	nop
ffffffffa0809428:	83c200a6 	lb	v0,166(s8)
ffffffffa080942c:	28420030 	slti	v0,v0,48
ffffffffa0809430:	14400011 	bnez	v0,ffffffffa0809478 <test_shell+0x4bc>
ffffffffa0809434:	00000000 	nop
ffffffffa0809438:	83c200a6 	lb	v0,166(s8)
ffffffffa080943c:	2842003a 	slti	v0,v0,58
ffffffffa0809440:	1040000d 	beqz	v0,ffffffffa0809478 <test_shell+0x4bc>
ffffffffa0809444:	00000000 	nop
ffffffffa0809448:	83c200a5 	lb	v0,165(s8)
ffffffffa080944c:	2442ffd0 	addiu	v0,v0,-48
ffffffffa0809450:	00021040 	sll	v0,v0,0x1
ffffffffa0809454:	00021880 	sll	v1,v0,0x2
ffffffffa0809458:	00431021 	addu	v0,v0,v1
ffffffffa080945c:	0040182d 	move	v1,v0
ffffffffa0809460:	83c200a6 	lb	v0,166(s8)
ffffffffa0809464:	00621021 	addu	v0,v1,v0
ffffffffa0809468:	2442ffd0 	addiu	v0,v0,-48
ffffffffa080946c:	afc20010 	sw	v0,16(s8)
ffffffffa0809470:	08202521 	j	ffffffffa0809484 <test_shell+0x4c8>
ffffffffa0809474:	00000000 	nop
ffffffffa0809478:	83c200a5 	lb	v0,165(s8)
ffffffffa080947c:	2442ffd0 	addiu	v0,v0,-48
ffffffffa0809480:	afc20010 	sw	v0,16(s8)
ffffffffa0809484:	8fc20010 	lw	v0,16(s8)
ffffffffa0809488:	18400007 	blez	v0,ffffffffa08094a8 <test_shell+0x4ec>
ffffffffa080948c:	00000000 	nop
ffffffffa0809490:	8fc20010 	lw	v0,16(s8)
ffffffffa0809494:	0040202d 	move	a0,v0
ffffffffa0809498:	0c201bd6 	jal	ffffffffa0806f58 <do_kill>
ffffffffa080949c:	00000000 	nop
ffffffffa08094a0:	0820252b 	j	ffffffffa08094ac <test_shell+0x4f0>
ffffffffa08094a4:	00000000 	nop
ffffffffa08094a8:	2402ffff 	li	v0,-1
ffffffffa08094ac:	afc2001c 	sw	v0,28(s8)
ffffffffa08094b0:	8fc2001c 	lw	v0,28(s8)
ffffffffa08094b4:	1440000d 	bnez	v0,ffffffffa08094ec <test_shell+0x530>
ffffffffa08094b8:	00000000 	nop
ffffffffa08094bc:	8fc30010 	lw	v1,16(s8)
ffffffffa08094c0:	3c020000 	lui	v0,0x0
ffffffffa08094c4:	64420000 	daddiu	v0,v0,0
ffffffffa08094c8:	00021438 	dsll	v0,v0,0x10
ffffffffa08094cc:	6442a081 	daddiu	v0,v0,-24447
ffffffffa08094d0:	00021438 	dsll	v0,v0,0x10
ffffffffa08094d4:	6444b1b0 	daddiu	a0,v0,-20048
ffffffffa08094d8:	0060282d 	move	a1,v1
ffffffffa08094dc:	0c2023af 	jal	ffffffffa0808ebc <kprintf>
ffffffffa08094e0:	00000000 	nop
ffffffffa08094e4:	08202545 	j	ffffffffa0809514 <test_shell+0x558>
ffffffffa08094e8:	00000000 	nop
ffffffffa08094ec:	8fc30010 	lw	v1,16(s8)
ffffffffa08094f0:	3c020000 	lui	v0,0x0
ffffffffa08094f4:	64420000 	daddiu	v0,v0,0
ffffffffa08094f8:	00021438 	dsll	v0,v0,0x10
ffffffffa08094fc:	6442a081 	daddiu	v0,v0,-24447
ffffffffa0809500:	00021438 	dsll	v0,v0,0x10
ffffffffa0809504:	6444b1d8 	daddiu	a0,v0,-20008
ffffffffa0809508:	0060282d 	move	a1,v1
ffffffffa080950c:	0c2023af 	jal	ffffffffa0808ebc <kprintf>
ffffffffa0809510:	00000000 	nop
ffffffffa0809514:	3c020000 	lui	v0,0x0
ffffffffa0809518:	64420000 	daddiu	v0,v0,0
ffffffffa080951c:	00021438 	dsll	v0,v0,0x10
ffffffffa0809520:	6442a081 	daddiu	v0,v0,-24447
ffffffffa0809524:	00021438 	dsll	v0,v0,0x10
ffffffffa0809528:	dc43b858 	ld	v1,-18344(v0)
ffffffffa080952c:	3c020000 	lui	v0,0x0
ffffffffa0809530:	64420000 	daddiu	v0,v0,0
ffffffffa0809534:	00021438 	dsll	v0,v0,0x10
ffffffffa0809538:	6442a081 	daddiu	v0,v0,-24447
ffffffffa080953c:	00021438 	dsll	v0,v0,0x10
ffffffffa0809540:	6444b178 	daddiu	a0,v0,-20104
ffffffffa0809544:	0060282d 	move	a1,v1
ffffffffa0809548:	0c2023af 	jal	ffffffffa0808ebc <kprintf>
ffffffffa080954c:	00000000 	nop
ffffffffa0809550:	0820293d 	j	ffffffffa080a4f4 <test_shell+0x1538>
ffffffffa0809554:	00000000 	nop
ffffffffa0809558:	67c200a0 	daddiu	v0,s8,160
ffffffffa080955c:	0040202d 	move	a0,v0
ffffffffa0809560:	3c020000 	lui	v0,0x0
ffffffffa0809564:	64420000 	daddiu	v0,v0,0
ffffffffa0809568:	00021438 	dsll	v0,v0,0x10
ffffffffa080956c:	6442a081 	daddiu	v0,v0,-24447
ffffffffa0809570:	00021438 	dsll	v0,v0,0x10
ffffffffa0809574:	6445b1f8 	daddiu	a1,v0,-19976
ffffffffa0809578:	24060004 	li	a2,4
ffffffffa080957c:	0c2020fa 	jal	ffffffffa08083e8 <memcmp>
ffffffffa0809580:	00000000 	nop
ffffffffa0809584:	1440004e 	bnez	v0,ffffffffa08096c0 <test_shell+0x704>
ffffffffa0809588:	00000000 	nop
ffffffffa080958c:	83c200a6 	lb	v0,166(s8)
ffffffffa0809590:	28420030 	slti	v0,v0,48
ffffffffa0809594:	14400011 	bnez	v0,ffffffffa08095dc <test_shell+0x620>
ffffffffa0809598:	00000000 	nop
ffffffffa080959c:	83c200a6 	lb	v0,166(s8)
ffffffffa08095a0:	2842003a 	slti	v0,v0,58
ffffffffa08095a4:	1040000d 	beqz	v0,ffffffffa08095dc <test_shell+0x620>
ffffffffa08095a8:	00000000 	nop
ffffffffa08095ac:	83c200a5 	lb	v0,165(s8)
ffffffffa08095b0:	2442ffd0 	addiu	v0,v0,-48
ffffffffa08095b4:	00021040 	sll	v0,v0,0x1
ffffffffa08095b8:	00021880 	sll	v1,v0,0x2
ffffffffa08095bc:	00431021 	addu	v0,v0,v1
ffffffffa08095c0:	0040182d 	move	v1,v0
ffffffffa08095c4:	83c200a6 	lb	v0,166(s8)
ffffffffa08095c8:	00621021 	addu	v0,v1,v0
ffffffffa08095cc:	2442ffd0 	addiu	v0,v0,-48
ffffffffa08095d0:	afc20014 	sw	v0,20(s8)
ffffffffa08095d4:	0820257a 	j	ffffffffa08095e8 <test_shell+0x62c>
ffffffffa08095d8:	00000000 	nop
ffffffffa08095dc:	83c200a5 	lb	v0,165(s8)
ffffffffa08095e0:	2442ffd0 	addiu	v0,v0,-48
ffffffffa08095e4:	afc20014 	sw	v0,20(s8)
ffffffffa08095e8:	8fc20014 	lw	v0,20(s8)
ffffffffa08095ec:	18400007 	blez	v0,ffffffffa080960c <test_shell+0x650>
ffffffffa08095f0:	00000000 	nop
ffffffffa08095f4:	8fc20014 	lw	v0,20(s8)
ffffffffa08095f8:	0040202d 	move	a0,v0
ffffffffa08095fc:	0c201c78 	jal	ffffffffa08071e0 <do_waitpid>
ffffffffa0809600:	00000000 	nop
ffffffffa0809604:	08202584 	j	ffffffffa0809610 <test_shell+0x654>
ffffffffa0809608:	00000000 	nop
ffffffffa080960c:	2402ffff 	li	v0,-1
ffffffffa0809610:	afc20020 	sw	v0,32(s8)
ffffffffa0809614:	8fc30020 	lw	v1,32(s8)
ffffffffa0809618:	2402ffff 	li	v0,-1
ffffffffa080961c:	1462000d 	bne	v1,v0,ffffffffa0809654 <test_shell+0x698>
ffffffffa0809620:	00000000 	nop
ffffffffa0809624:	8fc30014 	lw	v1,20(s8)
ffffffffa0809628:	3c020000 	lui	v0,0x0
ffffffffa080962c:	64420000 	daddiu	v0,v0,0
ffffffffa0809630:	00021438 	dsll	v0,v0,0x10
ffffffffa0809634:	6442a081 	daddiu	v0,v0,-24447
ffffffffa0809638:	00021438 	dsll	v0,v0,0x10
ffffffffa080963c:	6444b1d8 	daddiu	a0,v0,-20008
ffffffffa0809640:	0060282d 	move	a1,v1
ffffffffa0809644:	0c2023af 	jal	ffffffffa0808ebc <kprintf>
ffffffffa0809648:	00000000 	nop
ffffffffa080964c:	0820259f 	j	ffffffffa080967c <test_shell+0x6c0>
ffffffffa0809650:	00000000 	nop
ffffffffa0809654:	8fc30014 	lw	v1,20(s8)
ffffffffa0809658:	3c020000 	lui	v0,0x0
ffffffffa080965c:	64420000 	daddiu	v0,v0,0
ffffffffa0809660:	00021438 	dsll	v0,v0,0x10
ffffffffa0809664:	6442a081 	daddiu	v0,v0,-24447
ffffffffa0809668:	00021438 	dsll	v0,v0,0x10
ffffffffa080966c:	6444b200 	daddiu	a0,v0,-19968
ffffffffa0809670:	0060282d 	move	a1,v1
ffffffffa0809674:	0c2023af 	jal	ffffffffa0808ebc <kprintf>
ffffffffa0809678:	00000000 	nop
ffffffffa080967c:	3c020000 	lui	v0,0x0
ffffffffa0809680:	64420000 	daddiu	v0,v0,0
ffffffffa0809684:	00021438 	dsll	v0,v0,0x10
ffffffffa0809688:	6442a081 	daddiu	v0,v0,-24447
ffffffffa080968c:	00021438 	dsll	v0,v0,0x10
ffffffffa0809690:	dc43b858 	ld	v1,-18344(v0)
ffffffffa0809694:	3c020000 	lui	v0,0x0
ffffffffa0809698:	64420000 	daddiu	v0,v0,0
ffffffffa080969c:	00021438 	dsll	v0,v0,0x10
ffffffffa08096a0:	6442a081 	daddiu	v0,v0,-24447
ffffffffa08096a4:	00021438 	dsll	v0,v0,0x10
ffffffffa08096a8:	6444b178 	daddiu	a0,v0,-20104
ffffffffa08096ac:	0060282d 	move	a1,v1
ffffffffa08096b0:	0c2023af 	jal	ffffffffa0808ebc <kprintf>
ffffffffa08096b4:	00000000 	nop
ffffffffa08096b8:	0820293d 	j	ffffffffa080a4f4 <test_shell+0x1538>
ffffffffa08096bc:	00000000 	nop
ffffffffa08096c0:	67c200a0 	daddiu	v0,s8,160
ffffffffa08096c4:	0040202d 	move	a0,v0
ffffffffa08096c8:	3c020000 	lui	v0,0x0
ffffffffa08096cc:	64420000 	daddiu	v0,v0,0
ffffffffa08096d0:	00021438 	dsll	v0,v0,0x10
ffffffffa08096d4:	6442a081 	daddiu	v0,v0,-24447
ffffffffa08096d8:	00021438 	dsll	v0,v0,0x10
ffffffffa08096dc:	6445b220 	daddiu	a1,v0,-19936
ffffffffa08096e0:	24060006 	li	a2,6
ffffffffa08096e4:	0c2020fa 	jal	ffffffffa08083e8 <memcmp>
ffffffffa08096e8:	00000000 	nop
ffffffffa08096ec:	1440001a 	bnez	v0,ffffffffa0809758 <test_shell+0x79c>
ffffffffa08096f0:	00000000 	nop
ffffffffa08096f4:	3c020000 	lui	v0,0x0
ffffffffa08096f8:	64420000 	daddiu	v0,v0,0
ffffffffa08096fc:	00021438 	dsll	v0,v0,0x10
ffffffffa0809700:	6442a081 	daddiu	v0,v0,-24447
ffffffffa0809704:	00021438 	dsll	v0,v0,0x10
ffffffffa0809708:	6444b7f0 	daddiu	a0,v0,-18448
ffffffffa080970c:	0c201b8a 	jal	ffffffffa0806e28 <do_spawn>
ffffffffa0809710:	00000000 	nop
ffffffffa0809714:	3c020000 	lui	v0,0x0
ffffffffa0809718:	64420000 	daddiu	v0,v0,0
ffffffffa080971c:	00021438 	dsll	v0,v0,0x10
ffffffffa0809720:	6442a081 	daddiu	v0,v0,-24447
ffffffffa0809724:	00021438 	dsll	v0,v0,0x10
ffffffffa0809728:	dc43b858 	ld	v1,-18344(v0)
ffffffffa080972c:	3c020000 	lui	v0,0x0
ffffffffa0809730:	64420000 	daddiu	v0,v0,0
ffffffffa0809734:	00021438 	dsll	v0,v0,0x10
ffffffffa0809738:	6442a081 	daddiu	v0,v0,-24447
ffffffffa080973c:	00021438 	dsll	v0,v0,0x10
ffffffffa0809740:	6444b178 	daddiu	a0,v0,-20104
ffffffffa0809744:	0060282d 	move	a1,v1
ffffffffa0809748:	0c2023af 	jal	ffffffffa0808ebc <kprintf>
ffffffffa080974c:	00000000 	nop
ffffffffa0809750:	0820293d 	j	ffffffffa080a4f4 <test_shell+0x1538>
ffffffffa0809754:	00000000 	nop
ffffffffa0809758:	67c200a0 	daddiu	v0,s8,160
ffffffffa080975c:	0040202d 	move	a0,v0
ffffffffa0809760:	3c020000 	lui	v0,0x0
ffffffffa0809764:	64420000 	daddiu	v0,v0,0
ffffffffa0809768:	00021438 	dsll	v0,v0,0x10
ffffffffa080976c:	6442a081 	daddiu	v0,v0,-24447
ffffffffa0809770:	00021438 	dsll	v0,v0,0x10
ffffffffa0809774:	6445b228 	daddiu	a1,v0,-19928
ffffffffa0809778:	24060006 	li	a2,6
ffffffffa080977c:	0c2020fa 	jal	ffffffffa08083e8 <memcmp>
ffffffffa0809780:	00000000 	nop
ffffffffa0809784:	1440001a 	bnez	v0,ffffffffa08097f0 <test_shell+0x834>
ffffffffa0809788:	00000000 	nop
ffffffffa080978c:	3c020000 	lui	v0,0x0
ffffffffa0809790:	64420000 	daddiu	v0,v0,0
ffffffffa0809794:	00021438 	dsll	v0,v0,0x10
ffffffffa0809798:	6442a081 	daddiu	v0,v0,-24447
ffffffffa080979c:	00021438 	dsll	v0,v0,0x10
ffffffffa08097a0:	6444b820 	daddiu	a0,v0,-18400
ffffffffa08097a4:	0c201b8a 	jal	ffffffffa0806e28 <do_spawn>
ffffffffa08097a8:	00000000 	nop
ffffffffa08097ac:	3c020000 	lui	v0,0x0
ffffffffa08097b0:	64420000 	daddiu	v0,v0,0
ffffffffa08097b4:	00021438 	dsll	v0,v0,0x10
ffffffffa08097b8:	6442a081 	daddiu	v0,v0,-24447
ffffffffa08097bc:	00021438 	dsll	v0,v0,0x10
ffffffffa08097c0:	dc43b858 	ld	v1,-18344(v0)
ffffffffa08097c4:	3c020000 	lui	v0,0x0
ffffffffa08097c8:	64420000 	daddiu	v0,v0,0
ffffffffa08097cc:	00021438 	dsll	v0,v0,0x10
ffffffffa08097d0:	6442a081 	daddiu	v0,v0,-24447
ffffffffa08097d4:	00021438 	dsll	v0,v0,0x10
ffffffffa08097d8:	6444b178 	daddiu	a0,v0,-20104
ffffffffa08097dc:	0060282d 	move	a1,v1
ffffffffa08097e0:	0c2023af 	jal	ffffffffa0808ebc <kprintf>
ffffffffa08097e4:	00000000 	nop
ffffffffa08097e8:	0820293d 	j	ffffffffa080a4f4 <test_shell+0x1538>
ffffffffa08097ec:	00000000 	nop
ffffffffa08097f0:	67c200a0 	daddiu	v0,s8,160
ffffffffa08097f4:	0040202d 	move	a0,v0
ffffffffa08097f8:	3c020000 	lui	v0,0x0
ffffffffa08097fc:	64420000 	daddiu	v0,v0,0
ffffffffa0809800:	00021438 	dsll	v0,v0,0x10
ffffffffa0809804:	6442a081 	daddiu	v0,v0,-24447
ffffffffa0809808:	00021438 	dsll	v0,v0,0x10
ffffffffa080980c:	6445b230 	daddiu	a1,v0,-19920
ffffffffa0809810:	24060004 	li	a2,4
ffffffffa0809814:	0c2020fa 	jal	ffffffffa08083e8 <memcmp>
ffffffffa0809818:	00000000 	nop
ffffffffa080981c:	14400014 	bnez	v0,ffffffffa0809870 <test_shell+0x8b4>
ffffffffa0809820:	00000000 	nop
ffffffffa0809824:	0c201233 	jal	ffffffffa08048cc <init_fs>
ffffffffa0809828:	00000000 	nop
ffffffffa080982c:	3c020000 	lui	v0,0x0
ffffffffa0809830:	64420000 	daddiu	v0,v0,0
ffffffffa0809834:	00021438 	dsll	v0,v0,0x10
ffffffffa0809838:	6442a081 	daddiu	v0,v0,-24447
ffffffffa080983c:	00021438 	dsll	v0,v0,0x10
ffffffffa0809840:	dc43b858 	ld	v1,-18344(v0)
ffffffffa0809844:	3c020000 	lui	v0,0x0
ffffffffa0809848:	64420000 	daddiu	v0,v0,0
ffffffffa080984c:	00021438 	dsll	v0,v0,0x10
ffffffffa0809850:	6442a081 	daddiu	v0,v0,-24447
ffffffffa0809854:	00021438 	dsll	v0,v0,0x10
ffffffffa0809858:	6444b178 	daddiu	a0,v0,-20104
ffffffffa080985c:	0060282d 	move	a1,v1
ffffffffa0809860:	0c2023af 	jal	ffffffffa0808ebc <kprintf>
ffffffffa0809864:	00000000 	nop
ffffffffa0809868:	0820293d 	j	ffffffffa080a4f4 <test_shell+0x1538>
ffffffffa080986c:	00000000 	nop
ffffffffa0809870:	67c200a0 	daddiu	v0,s8,160
ffffffffa0809874:	0040202d 	move	a0,v0
ffffffffa0809878:	3c020000 	lui	v0,0x0
ffffffffa080987c:	64420000 	daddiu	v0,v0,0
ffffffffa0809880:	00021438 	dsll	v0,v0,0x10
ffffffffa0809884:	6442a081 	daddiu	v0,v0,-24447
ffffffffa0809888:	00021438 	dsll	v0,v0,0x10
ffffffffa080988c:	6445b238 	daddiu	a1,v0,-19912
ffffffffa0809890:	24060006 	li	a2,6
ffffffffa0809894:	0c2020fa 	jal	ffffffffa08083e8 <memcmp>
ffffffffa0809898:	00000000 	nop
ffffffffa080989c:	14400014 	bnez	v0,ffffffffa08098f0 <test_shell+0x934>
ffffffffa08098a0:	00000000 	nop
ffffffffa08098a4:	0c201160 	jal	ffffffffa0804580 <print_fs_info>
ffffffffa08098a8:	00000000 	nop
ffffffffa08098ac:	3c020000 	lui	v0,0x0
ffffffffa08098b0:	64420000 	daddiu	v0,v0,0
ffffffffa08098b4:	00021438 	dsll	v0,v0,0x10
ffffffffa08098b8:	6442a081 	daddiu	v0,v0,-24447
ffffffffa08098bc:	00021438 	dsll	v0,v0,0x10
ffffffffa08098c0:	dc43b858 	ld	v1,-18344(v0)
ffffffffa08098c4:	3c020000 	lui	v0,0x0
ffffffffa08098c8:	64420000 	daddiu	v0,v0,0
ffffffffa08098cc:	00021438 	dsll	v0,v0,0x10
ffffffffa08098d0:	6442a081 	daddiu	v0,v0,-24447
ffffffffa08098d4:	00021438 	dsll	v0,v0,0x10
ffffffffa08098d8:	6444b178 	daddiu	a0,v0,-20104
ffffffffa08098dc:	0060282d 	move	a1,v1
ffffffffa08098e0:	0c2023af 	jal	ffffffffa0808ebc <kprintf>
ffffffffa08098e4:	00000000 	nop
ffffffffa08098e8:	0820293d 	j	ffffffffa080a4f4 <test_shell+0x1538>
ffffffffa08098ec:	00000000 	nop
ffffffffa08098f0:	67c200a0 	daddiu	v0,s8,160
ffffffffa08098f4:	0040202d 	move	a0,v0
ffffffffa08098f8:	3c020000 	lui	v0,0x0
ffffffffa08098fc:	64420000 	daddiu	v0,v0,0
ffffffffa0809900:	00021438 	dsll	v0,v0,0x10
ffffffffa0809904:	6442a081 	daddiu	v0,v0,-24447
ffffffffa0809908:	00021438 	dsll	v0,v0,0x10
ffffffffa080990c:	6445b240 	daddiu	a1,v0,-19904
ffffffffa0809910:	24060002 	li	a2,2
ffffffffa0809914:	0c2020fa 	jal	ffffffffa08083e8 <memcmp>
ffffffffa0809918:	00000000 	nop
ffffffffa080991c:	14400036 	bnez	v0,ffffffffa08099f8 <test_shell+0xa3c>
ffffffffa0809920:	00000000 	nop
ffffffffa0809924:	24020003 	li	v0,3
ffffffffa0809928:	afc20008 	sw	v0,8(s8)
ffffffffa080992c:	08202658 	j	ffffffffa0809960 <test_shell+0x9a4>
ffffffffa0809930:	00000000 	nop
ffffffffa0809934:	8fc20004 	lw	v0,4(s8)
ffffffffa0809938:	24430001 	addiu	v1,v0,1
ffffffffa080993c:	afc30004 	sw	v1,4(s8)
ffffffffa0809940:	8fc30008 	lw	v1,8(s8)
ffffffffa0809944:	03c3182d 	daddu	v1,s8,v1
ffffffffa0809948:	806300a0 	lb	v1,160(v1)
ffffffffa080994c:	03c2102d 	daddu	v0,s8,v0
ffffffffa0809950:	a0430046 	sb	v1,70(v0)
ffffffffa0809954:	8fc20008 	lw	v0,8(s8)
ffffffffa0809958:	24420001 	addiu	v0,v0,1
ffffffffa080995c:	afc20008 	sw	v0,8(s8)
ffffffffa0809960:	8fc30008 	lw	v1,8(s8)
ffffffffa0809964:	8fc2000c 	lw	v0,12(s8)
ffffffffa0809968:	0062102a 	slt	v0,v1,v0
ffffffffa080996c:	1440fff1 	bnez	v0,ffffffffa0809934 <test_shell+0x978>
ffffffffa0809970:	00000000 	nop
ffffffffa0809974:	08202664 	j	ffffffffa0809990 <test_shell+0x9d4>
ffffffffa0809978:	00000000 	nop
ffffffffa080997c:	8fc20004 	lw	v0,4(s8)
ffffffffa0809980:	24430001 	addiu	v1,v0,1
ffffffffa0809984:	afc30004 	sw	v1,4(s8)
ffffffffa0809988:	03c2102d 	daddu	v0,s8,v0
ffffffffa080998c:	a0400046 	sb	zero,70(v0)
ffffffffa0809990:	8fc20004 	lw	v0,4(s8)
ffffffffa0809994:	2842001e 	slti	v0,v0,30
ffffffffa0809998:	1440fff8 	bnez	v0,ffffffffa080997c <test_shell+0x9c0>
ffffffffa080999c:	00000000 	nop
ffffffffa08099a0:	67c20028 	daddiu	v0,s8,40
ffffffffa08099a4:	6442001e 	daddiu	v0,v0,30
ffffffffa08099a8:	0040202d 	move	a0,v0
ffffffffa08099ac:	0c200681 	jal	ffffffffa0801a04 <enter_dir>
ffffffffa08099b0:	00000000 	nop
ffffffffa08099b4:	3c020000 	lui	v0,0x0
ffffffffa08099b8:	64420000 	daddiu	v0,v0,0
ffffffffa08099bc:	00021438 	dsll	v0,v0,0x10
ffffffffa08099c0:	6442a081 	daddiu	v0,v0,-24447
ffffffffa08099c4:	00021438 	dsll	v0,v0,0x10
ffffffffa08099c8:	dc43b858 	ld	v1,-18344(v0)
ffffffffa08099cc:	3c020000 	lui	v0,0x0
ffffffffa08099d0:	64420000 	daddiu	v0,v0,0
ffffffffa08099d4:	00021438 	dsll	v0,v0,0x10
ffffffffa08099d8:	6442a081 	daddiu	v0,v0,-24447
ffffffffa08099dc:	00021438 	dsll	v0,v0,0x10
ffffffffa08099e0:	6444b178 	daddiu	a0,v0,-20104
ffffffffa08099e4:	0060282d 	move	a1,v1
ffffffffa08099e8:	0c2023af 	jal	ffffffffa0808ebc <kprintf>
ffffffffa08099ec:	00000000 	nop
ffffffffa08099f0:	0820293d 	j	ffffffffa080a4f4 <test_shell+0x1538>
ffffffffa08099f4:	00000000 	nop
ffffffffa08099f8:	67c200a0 	daddiu	v0,s8,160
ffffffffa08099fc:	0040202d 	move	a0,v0
ffffffffa0809a00:	3c020000 	lui	v0,0x0
ffffffffa0809a04:	64420000 	daddiu	v0,v0,0
ffffffffa0809a08:	00021438 	dsll	v0,v0,0x10
ffffffffa0809a0c:	6442a081 	daddiu	v0,v0,-24447
ffffffffa0809a10:	00021438 	dsll	v0,v0,0x10
ffffffffa0809a14:	6445b248 	daddiu	a1,v0,-19896
ffffffffa0809a18:	24060005 	li	a2,5
ffffffffa0809a1c:	0c2020fa 	jal	ffffffffa08083e8 <memcmp>
ffffffffa0809a20:	00000000 	nop
ffffffffa0809a24:	14400036 	bnez	v0,ffffffffa0809b00 <test_shell+0xb44>
ffffffffa0809a28:	00000000 	nop
ffffffffa0809a2c:	24020006 	li	v0,6
ffffffffa0809a30:	afc20008 	sw	v0,8(s8)
ffffffffa0809a34:	0820269a 	j	ffffffffa0809a68 <test_shell+0xaac>
ffffffffa0809a38:	00000000 	nop
ffffffffa0809a3c:	8fc20004 	lw	v0,4(s8)
ffffffffa0809a40:	24430001 	addiu	v1,v0,1
ffffffffa0809a44:	afc30004 	sw	v1,4(s8)
ffffffffa0809a48:	8fc30008 	lw	v1,8(s8)
ffffffffa0809a4c:	03c3182d 	daddu	v1,s8,v1
ffffffffa0809a50:	806300a0 	lb	v1,160(v1)
ffffffffa0809a54:	03c2102d 	daddu	v0,s8,v0
ffffffffa0809a58:	a0430046 	sb	v1,70(v0)
ffffffffa0809a5c:	8fc20008 	lw	v0,8(s8)
ffffffffa0809a60:	24420001 	addiu	v0,v0,1
ffffffffa0809a64:	afc20008 	sw	v0,8(s8)
ffffffffa0809a68:	8fc30008 	lw	v1,8(s8)
ffffffffa0809a6c:	8fc2000c 	lw	v0,12(s8)
ffffffffa0809a70:	0062102a 	slt	v0,v1,v0
ffffffffa0809a74:	1440fff1 	bnez	v0,ffffffffa0809a3c <test_shell+0xa80>
ffffffffa0809a78:	00000000 	nop
ffffffffa0809a7c:	082026a6 	j	ffffffffa0809a98 <test_shell+0xadc>
ffffffffa0809a80:	00000000 	nop
ffffffffa0809a84:	8fc20004 	lw	v0,4(s8)
ffffffffa0809a88:	24430001 	addiu	v1,v0,1
ffffffffa0809a8c:	afc30004 	sw	v1,4(s8)
ffffffffa0809a90:	03c2102d 	daddu	v0,s8,v0
ffffffffa0809a94:	a0400046 	sb	zero,70(v0)
ffffffffa0809a98:	8fc20004 	lw	v0,4(s8)
ffffffffa0809a9c:	2842001e 	slti	v0,v0,30
ffffffffa0809aa0:	1440fff8 	bnez	v0,ffffffffa0809a84 <test_shell+0xac8>
ffffffffa0809aa4:	00000000 	nop
ffffffffa0809aa8:	67c20028 	daddiu	v0,s8,40
ffffffffa0809aac:	6442001e 	daddiu	v0,v0,30
ffffffffa0809ab0:	0040202d 	move	a0,v0
ffffffffa0809ab4:	0c200854 	jal	ffffffffa0802150 <mkdir>
ffffffffa0809ab8:	00000000 	nop
ffffffffa0809abc:	3c020000 	lui	v0,0x0
ffffffffa0809ac0:	64420000 	daddiu	v0,v0,0
ffffffffa0809ac4:	00021438 	dsll	v0,v0,0x10
ffffffffa0809ac8:	6442a081 	daddiu	v0,v0,-24447
ffffffffa0809acc:	00021438 	dsll	v0,v0,0x10
ffffffffa0809ad0:	dc43b858 	ld	v1,-18344(v0)
ffffffffa0809ad4:	3c020000 	lui	v0,0x0
ffffffffa0809ad8:	64420000 	daddiu	v0,v0,0
ffffffffa0809adc:	00021438 	dsll	v0,v0,0x10
ffffffffa0809ae0:	6442a081 	daddiu	v0,v0,-24447
ffffffffa0809ae4:	00021438 	dsll	v0,v0,0x10
ffffffffa0809ae8:	6444b178 	daddiu	a0,v0,-20104
ffffffffa0809aec:	0060282d 	move	a1,v1
ffffffffa0809af0:	0c2023af 	jal	ffffffffa0808ebc <kprintf>
ffffffffa0809af4:	00000000 	nop
ffffffffa0809af8:	0820293d 	j	ffffffffa080a4f4 <test_shell+0x1538>
ffffffffa0809afc:	00000000 	nop
ffffffffa0809b00:	67c200a0 	daddiu	v0,s8,160
ffffffffa0809b04:	0040202d 	move	a0,v0
ffffffffa0809b08:	3c020000 	lui	v0,0x0
ffffffffa0809b0c:	64420000 	daddiu	v0,v0,0
ffffffffa0809b10:	00021438 	dsll	v0,v0,0x10
ffffffffa0809b14:	6442a081 	daddiu	v0,v0,-24447
ffffffffa0809b18:	00021438 	dsll	v0,v0,0x10
ffffffffa0809b1c:	6445b250 	daddiu	a1,v0,-19888
ffffffffa0809b20:	24060005 	li	a2,5
ffffffffa0809b24:	0c2020fa 	jal	ffffffffa08083e8 <memcmp>
ffffffffa0809b28:	00000000 	nop
ffffffffa0809b2c:	14400036 	bnez	v0,ffffffffa0809c08 <test_shell+0xc4c>
ffffffffa0809b30:	00000000 	nop
ffffffffa0809b34:	24020006 	li	v0,6
ffffffffa0809b38:	afc20008 	sw	v0,8(s8)
ffffffffa0809b3c:	082026dc 	j	ffffffffa0809b70 <test_shell+0xbb4>
ffffffffa0809b40:	00000000 	nop
ffffffffa0809b44:	8fc20004 	lw	v0,4(s8)
ffffffffa0809b48:	24430001 	addiu	v1,v0,1
ffffffffa0809b4c:	afc30004 	sw	v1,4(s8)
ffffffffa0809b50:	8fc30008 	lw	v1,8(s8)
ffffffffa0809b54:	03c3182d 	daddu	v1,s8,v1
ffffffffa0809b58:	806300a0 	lb	v1,160(v1)
ffffffffa0809b5c:	03c2102d 	daddu	v0,s8,v0
ffffffffa0809b60:	a0430046 	sb	v1,70(v0)
ffffffffa0809b64:	8fc20008 	lw	v0,8(s8)
ffffffffa0809b68:	24420001 	addiu	v0,v0,1
ffffffffa0809b6c:	afc20008 	sw	v0,8(s8)
ffffffffa0809b70:	8fc30008 	lw	v1,8(s8)
ffffffffa0809b74:	8fc2000c 	lw	v0,12(s8)
ffffffffa0809b78:	0062102a 	slt	v0,v1,v0
ffffffffa0809b7c:	1440fff1 	bnez	v0,ffffffffa0809b44 <test_shell+0xb88>
ffffffffa0809b80:	00000000 	nop
ffffffffa0809b84:	082026e8 	j	ffffffffa0809ba0 <test_shell+0xbe4>
ffffffffa0809b88:	00000000 	nop
ffffffffa0809b8c:	8fc20004 	lw	v0,4(s8)
ffffffffa0809b90:	24430001 	addiu	v1,v0,1
ffffffffa0809b94:	afc30004 	sw	v1,4(s8)
ffffffffa0809b98:	03c2102d 	daddu	v0,s8,v0
ffffffffa0809b9c:	a0400046 	sb	zero,70(v0)
ffffffffa0809ba0:	8fc20004 	lw	v0,4(s8)
ffffffffa0809ba4:	2842001e 	slti	v0,v0,30
ffffffffa0809ba8:	1440fff8 	bnez	v0,ffffffffa0809b8c <test_shell+0xbd0>
ffffffffa0809bac:	00000000 	nop
ffffffffa0809bb0:	67c20028 	daddiu	v0,s8,40
ffffffffa0809bb4:	6442001e 	daddiu	v0,v0,30
ffffffffa0809bb8:	0040202d 	move	a0,v0
ffffffffa0809bbc:	0c20090c 	jal	ffffffffa0802430 <rmdir>
ffffffffa0809bc0:	00000000 	nop
ffffffffa0809bc4:	3c020000 	lui	v0,0x0
ffffffffa0809bc8:	64420000 	daddiu	v0,v0,0
ffffffffa0809bcc:	00021438 	dsll	v0,v0,0x10
ffffffffa0809bd0:	6442a081 	daddiu	v0,v0,-24447
ffffffffa0809bd4:	00021438 	dsll	v0,v0,0x10
ffffffffa0809bd8:	dc43b858 	ld	v1,-18344(v0)
ffffffffa0809bdc:	3c020000 	lui	v0,0x0
ffffffffa0809be0:	64420000 	daddiu	v0,v0,0
ffffffffa0809be4:	00021438 	dsll	v0,v0,0x10
ffffffffa0809be8:	6442a081 	daddiu	v0,v0,-24447
ffffffffa0809bec:	00021438 	dsll	v0,v0,0x10
ffffffffa0809bf0:	6444b178 	daddiu	a0,v0,-20104
ffffffffa0809bf4:	0060282d 	move	a1,v1
ffffffffa0809bf8:	0c2023af 	jal	ffffffffa0808ebc <kprintf>
ffffffffa0809bfc:	00000000 	nop
ffffffffa0809c00:	0820293d 	j	ffffffffa080a4f4 <test_shell+0x1538>
ffffffffa0809c04:	00000000 	nop
ffffffffa0809c08:	67c200a0 	daddiu	v0,s8,160
ffffffffa0809c0c:	0040202d 	move	a0,v0
ffffffffa0809c10:	3c020000 	lui	v0,0x0
ffffffffa0809c14:	64420000 	daddiu	v0,v0,0
ffffffffa0809c18:	00021438 	dsll	v0,v0,0x10
ffffffffa0809c1c:	6442a081 	daddiu	v0,v0,-24447
ffffffffa0809c20:	00021438 	dsll	v0,v0,0x10
ffffffffa0809c24:	6445b258 	daddiu	a1,v0,-19880
ffffffffa0809c28:	24060002 	li	a2,2
ffffffffa0809c2c:	0c2020fa 	jal	ffffffffa08083e8 <memcmp>
ffffffffa0809c30:	00000000 	nop
ffffffffa0809c34:	14400043 	bnez	v0,ffffffffa0809d44 <test_shell+0xd88>
ffffffffa0809c38:	00000000 	nop
ffffffffa0809c3c:	67c200a0 	daddiu	v0,s8,160
ffffffffa0809c40:	0040202d 	move	a0,v0
ffffffffa0809c44:	3c020000 	lui	v0,0x0
ffffffffa0809c48:	64420000 	daddiu	v0,v0,0
ffffffffa0809c4c:	00021438 	dsll	v0,v0,0x10
ffffffffa0809c50:	6442a081 	daddiu	v0,v0,-24447
ffffffffa0809c54:	00021438 	dsll	v0,v0,0x10
ffffffffa0809c58:	6445b250 	daddiu	a1,v0,-19888
ffffffffa0809c5c:	24060005 	li	a2,5
ffffffffa0809c60:	0c2020fa 	jal	ffffffffa08083e8 <memcmp>
ffffffffa0809c64:	00000000 	nop
ffffffffa0809c68:	10400036 	beqz	v0,ffffffffa0809d44 <test_shell+0xd88>
ffffffffa0809c6c:	00000000 	nop
ffffffffa0809c70:	24020003 	li	v0,3
ffffffffa0809c74:	afc20008 	sw	v0,8(s8)
ffffffffa0809c78:	0820272b 	j	ffffffffa0809cac <test_shell+0xcf0>
ffffffffa0809c7c:	00000000 	nop
ffffffffa0809c80:	8fc20004 	lw	v0,4(s8)
ffffffffa0809c84:	24430001 	addiu	v1,v0,1
ffffffffa0809c88:	afc30004 	sw	v1,4(s8)
ffffffffa0809c8c:	8fc30008 	lw	v1,8(s8)
ffffffffa0809c90:	03c3182d 	daddu	v1,s8,v1
ffffffffa0809c94:	806300a0 	lb	v1,160(v1)
ffffffffa0809c98:	03c2102d 	daddu	v0,s8,v0
ffffffffa0809c9c:	a0430046 	sb	v1,70(v0)
ffffffffa0809ca0:	8fc20008 	lw	v0,8(s8)
ffffffffa0809ca4:	24420001 	addiu	v0,v0,1
ffffffffa0809ca8:	afc20008 	sw	v0,8(s8)
ffffffffa0809cac:	8fc30008 	lw	v1,8(s8)
ffffffffa0809cb0:	8fc2000c 	lw	v0,12(s8)
ffffffffa0809cb4:	0062102a 	slt	v0,v1,v0
ffffffffa0809cb8:	1440fff1 	bnez	v0,ffffffffa0809c80 <test_shell+0xcc4>
ffffffffa0809cbc:	00000000 	nop
ffffffffa0809cc0:	08202737 	j	ffffffffa0809cdc <test_shell+0xd20>
ffffffffa0809cc4:	00000000 	nop
ffffffffa0809cc8:	8fc20004 	lw	v0,4(s8)
ffffffffa0809ccc:	24430001 	addiu	v1,v0,1
ffffffffa0809cd0:	afc30004 	sw	v1,4(s8)
ffffffffa0809cd4:	03c2102d 	daddu	v0,s8,v0
ffffffffa0809cd8:	a0400046 	sb	zero,70(v0)
ffffffffa0809cdc:	8fc20004 	lw	v0,4(s8)
ffffffffa0809ce0:	2842001e 	slti	v0,v0,30
ffffffffa0809ce4:	1440fff8 	bnez	v0,ffffffffa0809cc8 <test_shell+0xd0c>
ffffffffa0809ce8:	00000000 	nop
ffffffffa0809cec:	67c20028 	daddiu	v0,s8,40
ffffffffa0809cf0:	6442001e 	daddiu	v0,v0,30
ffffffffa0809cf4:	0040202d 	move	a0,v0
ffffffffa0809cf8:	0c2009eb 	jal	ffffffffa08027ac <rm>
ffffffffa0809cfc:	00000000 	nop
ffffffffa0809d00:	3c020000 	lui	v0,0x0
ffffffffa0809d04:	64420000 	daddiu	v0,v0,0
ffffffffa0809d08:	00021438 	dsll	v0,v0,0x10
ffffffffa0809d0c:	6442a081 	daddiu	v0,v0,-24447
ffffffffa0809d10:	00021438 	dsll	v0,v0,0x10
ffffffffa0809d14:	dc43b858 	ld	v1,-18344(v0)
ffffffffa0809d18:	3c020000 	lui	v0,0x0
ffffffffa0809d1c:	64420000 	daddiu	v0,v0,0
ffffffffa0809d20:	00021438 	dsll	v0,v0,0x10
ffffffffa0809d24:	6442a081 	daddiu	v0,v0,-24447
ffffffffa0809d28:	00021438 	dsll	v0,v0,0x10
ffffffffa0809d2c:	6444b178 	daddiu	a0,v0,-20104
ffffffffa0809d30:	0060282d 	move	a1,v1
ffffffffa0809d34:	0c2023af 	jal	ffffffffa0808ebc <kprintf>
ffffffffa0809d38:	00000000 	nop
ffffffffa0809d3c:	0820293d 	j	ffffffffa080a4f4 <test_shell+0x1538>
ffffffffa0809d40:	00000000 	nop
ffffffffa0809d44:	67c200a0 	daddiu	v0,s8,160
ffffffffa0809d48:	0040202d 	move	a0,v0
ffffffffa0809d4c:	3c020000 	lui	v0,0x0
ffffffffa0809d50:	64420000 	daddiu	v0,v0,0
ffffffffa0809d54:	00021438 	dsll	v0,v0,0x10
ffffffffa0809d58:	6442a081 	daddiu	v0,v0,-24447
ffffffffa0809d5c:	00021438 	dsll	v0,v0,0x10
ffffffffa0809d60:	6445b260 	daddiu	a1,v0,-19872
ffffffffa0809d64:	24060002 	li	a2,2
ffffffffa0809d68:	0c2020fa 	jal	ffffffffa08083e8 <memcmp>
ffffffffa0809d6c:	00000000 	nop
ffffffffa0809d70:	14400014 	bnez	v0,ffffffffa0809dc4 <test_shell+0xe08>
ffffffffa0809d74:	00000000 	nop
ffffffffa0809d78:	0c2007e9 	jal	ffffffffa0801fa4 <readdir>
ffffffffa0809d7c:	00000000 	nop
ffffffffa0809d80:	3c020000 	lui	v0,0x0
ffffffffa0809d84:	64420000 	daddiu	v0,v0,0
ffffffffa0809d88:	00021438 	dsll	v0,v0,0x10
ffffffffa0809d8c:	6442a081 	daddiu	v0,v0,-24447
ffffffffa0809d90:	00021438 	dsll	v0,v0,0x10
ffffffffa0809d94:	dc43b858 	ld	v1,-18344(v0)
ffffffffa0809d98:	3c020000 	lui	v0,0x0
ffffffffa0809d9c:	64420000 	daddiu	v0,v0,0
ffffffffa0809da0:	00021438 	dsll	v0,v0,0x10
ffffffffa0809da4:	6442a081 	daddiu	v0,v0,-24447
ffffffffa0809da8:	00021438 	dsll	v0,v0,0x10
ffffffffa0809dac:	6444b178 	daddiu	a0,v0,-20104
ffffffffa0809db0:	0060282d 	move	a1,v1
ffffffffa0809db4:	0c2023af 	jal	ffffffffa0808ebc <kprintf>
ffffffffa0809db8:	00000000 	nop
ffffffffa0809dbc:	0820293d 	j	ffffffffa080a4f4 <test_shell+0x1538>
ffffffffa0809dc0:	00000000 	nop
ffffffffa0809dc4:	67c200a0 	daddiu	v0,s8,160
ffffffffa0809dc8:	0040202d 	move	a0,v0
ffffffffa0809dcc:	3c020000 	lui	v0,0x0
ffffffffa0809dd0:	64420000 	daddiu	v0,v0,0
ffffffffa0809dd4:	00021438 	dsll	v0,v0,0x10
ffffffffa0809dd8:	6442a081 	daddiu	v0,v0,-24447
ffffffffa0809ddc:	00021438 	dsll	v0,v0,0x10
ffffffffa0809de0:	6445b268 	daddiu	a1,v0,-19864
ffffffffa0809de4:	24060005 	li	a2,5
ffffffffa0809de8:	0c2020fa 	jal	ffffffffa08083e8 <memcmp>
ffffffffa0809dec:	00000000 	nop
ffffffffa0809df0:	14400036 	bnez	v0,ffffffffa0809ecc <test_shell+0xf10>
ffffffffa0809df4:	00000000 	nop
ffffffffa0809df8:	24020006 	li	v0,6
ffffffffa0809dfc:	afc20008 	sw	v0,8(s8)
ffffffffa0809e00:	0820278d 	j	ffffffffa0809e34 <test_shell+0xe78>
ffffffffa0809e04:	00000000 	nop
ffffffffa0809e08:	8fc20004 	lw	v0,4(s8)
ffffffffa0809e0c:	24430001 	addiu	v1,v0,1
ffffffffa0809e10:	afc30004 	sw	v1,4(s8)
ffffffffa0809e14:	8fc30008 	lw	v1,8(s8)
ffffffffa0809e18:	03c3182d 	daddu	v1,s8,v1
ffffffffa0809e1c:	806300a0 	lb	v1,160(v1)
ffffffffa0809e20:	03c2102d 	daddu	v0,s8,v0
ffffffffa0809e24:	a0430046 	sb	v1,70(v0)
ffffffffa0809e28:	8fc20008 	lw	v0,8(s8)
ffffffffa0809e2c:	24420001 	addiu	v0,v0,1
ffffffffa0809e30:	afc20008 	sw	v0,8(s8)
ffffffffa0809e34:	8fc30008 	lw	v1,8(s8)
ffffffffa0809e38:	8fc2000c 	lw	v0,12(s8)
ffffffffa0809e3c:	0062102a 	slt	v0,v1,v0
ffffffffa0809e40:	1440fff1 	bnez	v0,ffffffffa0809e08 <test_shell+0xe4c>
ffffffffa0809e44:	00000000 	nop
ffffffffa0809e48:	08202799 	j	ffffffffa0809e64 <test_shell+0xea8>
ffffffffa0809e4c:	00000000 	nop
ffffffffa0809e50:	8fc20004 	lw	v0,4(s8)
ffffffffa0809e54:	24430001 	addiu	v1,v0,1
ffffffffa0809e58:	afc30004 	sw	v1,4(s8)
ffffffffa0809e5c:	03c2102d 	daddu	v0,s8,v0
ffffffffa0809e60:	a0400046 	sb	zero,70(v0)
ffffffffa0809e64:	8fc20004 	lw	v0,4(s8)
ffffffffa0809e68:	2842001e 	slti	v0,v0,30
ffffffffa0809e6c:	1440fff8 	bnez	v0,ffffffffa0809e50 <test_shell+0xe94>
ffffffffa0809e70:	00000000 	nop
ffffffffa0809e74:	67c20028 	daddiu	v0,s8,40
ffffffffa0809e78:	6442001e 	daddiu	v0,v0,30
ffffffffa0809e7c:	0040202d 	move	a0,v0
ffffffffa0809e80:	0c200aca 	jal	ffffffffa0802b28 <mknod>
ffffffffa0809e84:	00000000 	nop
ffffffffa0809e88:	3c020000 	lui	v0,0x0
ffffffffa0809e8c:	64420000 	daddiu	v0,v0,0
ffffffffa0809e90:	00021438 	dsll	v0,v0,0x10
ffffffffa0809e94:	6442a081 	daddiu	v0,v0,-24447
ffffffffa0809e98:	00021438 	dsll	v0,v0,0x10
ffffffffa0809e9c:	dc43b858 	ld	v1,-18344(v0)
ffffffffa0809ea0:	3c020000 	lui	v0,0x0
ffffffffa0809ea4:	64420000 	daddiu	v0,v0,0
ffffffffa0809ea8:	00021438 	dsll	v0,v0,0x10
ffffffffa0809eac:	6442a081 	daddiu	v0,v0,-24447
ffffffffa0809eb0:	00021438 	dsll	v0,v0,0x10
ffffffffa0809eb4:	6444b178 	daddiu	a0,v0,-20104
ffffffffa0809eb8:	0060282d 	move	a1,v1
ffffffffa0809ebc:	0c2023af 	jal	ffffffffa0808ebc <kprintf>
ffffffffa0809ec0:	00000000 	nop
ffffffffa0809ec4:	0820293d 	j	ffffffffa080a4f4 <test_shell+0x1538>
ffffffffa0809ec8:	00000000 	nop
ffffffffa0809ecc:	67c200a0 	daddiu	v0,s8,160
ffffffffa0809ed0:	0040202d 	move	a0,v0
ffffffffa0809ed4:	3c020000 	lui	v0,0x0
ffffffffa0809ed8:	64420000 	daddiu	v0,v0,0
ffffffffa0809edc:	00021438 	dsll	v0,v0,0x10
ffffffffa0809ee0:	6442a081 	daddiu	v0,v0,-24447
ffffffffa0809ee4:	00021438 	dsll	v0,v0,0x10
ffffffffa0809ee8:	6445b270 	daddiu	a1,v0,-19856
ffffffffa0809eec:	24060003 	li	a2,3
ffffffffa0809ef0:	0c2020fa 	jal	ffffffffa08083e8 <memcmp>
ffffffffa0809ef4:	00000000 	nop
ffffffffa0809ef8:	14400036 	bnez	v0,ffffffffa0809fd4 <test_shell+0x1018>
ffffffffa0809efc:	00000000 	nop
ffffffffa0809f00:	24020004 	li	v0,4
ffffffffa0809f04:	afc20008 	sw	v0,8(s8)
ffffffffa0809f08:	082027cf 	j	ffffffffa0809f3c <test_shell+0xf80>
ffffffffa0809f0c:	00000000 	nop
ffffffffa0809f10:	8fc20004 	lw	v0,4(s8)
ffffffffa0809f14:	24430001 	addiu	v1,v0,1
ffffffffa0809f18:	afc30004 	sw	v1,4(s8)
ffffffffa0809f1c:	8fc30008 	lw	v1,8(s8)
ffffffffa0809f20:	03c3182d 	daddu	v1,s8,v1
ffffffffa0809f24:	806300a0 	lb	v1,160(v1)
ffffffffa0809f28:	03c2102d 	daddu	v0,s8,v0
ffffffffa0809f2c:	a0430046 	sb	v1,70(v0)
ffffffffa0809f30:	8fc20008 	lw	v0,8(s8)
ffffffffa0809f34:	24420001 	addiu	v0,v0,1
ffffffffa0809f38:	afc20008 	sw	v0,8(s8)
ffffffffa0809f3c:	8fc30008 	lw	v1,8(s8)
ffffffffa0809f40:	8fc2000c 	lw	v0,12(s8)
ffffffffa0809f44:	0062102a 	slt	v0,v1,v0
ffffffffa0809f48:	1440fff1 	bnez	v0,ffffffffa0809f10 <test_shell+0xf54>
ffffffffa0809f4c:	00000000 	nop
ffffffffa0809f50:	082027db 	j	ffffffffa0809f6c <test_shell+0xfb0>
ffffffffa0809f54:	00000000 	nop
ffffffffa0809f58:	8fc20004 	lw	v0,4(s8)
ffffffffa0809f5c:	24430001 	addiu	v1,v0,1
ffffffffa0809f60:	afc30004 	sw	v1,4(s8)
ffffffffa0809f64:	03c2102d 	daddu	v0,s8,v0
ffffffffa0809f68:	a0400046 	sb	zero,70(v0)
ffffffffa0809f6c:	8fc20004 	lw	v0,4(s8)
ffffffffa0809f70:	2842001e 	slti	v0,v0,30
ffffffffa0809f74:	1440fff8 	bnez	v0,ffffffffa0809f58 <test_shell+0xf9c>
ffffffffa0809f78:	00000000 	nop
ffffffffa0809f7c:	67c20028 	daddiu	v0,s8,40
ffffffffa0809f80:	6442001e 	daddiu	v0,v0,30
ffffffffa0809f84:	0040202d 	move	a0,v0
ffffffffa0809f88:	0c200f43 	jal	ffffffffa0803d0c <cat>
ffffffffa0809f8c:	00000000 	nop
ffffffffa0809f90:	3c020000 	lui	v0,0x0
ffffffffa0809f94:	64420000 	daddiu	v0,v0,0
ffffffffa0809f98:	00021438 	dsll	v0,v0,0x10
ffffffffa0809f9c:	6442a081 	daddiu	v0,v0,-24447
ffffffffa0809fa0:	00021438 	dsll	v0,v0,0x10
ffffffffa0809fa4:	dc43b858 	ld	v1,-18344(v0)
ffffffffa0809fa8:	3c020000 	lui	v0,0x0
ffffffffa0809fac:	64420000 	daddiu	v0,v0,0
ffffffffa0809fb0:	00021438 	dsll	v0,v0,0x10
ffffffffa0809fb4:	6442a081 	daddiu	v0,v0,-24447
ffffffffa0809fb8:	00021438 	dsll	v0,v0,0x10
ffffffffa0809fbc:	6444b178 	daddiu	a0,v0,-20104
ffffffffa0809fc0:	0060282d 	move	a1,v1
ffffffffa0809fc4:	0c2023af 	jal	ffffffffa0808ebc <kprintf>
ffffffffa0809fc8:	00000000 	nop
ffffffffa0809fcc:	0820293d 	j	ffffffffa080a4f4 <test_shell+0x1538>
ffffffffa0809fd0:	00000000 	nop
ffffffffa0809fd4:	67c200a0 	daddiu	v0,s8,160
ffffffffa0809fd8:	0040202d 	move	a0,v0
ffffffffa0809fdc:	3c020000 	lui	v0,0x0
ffffffffa0809fe0:	64420000 	daddiu	v0,v0,0
ffffffffa0809fe4:	00021438 	dsll	v0,v0,0x10
ffffffffa0809fe8:	6442a081 	daddiu	v0,v0,-24447
ffffffffa0809fec:	00021438 	dsll	v0,v0,0x10
ffffffffa0809ff0:	6445b278 	daddiu	a1,v0,-19848
ffffffffa0809ff4:	24060002 	li	a2,2
ffffffffa0809ff8:	0c2020fa 	jal	ffffffffa08083e8 <memcmp>
ffffffffa0809ffc:	00000000 	nop
ffffffffa080a000:	1440007e 	bnez	v0,ffffffffa080a1fc <test_shell+0x1240>
ffffffffa080a004:	00000000 	nop
ffffffffa080a008:	67c200a0 	daddiu	v0,s8,160
ffffffffa080a00c:	0040202d 	move	a0,v0
ffffffffa080a010:	3c020000 	lui	v0,0x0
ffffffffa080a014:	64420000 	daddiu	v0,v0,0
ffffffffa080a018:	00021438 	dsll	v0,v0,0x10
ffffffffa080a01c:	6442a081 	daddiu	v0,v0,-24447
ffffffffa080a020:	00021438 	dsll	v0,v0,0x10
ffffffffa080a024:	6445b280 	daddiu	a1,v0,-19840
ffffffffa080a028:	24060005 	li	a2,5
ffffffffa080a02c:	0c2020fa 	jal	ffffffffa08083e8 <memcmp>
ffffffffa080a030:	00000000 	nop
ffffffffa080a034:	10400071 	beqz	v0,ffffffffa080a1fc <test_shell+0x1240>
ffffffffa080a038:	00000000 	nop
ffffffffa080a03c:	24020003 	li	v0,3
ffffffffa080a040:	afc20008 	sw	v0,8(s8)
ffffffffa080a044:	08202826 	j	ffffffffa080a098 <test_shell+0x10dc>
ffffffffa080a048:	00000000 	nop
ffffffffa080a04c:	8fc20008 	lw	v0,8(s8)
ffffffffa080a050:	03c2102d 	daddu	v0,s8,v0
ffffffffa080a054:	804300a0 	lb	v1,160(v0)
ffffffffa080a058:	24020020 	li	v0,32
ffffffffa080a05c:	14620003 	bne	v1,v0,ffffffffa080a06c <test_shell+0x10b0>
ffffffffa080a060:	00000000 	nop
ffffffffa080a064:	0820282b 	j	ffffffffa080a0ac <test_shell+0x10f0>
ffffffffa080a068:	00000000 	nop
ffffffffa080a06c:	8fc20004 	lw	v0,4(s8)
ffffffffa080a070:	24430001 	addiu	v1,v0,1
ffffffffa080a074:	afc30004 	sw	v1,4(s8)
ffffffffa080a078:	8fc30008 	lw	v1,8(s8)
ffffffffa080a07c:	03c3182d 	daddu	v1,s8,v1
ffffffffa080a080:	806300a0 	lb	v1,160(v1)
ffffffffa080a084:	03c2102d 	daddu	v0,s8,v0
ffffffffa080a088:	a0430046 	sb	v1,70(v0)
ffffffffa080a08c:	8fc20008 	lw	v0,8(s8)
ffffffffa080a090:	24420001 	addiu	v0,v0,1
ffffffffa080a094:	afc20008 	sw	v0,8(s8)
ffffffffa080a098:	8fc30008 	lw	v1,8(s8)
ffffffffa080a09c:	8fc2000c 	lw	v0,12(s8)
ffffffffa080a0a0:	0062102a 	slt	v0,v1,v0
ffffffffa080a0a4:	1440ffe9 	bnez	v0,ffffffffa080a04c <test_shell+0x1090>
ffffffffa080a0a8:	00000000 	nop
ffffffffa080a0ac:	8fc20008 	lw	v0,8(s8)
ffffffffa080a0b0:	24420001 	addiu	v0,v0,1
ffffffffa080a0b4:	afc20008 	sw	v0,8(s8)
ffffffffa080a0b8:	0820283b 	j	ffffffffa080a0ec <test_shell+0x1130>
ffffffffa080a0bc:	00000000 	nop
ffffffffa080a0c0:	8fc20000 	lw	v0,0(s8)
ffffffffa080a0c4:	24430001 	addiu	v1,v0,1
ffffffffa080a0c8:	afc30000 	sw	v1,0(s8)
ffffffffa080a0cc:	8fc30008 	lw	v1,8(s8)
ffffffffa080a0d0:	03c3182d 	daddu	v1,s8,v1
ffffffffa080a0d4:	806300a0 	lb	v1,160(v1)
ffffffffa080a0d8:	03c2102d 	daddu	v0,s8,v0
ffffffffa080a0dc:	a0430064 	sb	v1,100(v0)
ffffffffa080a0e0:	8fc20008 	lw	v0,8(s8)
ffffffffa080a0e4:	24420001 	addiu	v0,v0,1
ffffffffa080a0e8:	afc20008 	sw	v0,8(s8)
ffffffffa080a0ec:	8fc30008 	lw	v1,8(s8)
ffffffffa080a0f0:	8fc2000c 	lw	v0,12(s8)
ffffffffa080a0f4:	0062102a 	slt	v0,v1,v0
ffffffffa080a0f8:	1440fff1 	bnez	v0,ffffffffa080a0c0 <test_shell+0x1104>
ffffffffa080a0fc:	00000000 	nop
ffffffffa080a100:	08202847 	j	ffffffffa080a11c <test_shell+0x1160>
ffffffffa080a104:	00000000 	nop
ffffffffa080a108:	8fc20004 	lw	v0,4(s8)
ffffffffa080a10c:	24430001 	addiu	v1,v0,1
ffffffffa080a110:	afc30004 	sw	v1,4(s8)
ffffffffa080a114:	03c2102d 	daddu	v0,s8,v0
ffffffffa080a118:	a0400046 	sb	zero,70(v0)
ffffffffa080a11c:	8fc20004 	lw	v0,4(s8)
ffffffffa080a120:	2842001e 	slti	v0,v0,30
ffffffffa080a124:	1440fff8 	bnez	v0,ffffffffa080a108 <test_shell+0x114c>
ffffffffa080a128:	00000000 	nop
ffffffffa080a12c:	08202852 	j	ffffffffa080a148 <test_shell+0x118c>
ffffffffa080a130:	00000000 	nop
ffffffffa080a134:	8fc20000 	lw	v0,0(s8)
ffffffffa080a138:	24430001 	addiu	v1,v0,1
ffffffffa080a13c:	afc30000 	sw	v1,0(s8)
ffffffffa080a140:	03c2102d 	daddu	v0,s8,v0
ffffffffa080a144:	a0400064 	sb	zero,100(v0)
ffffffffa080a148:	8fc20000 	lw	v0,0(s8)
ffffffffa080a14c:	2842001e 	slti	v0,v0,30
ffffffffa080a150:	1440fff8 	bnez	v0,ffffffffa080a134 <test_shell+0x1178>
ffffffffa080a154:	00000000 	nop
ffffffffa080a158:	67c20028 	daddiu	v0,s8,40
ffffffffa080a15c:	6443001e 	daddiu	v1,v0,30
ffffffffa080a160:	67c20028 	daddiu	v0,s8,40
ffffffffa080a164:	6442003c 	daddiu	v0,v0,60
ffffffffa080a168:	0060202d 	move	a0,v1
ffffffffa080a16c:	0040282d 	move	a1,v0
ffffffffa080a170:	0000302d 	move	a2,zero
ffffffffa080a174:	0c200fdf 	jal	ffffffffa0803f7c <do_link>
ffffffffa080a178:	00000000 	nop
ffffffffa080a17c:	1440000e 	bnez	v0,ffffffffa080a1b8 <test_shell+0x11fc>
ffffffffa080a180:	00000000 	nop
ffffffffa080a184:	67c20028 	daddiu	v0,s8,40
ffffffffa080a188:	6445003c 	daddiu	a1,v0,60
ffffffffa080a18c:	67c20028 	daddiu	v0,s8,40
ffffffffa080a190:	6443001e 	daddiu	v1,v0,30
ffffffffa080a194:	3c020000 	lui	v0,0x0
ffffffffa080a198:	64420000 	daddiu	v0,v0,0
ffffffffa080a19c:	00021438 	dsll	v0,v0,0x10
ffffffffa080a1a0:	6442a081 	daddiu	v0,v0,-24447
ffffffffa080a1a4:	00021438 	dsll	v0,v0,0x10
ffffffffa080a1a8:	6444b288 	daddiu	a0,v0,-19832
ffffffffa080a1ac:	0060302d 	move	a2,v1
ffffffffa080a1b0:	0c2023af 	jal	ffffffffa0808ebc <kprintf>
ffffffffa080a1b4:	00000000 	nop
ffffffffa080a1b8:	3c020000 	lui	v0,0x0
ffffffffa080a1bc:	64420000 	daddiu	v0,v0,0
ffffffffa080a1c0:	00021438 	dsll	v0,v0,0x10
ffffffffa080a1c4:	6442a081 	daddiu	v0,v0,-24447
ffffffffa080a1c8:	00021438 	dsll	v0,v0,0x10
ffffffffa080a1cc:	dc43b858 	ld	v1,-18344(v0)
ffffffffa080a1d0:	3c020000 	lui	v0,0x0
ffffffffa080a1d4:	64420000 	daddiu	v0,v0,0
ffffffffa080a1d8:	00021438 	dsll	v0,v0,0x10
ffffffffa080a1dc:	6442a081 	daddiu	v0,v0,-24447
ffffffffa080a1e0:	00021438 	dsll	v0,v0,0x10
ffffffffa080a1e4:	6444b178 	daddiu	a0,v0,-20104
ffffffffa080a1e8:	0060282d 	move	a1,v1
ffffffffa080a1ec:	0c2023af 	jal	ffffffffa0808ebc <kprintf>
ffffffffa080a1f0:	00000000 	nop
ffffffffa080a1f4:	0820293d 	j	ffffffffa080a4f4 <test_shell+0x1538>
ffffffffa080a1f8:	00000000 	nop
ffffffffa080a1fc:	67c200a0 	daddiu	v0,s8,160
ffffffffa080a200:	0040202d 	move	a0,v0
ffffffffa080a204:	3c020000 	lui	v0,0x0
ffffffffa080a208:	64420000 	daddiu	v0,v0,0
ffffffffa080a20c:	00021438 	dsll	v0,v0,0x10
ffffffffa080a210:	6442a081 	daddiu	v0,v0,-24447
ffffffffa080a214:	00021438 	dsll	v0,v0,0x10
ffffffffa080a218:	6445b280 	daddiu	a1,v0,-19840
ffffffffa080a21c:	24060005 	li	a2,5
ffffffffa080a220:	0c2020fa 	jal	ffffffffa08083e8 <memcmp>
ffffffffa080a224:	00000000 	nop
ffffffffa080a228:	14400071 	bnez	v0,ffffffffa080a3f0 <test_shell+0x1434>
ffffffffa080a22c:	00000000 	nop
ffffffffa080a230:	24020006 	li	v0,6
ffffffffa080a234:	afc20008 	sw	v0,8(s8)
ffffffffa080a238:	082028a3 	j	ffffffffa080a28c <test_shell+0x12d0>
ffffffffa080a23c:	00000000 	nop
ffffffffa080a240:	8fc20008 	lw	v0,8(s8)
ffffffffa080a244:	03c2102d 	daddu	v0,s8,v0
ffffffffa080a248:	804300a0 	lb	v1,160(v0)
ffffffffa080a24c:	24020020 	li	v0,32
ffffffffa080a250:	14620003 	bne	v1,v0,ffffffffa080a260 <test_shell+0x12a4>
ffffffffa080a254:	00000000 	nop
ffffffffa080a258:	082028a8 	j	ffffffffa080a2a0 <test_shell+0x12e4>
ffffffffa080a25c:	00000000 	nop
ffffffffa080a260:	8fc20004 	lw	v0,4(s8)
ffffffffa080a264:	24430001 	addiu	v1,v0,1
ffffffffa080a268:	afc30004 	sw	v1,4(s8)
ffffffffa080a26c:	8fc30008 	lw	v1,8(s8)
ffffffffa080a270:	03c3182d 	daddu	v1,s8,v1
ffffffffa080a274:	806300a0 	lb	v1,160(v1)
ffffffffa080a278:	03c2102d 	daddu	v0,s8,v0
ffffffffa080a27c:	a0430046 	sb	v1,70(v0)
ffffffffa080a280:	8fc20008 	lw	v0,8(s8)
ffffffffa080a284:	24420001 	addiu	v0,v0,1
ffffffffa080a288:	afc20008 	sw	v0,8(s8)
ffffffffa080a28c:	8fc30008 	lw	v1,8(s8)
ffffffffa080a290:	8fc2000c 	lw	v0,12(s8)
ffffffffa080a294:	0062102a 	slt	v0,v1,v0
ffffffffa080a298:	1440ffe9 	bnez	v0,ffffffffa080a240 <test_shell+0x1284>
ffffffffa080a29c:	00000000 	nop
ffffffffa080a2a0:	8fc20008 	lw	v0,8(s8)
ffffffffa080a2a4:	24420001 	addiu	v0,v0,1
ffffffffa080a2a8:	afc20008 	sw	v0,8(s8)
ffffffffa080a2ac:	082028b8 	j	ffffffffa080a2e0 <test_shell+0x1324>
ffffffffa080a2b0:	00000000 	nop
ffffffffa080a2b4:	8fc20000 	lw	v0,0(s8)
ffffffffa080a2b8:	24430001 	addiu	v1,v0,1
ffffffffa080a2bc:	afc30000 	sw	v1,0(s8)
ffffffffa080a2c0:	8fc30008 	lw	v1,8(s8)
ffffffffa080a2c4:	03c3182d 	daddu	v1,s8,v1
ffffffffa080a2c8:	806300a0 	lb	v1,160(v1)
ffffffffa080a2cc:	03c2102d 	daddu	v0,s8,v0
ffffffffa080a2d0:	a0430064 	sb	v1,100(v0)
ffffffffa080a2d4:	8fc20008 	lw	v0,8(s8)
ffffffffa080a2d8:	24420001 	addiu	v0,v0,1
ffffffffa080a2dc:	afc20008 	sw	v0,8(s8)
ffffffffa080a2e0:	8fc30008 	lw	v1,8(s8)
ffffffffa080a2e4:	8fc2000c 	lw	v0,12(s8)
ffffffffa080a2e8:	0062102a 	slt	v0,v1,v0
ffffffffa080a2ec:	1440fff1 	bnez	v0,ffffffffa080a2b4 <test_shell+0x12f8>
ffffffffa080a2f0:	00000000 	nop
ffffffffa080a2f4:	082028c4 	j	ffffffffa080a310 <test_shell+0x1354>
ffffffffa080a2f8:	00000000 	nop
ffffffffa080a2fc:	8fc20004 	lw	v0,4(s8)
ffffffffa080a300:	24430001 	addiu	v1,v0,1
ffffffffa080a304:	afc30004 	sw	v1,4(s8)
ffffffffa080a308:	03c2102d 	daddu	v0,s8,v0
ffffffffa080a30c:	a0400046 	sb	zero,70(v0)
ffffffffa080a310:	8fc20004 	lw	v0,4(s8)
ffffffffa080a314:	2842001e 	slti	v0,v0,30
ffffffffa080a318:	1440fff8 	bnez	v0,ffffffffa080a2fc <test_shell+0x1340>
ffffffffa080a31c:	00000000 	nop
ffffffffa080a320:	082028cf 	j	ffffffffa080a33c <test_shell+0x1380>
ffffffffa080a324:	00000000 	nop
ffffffffa080a328:	8fc20000 	lw	v0,0(s8)
ffffffffa080a32c:	24430001 	addiu	v1,v0,1
ffffffffa080a330:	afc30000 	sw	v1,0(s8)
ffffffffa080a334:	03c2102d 	daddu	v0,s8,v0
ffffffffa080a338:	a0400064 	sb	zero,100(v0)
ffffffffa080a33c:	8fc20000 	lw	v0,0(s8)
ffffffffa080a340:	2842001e 	slti	v0,v0,30
ffffffffa080a344:	1440fff8 	bnez	v0,ffffffffa080a328 <test_shell+0x136c>
ffffffffa080a348:	00000000 	nop
ffffffffa080a34c:	67c20028 	daddiu	v0,s8,40
ffffffffa080a350:	6443001e 	daddiu	v1,v0,30
ffffffffa080a354:	67c20028 	daddiu	v0,s8,40
ffffffffa080a358:	6442003c 	daddiu	v0,v0,60
ffffffffa080a35c:	0060202d 	move	a0,v1
ffffffffa080a360:	0040282d 	move	a1,v0
ffffffffa080a364:	24060001 	li	a2,1
ffffffffa080a368:	0c200fdf 	jal	ffffffffa0803f7c <do_link>
ffffffffa080a36c:	00000000 	nop
ffffffffa080a370:	1440000e 	bnez	v0,ffffffffa080a3ac <test_shell+0x13f0>
ffffffffa080a374:	00000000 	nop
ffffffffa080a378:	67c20028 	daddiu	v0,s8,40
ffffffffa080a37c:	6445003c 	daddiu	a1,v0,60
ffffffffa080a380:	67c20028 	daddiu	v0,s8,40
ffffffffa080a384:	6443001e 	daddiu	v1,v0,30
ffffffffa080a388:	3c020000 	lui	v0,0x0
ffffffffa080a38c:	64420000 	daddiu	v0,v0,0
ffffffffa080a390:	00021438 	dsll	v0,v0,0x10
ffffffffa080a394:	6442a081 	daddiu	v0,v0,-24447
ffffffffa080a398:	00021438 	dsll	v0,v0,0x10
ffffffffa080a39c:	6444b2b8 	daddiu	a0,v0,-19784
ffffffffa080a3a0:	0060302d 	move	a2,v1
ffffffffa080a3a4:	0c2023af 	jal	ffffffffa0808ebc <kprintf>
ffffffffa080a3a8:	00000000 	nop
ffffffffa080a3ac:	3c020000 	lui	v0,0x0
ffffffffa080a3b0:	64420000 	daddiu	v0,v0,0
ffffffffa080a3b4:	00021438 	dsll	v0,v0,0x10
ffffffffa080a3b8:	6442a081 	daddiu	v0,v0,-24447
ffffffffa080a3bc:	00021438 	dsll	v0,v0,0x10
ffffffffa080a3c0:	dc43b858 	ld	v1,-18344(v0)
ffffffffa080a3c4:	3c020000 	lui	v0,0x0
ffffffffa080a3c8:	64420000 	daddiu	v0,v0,0
ffffffffa080a3cc:	00021438 	dsll	v0,v0,0x10
ffffffffa080a3d0:	6442a081 	daddiu	v0,v0,-24447
ffffffffa080a3d4:	00021438 	dsll	v0,v0,0x10
ffffffffa080a3d8:	6444b178 	daddiu	a0,v0,-20104
ffffffffa080a3dc:	0060282d 	move	a1,v1
ffffffffa080a3e0:	0c2023af 	jal	ffffffffa0808ebc <kprintf>
ffffffffa080a3e4:	00000000 	nop
ffffffffa080a3e8:	0820293d 	j	ffffffffa080a4f4 <test_shell+0x1538>
ffffffffa080a3ec:	00000000 	nop
ffffffffa080a3f0:	67c200a0 	daddiu	v0,s8,160
ffffffffa080a3f4:	0040202d 	move	a0,v0
ffffffffa080a3f8:	3c020000 	lui	v0,0x0
ffffffffa080a3fc:	64420000 	daddiu	v0,v0,0
ffffffffa080a400:	00021438 	dsll	v0,v0,0x10
ffffffffa080a404:	6442a081 	daddiu	v0,v0,-24447
ffffffffa080a408:	00021438 	dsll	v0,v0,0x10
ffffffffa080a40c:	6445b2e8 	daddiu	a1,v0,-19736
ffffffffa080a410:	24060003 	li	a2,3
ffffffffa080a414:	0c2020fa 	jal	ffffffffa08083e8 <memcmp>
ffffffffa080a418:	00000000 	nop
ffffffffa080a41c:	1440001e 	bnez	v0,ffffffffa080a498 <test_shell+0x14dc>
ffffffffa080a420:	00000000 	nop
ffffffffa080a424:	0c2000b6 	jal	ffffffffa08002d8 <do_scheduler>
ffffffffa080a428:	00000000 	nop
ffffffffa080a42c:	0c2023d8 	jal	ffffffffa0808f60 <read_uart_ch>
ffffffffa080a430:	00000000 	nop
ffffffffa080a434:	a3c20024 	sb	v0,36(s8)
ffffffffa080a438:	83c30024 	lb	v1,36(s8)
ffffffffa080a43c:	2402000d 	li	v0,13
ffffffffa080a440:	10620003 	beq	v1,v0,ffffffffa080a450 <test_shell+0x1494>
ffffffffa080a444:	00000000 	nop
ffffffffa080a448:	08202909 	j	ffffffffa080a424 <test_shell+0x1468>
ffffffffa080a44c:	00000000 	nop
ffffffffa080a450:	00000000 	nop
ffffffffa080a454:	3c020000 	lui	v0,0x0
ffffffffa080a458:	64420000 	daddiu	v0,v0,0
ffffffffa080a45c:	00021438 	dsll	v0,v0,0x10
ffffffffa080a460:	6442a081 	daddiu	v0,v0,-24447
ffffffffa080a464:	00021438 	dsll	v0,v0,0x10
ffffffffa080a468:	dc43b858 	ld	v1,-18344(v0)
ffffffffa080a46c:	3c020000 	lui	v0,0x0
ffffffffa080a470:	64420000 	daddiu	v0,v0,0
ffffffffa080a474:	00021438 	dsll	v0,v0,0x10
ffffffffa080a478:	6442a081 	daddiu	v0,v0,-24447
ffffffffa080a47c:	00021438 	dsll	v0,v0,0x10
ffffffffa080a480:	6444b178 	daddiu	a0,v0,-20104
ffffffffa080a484:	0060282d 	move	a1,v1
ffffffffa080a488:	0c2023af 	jal	ffffffffa0808ebc <kprintf>
ffffffffa080a48c:	00000000 	nop
ffffffffa080a490:	0820293d 	j	ffffffffa080a4f4 <test_shell+0x1538>
ffffffffa080a494:	00000000 	nop
ffffffffa080a498:	3c020000 	lui	v0,0x0
ffffffffa080a49c:	64420000 	daddiu	v0,v0,0
ffffffffa080a4a0:	00021438 	dsll	v0,v0,0x10
ffffffffa080a4a4:	6442a081 	daddiu	v0,v0,-24447
ffffffffa080a4a8:	00021438 	dsll	v0,v0,0x10
ffffffffa080a4ac:	6444b2f0 	daddiu	a0,v0,-19728
ffffffffa080a4b0:	0c2023af 	jal	ffffffffa0808ebc <kprintf>
ffffffffa080a4b4:	00000000 	nop
ffffffffa080a4b8:	3c020000 	lui	v0,0x0
ffffffffa080a4bc:	64420000 	daddiu	v0,v0,0
ffffffffa080a4c0:	00021438 	dsll	v0,v0,0x10
ffffffffa080a4c4:	6442a081 	daddiu	v0,v0,-24447
ffffffffa080a4c8:	00021438 	dsll	v0,v0,0x10
ffffffffa080a4cc:	dc43b858 	ld	v1,-18344(v0)
ffffffffa080a4d0:	3c020000 	lui	v0,0x0
ffffffffa080a4d4:	64420000 	daddiu	v0,v0,0
ffffffffa080a4d8:	00021438 	dsll	v0,v0,0x10
ffffffffa080a4dc:	6442a081 	daddiu	v0,v0,-24447
ffffffffa080a4e0:	00021438 	dsll	v0,v0,0x10
ffffffffa080a4e4:	6444b178 	daddiu	a0,v0,-20104
ffffffffa080a4e8:	0060282d 	move	a1,v1
ffffffffa080a4ec:	0c2023af 	jal	ffffffffa0808ebc <kprintf>
ffffffffa080a4f0:	00000000 	nop
ffffffffa080a4f4:	afc0000c 	sw	zero,12(s8)
ffffffffa080a4f8:	afc00004 	sw	zero,4(s8)
ffffffffa080a4fc:	afc00000 	sw	zero,0(s8)
ffffffffa080a500:	0c2000b6 	jal	ffffffffa08002d8 <do_scheduler>
ffffffffa080a504:	00000000 	nop
ffffffffa080a508:	08202420 	j	ffffffffa0809080 <test_shell+0xc4>
ffffffffa080a50c:	00000000 	nop

ffffffffa080a510 <test_fs>:
ffffffffa080a510:	67bdffe0 	daddiu	sp,sp,-32
ffffffffa080a514:	ffbf0018 	sd	ra,24(sp)
ffffffffa080a518:	ffbe0010 	sd	s8,16(sp)
ffffffffa080a51c:	03a0f02d 	move	s8,sp
ffffffffa080a520:	3c020000 	lui	v0,0x0
ffffffffa080a524:	64420000 	daddiu	v0,v0,0
ffffffffa080a528:	00021438 	dsll	v0,v0,0x10
ffffffffa080a52c:	6442a081 	daddiu	v0,v0,-24447
ffffffffa080a530:	00021438 	dsll	v0,v0,0x10
ffffffffa080a534:	6444b310 	daddiu	a0,v0,-19696
ffffffffa080a538:	24050003 	li	a1,3
ffffffffa080a53c:	0c200ba4 	jal	ffffffffa0802e90 <open>
ffffffffa080a540:	00000000 	nop
ffffffffa080a544:	afc20008 	sw	v0,8(s8)
ffffffffa080a548:	afc00000 	sw	zero,0(s8)
ffffffffa080a54c:	08202966 	j	ffffffffa080a598 <test_fs+0x88>
ffffffffa080a550:	00000000 	nop
ffffffffa080a554:	8fc20008 	lw	v0,8(s8)
ffffffffa080a558:	0040202d 	move	a0,v0
ffffffffa080a55c:	3c020000 	lui	v0,0x0
ffffffffa080a560:	64420000 	daddiu	v0,v0,0
ffffffffa080a564:	00021438 	dsll	v0,v0,0x10
ffffffffa080a568:	6442a081 	daddiu	v0,v0,-24447
ffffffffa080a56c:	00021438 	dsll	v0,v0,0x10
ffffffffa080a570:	6445b318 	daddiu	a1,v0,-19688
ffffffffa080a574:	2406000d 	li	a2,13
ffffffffa080a578:	0000382d 	move	a3,zero
ffffffffa080a57c:	0c200c35 	jal	ffffffffa08030d4 <write>
ffffffffa080a580:	00000000 	nop
ffffffffa080a584:	0c2000b6 	jal	ffffffffa08002d8 <do_scheduler>
ffffffffa080a588:	00000000 	nop
ffffffffa080a58c:	8fc20000 	lw	v0,0(s8)
ffffffffa080a590:	24420001 	addiu	v0,v0,1
ffffffffa080a594:	afc20000 	sw	v0,0(s8)
ffffffffa080a598:	8fc20000 	lw	v0,0(s8)
ffffffffa080a59c:	2842000a 	slti	v0,v0,10
ffffffffa080a5a0:	1440ffec 	bnez	v0,ffffffffa080a554 <test_fs+0x44>
ffffffffa080a5a4:	00000000 	nop
ffffffffa080a5a8:	0000202d 	move	a0,zero
ffffffffa080a5ac:	24050001 	li	a1,1
ffffffffa080a5b0:	0c20131c 	jal	ffffffffa0804c70 <vt100_move_cursor>
ffffffffa080a5b4:	00000000 	nop
ffffffffa080a5b8:	afc00000 	sw	zero,0(s8)
ffffffffa080a5bc:	0820299f 	j	ffffffffa080a67c <test_fs+0x16c>
ffffffffa080a5c0:	00000000 	nop
ffffffffa080a5c4:	8fc20008 	lw	v0,8(s8)
ffffffffa080a5c8:	0040202d 	move	a0,v0
ffffffffa080a5cc:	3c020000 	lui	v0,0x0
ffffffffa080a5d0:	64420000 	daddiu	v0,v0,0
ffffffffa080a5d4:	00021438 	dsll	v0,v0,0x10
ffffffffa080a5d8:	6442a081 	daddiu	v0,v0,-24447
ffffffffa080a5dc:	00021438 	dsll	v0,v0,0x10
ffffffffa080a5e0:	644535f0 	daddiu	a1,v0,13808
ffffffffa080a5e4:	2406000d 	li	a2,13
ffffffffa080a5e8:	0000382d 	move	a3,zero
ffffffffa080a5ec:	0c200dcd 	jal	ffffffffa0803734 <read>
ffffffffa080a5f0:	00000000 	nop
ffffffffa080a5f4:	0c2000b6 	jal	ffffffffa08002d8 <do_scheduler>
ffffffffa080a5f8:	00000000 	nop
ffffffffa080a5fc:	afc00004 	sw	zero,4(s8)
ffffffffa080a600:	08202998 	j	ffffffffa080a660 <test_fs+0x150>
ffffffffa080a604:	00000000 	nop
ffffffffa080a608:	3c020000 	lui	v0,0x0
ffffffffa080a60c:	64420000 	daddiu	v0,v0,0
ffffffffa080a610:	00021438 	dsll	v0,v0,0x10
ffffffffa080a614:	6442a081 	daddiu	v0,v0,-24447
ffffffffa080a618:	00021438 	dsll	v0,v0,0x10
ffffffffa080a61c:	8fc30004 	lw	v1,4(s8)
ffffffffa080a620:	644235f0 	daddiu	v0,v0,13808
ffffffffa080a624:	0062102d 	daddu	v0,v1,v0
ffffffffa080a628:	80420000 	lb	v0,0(v0)
ffffffffa080a62c:	0040182d 	move	v1,v0
ffffffffa080a630:	3c020000 	lui	v0,0x0
ffffffffa080a634:	64420000 	daddiu	v0,v0,0
ffffffffa080a638:	00021438 	dsll	v0,v0,0x10
ffffffffa080a63c:	6442a081 	daddiu	v0,v0,-24447
ffffffffa080a640:	00021438 	dsll	v0,v0,0x10
ffffffffa080a644:	6444b328 	daddiu	a0,v0,-19672
ffffffffa080a648:	0060282d 	move	a1,v1
ffffffffa080a64c:	0c202363 	jal	ffffffffa0808d8c <printk>
ffffffffa080a650:	00000000 	nop
ffffffffa080a654:	8fc20004 	lw	v0,4(s8)
ffffffffa080a658:	24420001 	addiu	v0,v0,1
ffffffffa080a65c:	afc20004 	sw	v0,4(s8)
ffffffffa080a660:	8fc20004 	lw	v0,4(s8)
ffffffffa080a664:	2842000d 	slti	v0,v0,13
ffffffffa080a668:	1440ffe7 	bnez	v0,ffffffffa080a608 <test_fs+0xf8>
ffffffffa080a66c:	00000000 	nop
ffffffffa080a670:	8fc20000 	lw	v0,0(s8)
ffffffffa080a674:	24420001 	addiu	v0,v0,1
ffffffffa080a678:	afc20000 	sw	v0,0(s8)
ffffffffa080a67c:	8fc20000 	lw	v0,0(s8)
ffffffffa080a680:	2842000a 	slti	v0,v0,10
ffffffffa080a684:	1440ffcf 	bnez	v0,ffffffffa080a5c4 <test_fs+0xb4>
ffffffffa080a688:	00000000 	nop
ffffffffa080a68c:	8fc20008 	lw	v0,8(s8)
ffffffffa080a690:	0040202d 	move	a0,v0
ffffffffa080a694:	0c200ef3 	jal	ffffffffa0803bcc <close>
ffffffffa080a698:	00000000 	nop
ffffffffa080a69c:	0c201aff 	jal	ffffffffa0806bfc <do_exit>
ffffffffa080a6a0:	00000000 	nop
ffffffffa080a6a4:	03c0e82d 	move	sp,s8
ffffffffa080a6a8:	dfbf0018 	ld	ra,24(sp)
ffffffffa080a6ac:	dfbe0010 	ld	s8,16(sp)
ffffffffa080a6b0:	67bd0020 	daddiu	sp,sp,32
ffffffffa080a6b4:	03e00008 	jr	ra
ffffffffa080a6b8:	00000000 	nop

ffffffffa080a6bc <test_bf>:
ffffffffa080a6bc:	67bdefe0 	daddiu	sp,sp,-4128
ffffffffa080a6c0:	ffbf1018 	sd	ra,4120(sp)
ffffffffa080a6c4:	ffbe1010 	sd	s8,4112(sp)
ffffffffa080a6c8:	03a0f02d 	move	s8,sp
ffffffffa080a6cc:	afc00000 	sw	zero,0(s8)
ffffffffa080a6d0:	082029bd 	j	ffffffffa080a6f4 <test_bf+0x38>
ffffffffa080a6d4:	00000000 	nop
ffffffffa080a6d8:	8fc20000 	lw	v0,0(s8)
ffffffffa080a6dc:	03c2102d 	daddu	v0,s8,v0
ffffffffa080a6e0:	24030061 	li	v1,97
ffffffffa080a6e4:	a0430010 	sb	v1,16(v0)
ffffffffa080a6e8:	8fc20000 	lw	v0,0(s8)
ffffffffa080a6ec:	24420001 	addiu	v0,v0,1
ffffffffa080a6f0:	afc20000 	sw	v0,0(s8)
ffffffffa080a6f4:	8fc20000 	lw	v0,0(s8)
ffffffffa080a6f8:	28421000 	slti	v0,v0,4096
ffffffffa080a6fc:	1440fff6 	bnez	v0,ffffffffa080a6d8 <test_bf+0x1c>
ffffffffa080a700:	00000000 	nop
ffffffffa080a704:	3c020000 	lui	v0,0x0
ffffffffa080a708:	64420000 	daddiu	v0,v0,0
ffffffffa080a70c:	00021438 	dsll	v0,v0,0x10
ffffffffa080a710:	6442a081 	daddiu	v0,v0,-24447
ffffffffa080a714:	00021438 	dsll	v0,v0,0x10
ffffffffa080a718:	6444b330 	daddiu	a0,v0,-19664
ffffffffa080a71c:	24050003 	li	a1,3
ffffffffa080a720:	0c200ba4 	jal	ffffffffa0802e90 <open>
ffffffffa080a724:	00000000 	nop
ffffffffa080a728:	afc20008 	sw	v0,8(s8)
ffffffffa080a72c:	8fc30008 	lw	v1,8(s8)
ffffffffa080a730:	67c20010 	daddiu	v0,s8,16
ffffffffa080a734:	0060202d 	move	a0,v1
ffffffffa080a738:	0040282d 	move	a1,v0
ffffffffa080a73c:	24061000 	li	a2,4096
ffffffffa080a740:	0000382d 	move	a3,zero
ffffffffa080a744:	0c200c35 	jal	ffffffffa08030d4 <write>
ffffffffa080a748:	00000000 	nop
ffffffffa080a74c:	0000202d 	move	a0,zero
ffffffffa080a750:	24050001 	li	a1,1
ffffffffa080a754:	0c20131c 	jal	ffffffffa0804c70 <vt100_move_cursor>
ffffffffa080a758:	00000000 	nop
ffffffffa080a75c:	3c020000 	lui	v0,0x0
ffffffffa080a760:	64420000 	daddiu	v0,v0,0
ffffffffa080a764:	00021438 	dsll	v0,v0,0x10
ffffffffa080a768:	6442a081 	daddiu	v0,v0,-24447
ffffffffa080a76c:	00021438 	dsll	v0,v0,0x10
ffffffffa080a770:	6444b338 	daddiu	a0,v0,-19656
ffffffffa080a774:	0c202363 	jal	ffffffffa0808d8c <printk>
ffffffffa080a778:	00000000 	nop
ffffffffa080a77c:	8fc30008 	lw	v1,8(s8)
ffffffffa080a780:	67c20010 	daddiu	v0,s8,16
ffffffffa080a784:	0060202d 	move	a0,v1
ffffffffa080a788:	0040282d 	move	a1,v0
ffffffffa080a78c:	0000302d 	move	a2,zero
ffffffffa080a790:	240707fe 	li	a3,2046
ffffffffa080a794:	0c200c35 	jal	ffffffffa08030d4 <write>
ffffffffa080a798:	00000000 	nop
ffffffffa080a79c:	8fc30008 	lw	v1,8(s8)
ffffffffa080a7a0:	67c20010 	daddiu	v0,s8,16
ffffffffa080a7a4:	0060202d 	move	a0,v1
ffffffffa080a7a8:	0040282d 	move	a1,v0
ffffffffa080a7ac:	24061000 	li	a2,4096
ffffffffa080a7b0:	0000382d 	move	a3,zero
ffffffffa080a7b4:	0c200c35 	jal	ffffffffa08030d4 <write>
ffffffffa080a7b8:	00000000 	nop
ffffffffa080a7bc:	0000202d 	move	a0,zero
ffffffffa080a7c0:	24050002 	li	a1,2
ffffffffa080a7c4:	0c20131c 	jal	ffffffffa0804c70 <vt100_move_cursor>
ffffffffa080a7c8:	00000000 	nop
ffffffffa080a7cc:	3c020000 	lui	v0,0x0
ffffffffa080a7d0:	64420000 	daddiu	v0,v0,0
ffffffffa080a7d4:	00021438 	dsll	v0,v0,0x10
ffffffffa080a7d8:	6442a081 	daddiu	v0,v0,-24447
ffffffffa080a7dc:	00021438 	dsll	v0,v0,0x10
ffffffffa080a7e0:	6444b350 	daddiu	a0,v0,-19632
ffffffffa080a7e4:	0c202363 	jal	ffffffffa0808d8c <printk>
ffffffffa080a7e8:	00000000 	nop
ffffffffa080a7ec:	8fc20008 	lw	v0,8(s8)
ffffffffa080a7f0:	0040202d 	move	a0,v0
ffffffffa080a7f4:	3c020000 	lui	v0,0x0
ffffffffa080a7f8:	64420000 	daddiu	v0,v0,0
ffffffffa080a7fc:	00021438 	dsll	v0,v0,0x10
ffffffffa080a800:	6442a081 	daddiu	v0,v0,-24447
ffffffffa080a804:	00021438 	dsll	v0,v0,0x10
ffffffffa080a808:	644535f0 	daddiu	a1,v0,13808
ffffffffa080a80c:	24061000 	li	a2,4096
ffffffffa080a810:	0000382d 	move	a3,zero
ffffffffa080a814:	0c200dcd 	jal	ffffffffa0803734 <read>
ffffffffa080a818:	00000000 	nop
ffffffffa080a81c:	0000202d 	move	a0,zero
ffffffffa080a820:	24050004 	li	a1,4
ffffffffa080a824:	0c20131c 	jal	ffffffffa0804c70 <vt100_move_cursor>
ffffffffa080a828:	00000000 	nop
ffffffffa080a82c:	3c020000 	lui	v0,0x0
ffffffffa080a830:	64420000 	daddiu	v0,v0,0
ffffffffa080a834:	00021438 	dsll	v0,v0,0x10
ffffffffa080a838:	6442a081 	daddiu	v0,v0,-24447
ffffffffa080a83c:	00021438 	dsll	v0,v0,0x10
ffffffffa080a840:	6444b360 	daddiu	a0,v0,-19616
ffffffffa080a844:	0c202363 	jal	ffffffffa0808d8c <printk>
ffffffffa080a848:	00000000 	nop
ffffffffa080a84c:	afc00004 	sw	zero,4(s8)
ffffffffa080a850:	08202a2c 	j	ffffffffa080a8b0 <test_bf+0x1f4>
ffffffffa080a854:	00000000 	nop
ffffffffa080a858:	3c020000 	lui	v0,0x0
ffffffffa080a85c:	64420000 	daddiu	v0,v0,0
ffffffffa080a860:	00021438 	dsll	v0,v0,0x10
ffffffffa080a864:	6442a081 	daddiu	v0,v0,-24447
ffffffffa080a868:	00021438 	dsll	v0,v0,0x10
ffffffffa080a86c:	8fc30004 	lw	v1,4(s8)
ffffffffa080a870:	644235f0 	daddiu	v0,v0,13808
ffffffffa080a874:	0062102d 	daddu	v0,v1,v0
ffffffffa080a878:	80420000 	lb	v0,0(v0)
ffffffffa080a87c:	0040182d 	move	v1,v0
ffffffffa080a880:	3c020000 	lui	v0,0x0
ffffffffa080a884:	64420000 	daddiu	v0,v0,0
ffffffffa080a888:	00021438 	dsll	v0,v0,0x10
ffffffffa080a88c:	6442a081 	daddiu	v0,v0,-24447
ffffffffa080a890:	00021438 	dsll	v0,v0,0x10
ffffffffa080a894:	6444b328 	daddiu	a0,v0,-19672
ffffffffa080a898:	0060282d 	move	a1,v1
ffffffffa080a89c:	0c202363 	jal	ffffffffa0808d8c <printk>
ffffffffa080a8a0:	00000000 	nop
ffffffffa080a8a4:	8fc20004 	lw	v0,4(s8)
ffffffffa080a8a8:	24420001 	addiu	v0,v0,1
ffffffffa080a8ac:	afc20004 	sw	v0,4(s8)
ffffffffa080a8b0:	8fc20004 	lw	v0,4(s8)
ffffffffa080a8b4:	2842000d 	slti	v0,v0,13
ffffffffa080a8b8:	1440ffe7 	bnez	v0,ffffffffa080a858 <test_bf+0x19c>
ffffffffa080a8bc:	00000000 	nop
ffffffffa080a8c0:	8fc20008 	lw	v0,8(s8)
ffffffffa080a8c4:	0040202d 	move	a0,v0
ffffffffa080a8c8:	3c020000 	lui	v0,0x0
ffffffffa080a8cc:	64420000 	daddiu	v0,v0,0
ffffffffa080a8d0:	00021438 	dsll	v0,v0,0x10
ffffffffa080a8d4:	6442a081 	daddiu	v0,v0,-24447
ffffffffa080a8d8:	00021438 	dsll	v0,v0,0x10
ffffffffa080a8dc:	644535f0 	daddiu	a1,v0,13808
ffffffffa080a8e0:	0000302d 	move	a2,zero
ffffffffa080a8e4:	240707fe 	li	a3,2046
ffffffffa080a8e8:	0c200dcd 	jal	ffffffffa0803734 <read>
ffffffffa080a8ec:	00000000 	nop
ffffffffa080a8f0:	8fc20008 	lw	v0,8(s8)
ffffffffa080a8f4:	0040202d 	move	a0,v0
ffffffffa080a8f8:	3c020000 	lui	v0,0x0
ffffffffa080a8fc:	64420000 	daddiu	v0,v0,0
ffffffffa080a900:	00021438 	dsll	v0,v0,0x10
ffffffffa080a904:	6442a081 	daddiu	v0,v0,-24447
ffffffffa080a908:	00021438 	dsll	v0,v0,0x10
ffffffffa080a90c:	644535f0 	daddiu	a1,v0,13808
ffffffffa080a910:	24061000 	li	a2,4096
ffffffffa080a914:	0000382d 	move	a3,zero
ffffffffa080a918:	0c200dcd 	jal	ffffffffa0803734 <read>
ffffffffa080a91c:	00000000 	nop
ffffffffa080a920:	0000202d 	move	a0,zero
ffffffffa080a924:	24050005 	li	a1,5
ffffffffa080a928:	0c20131c 	jal	ffffffffa0804c70 <vt100_move_cursor>
ffffffffa080a92c:	00000000 	nop
ffffffffa080a930:	3c020000 	lui	v0,0x0
ffffffffa080a934:	64420000 	daddiu	v0,v0,0
ffffffffa080a938:	00021438 	dsll	v0,v0,0x10
ffffffffa080a93c:	6442a081 	daddiu	v0,v0,-24447
ffffffffa080a940:	00021438 	dsll	v0,v0,0x10
ffffffffa080a944:	6444b378 	daddiu	a0,v0,-19592
ffffffffa080a948:	0c202363 	jal	ffffffffa0808d8c <printk>
ffffffffa080a94c:	00000000 	nop
ffffffffa080a950:	afc00004 	sw	zero,4(s8)
ffffffffa080a954:	08202a6d 	j	ffffffffa080a9b4 <test_bf+0x2f8>
ffffffffa080a958:	00000000 	nop
ffffffffa080a95c:	3c020000 	lui	v0,0x0
ffffffffa080a960:	64420000 	daddiu	v0,v0,0
ffffffffa080a964:	00021438 	dsll	v0,v0,0x10
ffffffffa080a968:	6442a081 	daddiu	v0,v0,-24447
ffffffffa080a96c:	00021438 	dsll	v0,v0,0x10
ffffffffa080a970:	8fc30004 	lw	v1,4(s8)
ffffffffa080a974:	644235f0 	daddiu	v0,v0,13808
ffffffffa080a978:	0062102d 	daddu	v0,v1,v0
ffffffffa080a97c:	80420000 	lb	v0,0(v0)
ffffffffa080a980:	0040182d 	move	v1,v0
ffffffffa080a984:	3c020000 	lui	v0,0x0
ffffffffa080a988:	64420000 	daddiu	v0,v0,0
ffffffffa080a98c:	00021438 	dsll	v0,v0,0x10
ffffffffa080a990:	6442a081 	daddiu	v0,v0,-24447
ffffffffa080a994:	00021438 	dsll	v0,v0,0x10
ffffffffa080a998:	6444b328 	daddiu	a0,v0,-19672
ffffffffa080a99c:	0060282d 	move	a1,v1
ffffffffa080a9a0:	0c202363 	jal	ffffffffa0808d8c <printk>
ffffffffa080a9a4:	00000000 	nop
ffffffffa080a9a8:	8fc20004 	lw	v0,4(s8)
ffffffffa080a9ac:	24420001 	addiu	v0,v0,1
ffffffffa080a9b0:	afc20004 	sw	v0,4(s8)
ffffffffa080a9b4:	8fc20004 	lw	v0,4(s8)
ffffffffa080a9b8:	2842000d 	slti	v0,v0,13
ffffffffa080a9bc:	1440ffe7 	bnez	v0,ffffffffa080a95c <test_bf+0x2a0>
ffffffffa080a9c0:	00000000 	nop
ffffffffa080a9c4:	8fc20008 	lw	v0,8(s8)
ffffffffa080a9c8:	0040202d 	move	a0,v0
ffffffffa080a9cc:	0c200ef3 	jal	ffffffffa0803bcc <close>
ffffffffa080a9d0:	00000000 	nop
ffffffffa080a9d4:	0c201aff 	jal	ffffffffa0806bfc <do_exit>
ffffffffa080a9d8:	00000000 	nop
ffffffffa080a9dc:	03c0e82d 	move	sp,s8
ffffffffa080a9e0:	dfbf1018 	ld	ra,4120(sp)
ffffffffa080a9e4:	dfbe1010 	ld	s8,4112(sp)
ffffffffa080a9e8:	67bd1020 	daddiu	sp,sp,4128
ffffffffa080a9ec:	03e00008 	jr	ra
ffffffffa080a9f0:	00000000 	nop
	...
ffffffffa080aa00:	5252455b 	beql	s2,s2,ffffffffa081bf70 <__bbs_end+0x1520>
ffffffffa080aa04:	205d524f 	addi	sp,v0,21071
ffffffffa080aa08:	544f4f52 	bnel	v0,t3,ffffffffa081e754 <__bbs_end+0x3d04>
ffffffffa080aa0c:	52494420 	beql	s2,a5,ffffffffa081ba90 <__bbs_end+0x1040>
ffffffffa080aa10:	4f4e4920 	madd.s	$f4,$f26,$f9,$f14
ffffffffa080aa14:	4e204544 	c3	0x204544
ffffffffa080aa18:	45424d55 	0x45424d55
ffffffffa080aa1c:	203d2052 	addi	sp,at,8274
ffffffffa080aa20:	202c6425 	addi	t0,at,25637
ffffffffa080aa24:	20544f4e 	addi	s4,v0,20302
ffffffffa080aa28:	4f52455a 	c3	0x152455a
ffffffffa080aa2c:	00000d0a 	0xd0a
ffffffffa080aa30:	746f6f72 	jalx	ffffffffa1bdbdc8 <__bbs_end+0x13c1378>
ffffffffa080aa34:	00000000 	nop
ffffffffa080aa38:	00002e2e 	0x2e2e
ffffffffa080aa3c:	00000000 	nop
ffffffffa080aa40:	61766e49 	daddi	s6,a7,28233
ffffffffa080aa44:	2064696c 	addi	a0,v1,26988
ffffffffa080aa48:	68746170 	ldl	s4,24944(v1)
ffffffffa080aa4c:	7325203a 	0x7325203a
ffffffffa080aa50:	0000000a 	movz	zero,zero,zero
ffffffffa080aa54:	00000000 	nop
ffffffffa080aa58:	61766e49 	daddi	s6,a7,28233
ffffffffa080aa5c:	2064696c 	addi	a0,v1,26988
ffffffffa080aa60:	68746170 	ldl	s4,24944(v1)
ffffffffa080aa64:	7325203a 	0x7325203a
	...
ffffffffa080aa70:	3a726944 	xori	s2,s3,0x6944
ffffffffa080aa74:	20732520 	addi	s3,v1,9504
ffffffffa080aa78:	20746f6e 	addi	s4,v1,28526
ffffffffa080aa7c:	6e756f66 	ldr	s5,28518(s3)
ffffffffa080aa80:	2e2e2e64 	sltiu	t2,s1,11876
ffffffffa080aa84:	0000000a 	movz	zero,zero,zero
ffffffffa080aa88:	3a207325 	xori	zero,s1,0x7325
ffffffffa080aa8c:	746f4e20 	jalx	ffffffffa1bd3880 <__bbs_end+0x13b8e30>
ffffffffa080aa90:	64206120 	daddiu	zero,at,24864
ffffffffa080aa94:	63657269 	daddi	a1,k1,29289
ffffffffa080aa98:	79726f74 	0x79726f74
ffffffffa080aa9c:	00000a2e 	0xa2e
ffffffffa080aaa0:	53206f4e 	beqzl	t9,ffffffffa08267dc <__bbs_end+0xbd8c>
ffffffffa080aaa4:	20686375 	addi	a4,v1,25461
ffffffffa080aaa8:	74666f53 	jalx	ffffffffa199bd4c <__bbs_end+0x11812fc>
ffffffffa080aaac:	6b6e694c 	ldl	t2,26956(k1)
ffffffffa080aab0:	00000a2e 	0xa2e
ffffffffa080aab4:	00000000 	nop
ffffffffa080aab8:	6e65704f 	ldr	a1,28751(s3)
ffffffffa080aabc:	20676e69 	addi	a3,v1,28265
ffffffffa080aac0:	3a726964 	xori	s2,s3,0x6964
ffffffffa080aac4:	20732520 	addi	s3,v1,9504
ffffffffa080aac8:	20646928 	addi	a0,v1,26920
ffffffffa080aacc:	6425203d 	daddiu	a1,at,8253
ffffffffa080aad0:	2e2e2e29 	sltiu	t2,s1,11817
ffffffffa080aad4:	0000000a 	movz	zero,zero,zero
ffffffffa080aad8:	454c4946 	bc1any4f	$fcc3,ffffffffa081cff4 <__bbs_end+0x25a4>
ffffffffa080aadc:	00000000 	nop
ffffffffa080aae0:	4e494c53 	c3	0x494c53
ffffffffa080aae4:	0000004b 	0x4b
ffffffffa080aae8:	00524944 	0x524944
ffffffffa080aaec:	00000000 	nop
ffffffffa080aaf0:	25287325 	addiu	a4,a5,29477
ffffffffa080aaf4:	20202973 	addi	zero,at,10611
ffffffffa080aaf8:	00000020 	add	zero,zero,zero
ffffffffa080aafc:	00000000 	nop
ffffffffa080ab00:	0000000a 	movz	zero,zero,zero
ffffffffa080ab04:	00000000 	nop
ffffffffa080ab08:	73206f4e 	0x73206f4e
ffffffffa080ab0c:	20686375 	addi	a4,v1,25461
ffffffffa080ab10:	656c6966 	daddiu	t0,a7,26982
ffffffffa080ab14:	20726f20 	addi	s2,v1,28448
ffffffffa080ab18:	65726964 	daddiu	s2,a7,26980
ffffffffa080ab1c:	726f7463 	0x726f7463
ffffffffa080ab20:	000a2e79 	0xa2e79
ffffffffa080ab24:	00000000 	nop
ffffffffa080ab28:	6c696166 	ldr	a5,24934(v1)
ffffffffa080ab2c:	74206465 	jalx	ffffffffa0819194 <pcb+0x486c>
ffffffffa080ab30:	6572206f 	daddiu	s2,a7,8303
ffffffffa080ab34:	65766f6d 	daddiu	s6,a7,28525
ffffffffa080ab38:	73252720 	0x73252720
ffffffffa080ab3c:	203a2027 	addi	k0,at,8231
ffffffffa080ab40:	20746f4e 	addi	s4,v1,28494
ffffffffa080ab44:	69642061 	ldl	a0,8289(a7)
ffffffffa080ab48:	74636572 	jalx	ffffffffa18d95c8 <__bbs_end+0x10beb78>
ffffffffa080ab4c:	0a79726f 	j	ffffffffa9e5c9bc <__bbs_end+0x9641f6c>
ffffffffa080ab50:	00000000 	nop
ffffffffa080ab54:	00000000 	nop
ffffffffa080ab58:	73206f4e 	0x73206f4e
ffffffffa080ab5c:	20686375 	addi	a4,v1,25461
ffffffffa080ab60:	656c6966 	daddiu	t0,a7,26982
ffffffffa080ab64:	20726f20 	addi	s2,v1,28448
ffffffffa080ab68:	65726964 	daddiu	s2,a7,26980
ffffffffa080ab6c:	726f7463 	0x726f7463
ffffffffa080ab70:	00000a79 	0xa79
ffffffffa080ab74:	00000000 	nop
ffffffffa080ab78:	6e6e6163 	ldr	t2,24931(s3)
ffffffffa080ab7c:	7220746f 	0x7220746f
ffffffffa080ab80:	766f6d65 	jalx	ffffffffa9bdb594 <__bbs_end+0x93c0b44>
ffffffffa080ab84:	25272065 	addiu	a3,a5,8293
ffffffffa080ab88:	3a202773 	xori	zero,s1,0x2773
ffffffffa080ab8c:	20734920 	addi	s3,v1,18720
ffffffffa080ab90:	69642061 	ldl	a0,8289(a7)
ffffffffa080ab94:	74636572 	jalx	ffffffffa18d95c8 <__bbs_end+0x10beb78>
ffffffffa080ab98:	0a79726f 	j	ffffffffa9e5c9bc <__bbs_end+0x9641f6c>
ffffffffa080ab9c:	00000000 	nop
ffffffffa080aba0:	656c6946 	daddiu	t0,a7,26950
ffffffffa080aba4:	7325203a 	0x7325203a
ffffffffa080aba8:	73616820 	clz	t1 or at,k1
ffffffffa080abac:	69786520 	ldl	t8,25888(a7)
ffffffffa080abb0:	64657473 	daddiu	a1,v1,29811
ffffffffa080abb4:	0000000a 	movz	zero,zero,zero
ffffffffa080abb8:	74696e49 	jalx	ffffffffa1a5b924 <__bbs_end+0x1240ed4>
ffffffffa080abbc:	696c6169 	ldl	t0,24937(a7)
ffffffffa080abc0:	676e697a 	daddiu	t2,k1,27002
ffffffffa080abc4:	6c696620 	ldr	a5,26144(v1)
ffffffffa080abc8:	25203a65 	addiu	zero,a5,14949
ffffffffa080abcc:	2e2e2e73 	sltiu	t2,s1,11891
ffffffffa080abd0:	0000000a 	movz	zero,zero,zero
ffffffffa080abd4:	00000000 	nop
ffffffffa080abd8:	656c6946 	daddiu	t0,a7,26950
ffffffffa080abdc:	7325203a 	0x7325203a
ffffffffa080abe0:	746f6e20 	jalx	ffffffffa1bdb880 <__bbs_end+0x13c0e30>
ffffffffa080abe4:	756f6620 	jalx	ffffffffa5bd9880 <__bbs_end+0x53bee30>
ffffffffa080abe8:	202c646e 	addi	t0,at,25710
ffffffffa080abec:	61657263 	daddi	a1,a7,29283
ffffffffa080abf0:	676e6974 	daddiu	t2,k1,26996
ffffffffa080abf4:	0a2e2e2e 	j	ffffffffa8b8b8b8 <__bbs_end+0x8370e68>
ffffffffa080abf8:	00000000 	nop
ffffffffa080abfc:	00000000 	nop
ffffffffa080ac00:	6e65704f 	ldr	a1,28751(s3)
ffffffffa080ac04:	20676e69 	addi	a3,v1,28265
ffffffffa080ac08:	656c6966 	daddiu	t0,a7,26982
ffffffffa080ac0c:	7325203a 	0x7325203a
ffffffffa080ac10:	64692820 	daddiu	a5,v1,10272
ffffffffa080ac14:	25203d20 	addiu	zero,a5,15648
ffffffffa080ac18:	2e2e2964 	sltiu	t2,s1,10596
ffffffffa080ac1c:	00000a2e 	0xa2e
ffffffffa080ac20:	64616552 	daddiu	at,v1,25938
ffffffffa080ac24:	66666f20 	daddiu	a2,s3,28448
ffffffffa080ac28:	28746573 	slti	s4,v1,25971
ffffffffa080ac2c:	78257830 	mul.qh	$v0,$v15,$v5[0]
ffffffffa080ac30:	73692029 	0x73692029
ffffffffa080ac34:	74756f20 	jalx	ffffffffa1d5bc80 <__bbs_end+0x1541230>
ffffffffa080ac38:	20666f20 	addi	a2,v1,28448
ffffffffa080ac3c:	7a697366 	0x7a697366
ffffffffa080ac40:	78302865 	0x78302865
ffffffffa080ac44:	21297825 	addi	a5,a5,30757
ffffffffa080ac48:	0000000a 	movz	zero,zero,zero
ffffffffa080ac4c:	00000000 	nop
ffffffffa080ac50:	656c6946 	daddiu	t0,a7,26950
ffffffffa080ac54:	7325203a 	0x7325203a
ffffffffa080ac58:	746f6e20 	jalx	ffffffffa1bdb880 <__bbs_end+0x13c0e30>
ffffffffa080ac5c:	756f6620 	jalx	ffffffffa5bd9880 <__bbs_end+0x53bee30>
ffffffffa080ac60:	000a646e 	0xa646e
ffffffffa080ac64:	00000000 	nop
ffffffffa080ac68:	69207325 	ldl	zero,29477(a5)
ffffffffa080ac6c:	6f6e2073 	ldr	t2,8307(k1)
ffffffffa080ac70:	20612074 	addi	at,v1,8308
ffffffffa080ac74:	656c6966 	daddiu	t0,a7,26982
ffffffffa080ac78:	7562202c 	jalx	ffffffffa58880b0 <__bbs_end+0x506d660>
ffffffffa080ac7c:	20612074 	addi	at,v1,8308
ffffffffa080ac80:	0a726964 	j	ffffffffa9c9a590 <__bbs_end+0x947fb40>
ffffffffa080ac84:	00000000 	nop
ffffffffa080ac88:	00006325 	0x6325
ffffffffa080ac8c:	00000000 	nop
ffffffffa080ac90:	3a206e6c 	xori	zero,s1,0x6e6c
ffffffffa080ac94:	20732520 	addi	s3,v1,9504
ffffffffa080ac98:	6168203a 	daddi	a4,a7,8250
ffffffffa080ac9c:	6c206472 	ldr	zero,25714(at)
ffffffffa080aca0:	206b6e69 	addi	a7,v1,28265
ffffffffa080aca4:	20746f6e 	addi	s4,v1,28526
ffffffffa080aca8:	6f6c6c61 	ldr	t0,27745(k1)
ffffffffa080acac:	20646577 	addi	a0,v1,25975
ffffffffa080acb0:	20726f66 	addi	s2,v1,28518
ffffffffa080acb4:	65726964 	daddiu	s2,a7,26980
ffffffffa080acb8:	726f7463 	0x726f7463
ffffffffa080acbc:	00000a79 	0xa79
ffffffffa080acc0:	6967616d 	ldl	a3,24941(a7)
ffffffffa080acc4:	203a2063 	addi	k0,at,8291
ffffffffa080acc8:	78257830 	mul.qh	$v0,$v15,$v5[0]
ffffffffa080accc:	53464b28 	beql	k0,a2,ffffffffa081d970 <__bbs_end+0x2f20>
ffffffffa080acd0:	00000a29 	0xa29
ffffffffa080acd4:	00000000 	nop
ffffffffa080acd8:	64657375 	daddiu	a1,v1,29557
ffffffffa080acdc:	6f6c6220 	ldr	t0,25120(k1)
ffffffffa080ace0:	3a206b63 	xori	zero,s1,0x6b63
ffffffffa080ace4:	2f642520 	sltiu	a0,k1,9504
ffffffffa080ace8:	2c206425 	sltiu	zero,at,25637
ffffffffa080acec:	61747320 	daddi	s4,a7,29472
ffffffffa080acf0:	62207472 	daddi	zero,s1,29810
ffffffffa080acf4:	6b636f6c 	ldl	v1,28524(k1)
ffffffffa080acf8:	25203a20 	addiu	zero,a5,14880
ffffffffa080acfc:	78302864 	0x78302864
ffffffffa080ad00:	0a297825 	j	ffffffffa8a5e094 <__bbs_end+0x8243644>
ffffffffa080ad04:	00000000 	nop
ffffffffa080ad08:	636f6c62 	daddi	t3,k1,27746
ffffffffa080ad0c:	616d206b 	daddi	t1,a7,8299
ffffffffa080ad10:	666f2070 	daddiu	t3,s3,8304
ffffffffa080ad14:	74657366 	jalx	ffffffffa195cd98 <__bbs_end+0x1142348>
ffffffffa080ad18:	25203a20 	addiu	zero,a5,14880
ffffffffa080ad1c:	202c2064 	addi	t0,at,8292
ffffffffa080ad20:	7563636f 	jalx	ffffffffa58d8dbc <__bbs_end+0x50be36c>
ffffffffa080ad24:	64656970 	daddiu	a1,v1,26992
ffffffffa080ad28:	6f6c6220 	ldr	t0,25120(k1)
ffffffffa080ad2c:	3a206b63 	xori	zero,s1,0x6b63
ffffffffa080ad30:	0a642520 	j	ffffffffa9909480 <__bbs_end+0x90eea30>
ffffffffa080ad34:	00000000 	nop
ffffffffa080ad38:	646f6e69 	daddiu	t3,v1,28265
ffffffffa080ad3c:	616d2065 	daddi	t1,a7,8293
ffffffffa080ad40:	666f2070 	daddiu	t3,s3,8304
ffffffffa080ad44:	74657366 	jalx	ffffffffa195cd98 <__bbs_end+0x1142348>
ffffffffa080ad48:	25203a20 	addiu	zero,a5,14880
ffffffffa080ad4c:	202c2064 	addi	t0,at,8292
ffffffffa080ad50:	7563636f 	jalx	ffffffffa58d8dbc <__bbs_end+0x50be36c>
ffffffffa080ad54:	64656970 	daddiu	a1,v1,26992
ffffffffa080ad58:	6f6c6220 	ldr	t0,25120(k1)
ffffffffa080ad5c:	3a206b63 	xori	zero,s1,0x6b63
ffffffffa080ad60:	20642520 	addi	a0,v1,9504
ffffffffa080ad64:	0000000a 	movz	zero,zero,zero
ffffffffa080ad68:	646f6e69 	daddiu	t3,v1,28265
ffffffffa080ad6c:	666f2065 	daddiu	t3,s3,8293
ffffffffa080ad70:	74657366 	jalx	ffffffffa195cd98 <__bbs_end+0x1142348>
ffffffffa080ad74:	25203a20 	addiu	zero,a5,14880
ffffffffa080ad78:	202c2064 	addi	t0,at,8292
ffffffffa080ad7c:	7563636f 	jalx	ffffffffa58d8dbc <__bbs_end+0x50be36c>
ffffffffa080ad80:	64656970 	daddiu	a1,v1,26992
ffffffffa080ad84:	6f6c6220 	ldr	t0,25120(k1)
ffffffffa080ad88:	3a206b63 	xori	zero,s1,0x6b63
ffffffffa080ad8c:	0a642520 	j	ffffffffa9909480 <__bbs_end+0x90eea30>
ffffffffa080ad90:	00000000 	nop
ffffffffa080ad94:	00000000 	nop
ffffffffa080ad98:	61746164 	daddi	s4,a7,24932
ffffffffa080ad9c:	66666f20 	daddiu	a2,s3,28448
ffffffffa080ada0:	20746573 	addi	s4,v1,25971
ffffffffa080ada4:	6425203a 	daddiu	a1,at,8250
ffffffffa080ada8:	6f202c20 	ldr	zero,11296(t9)
ffffffffa080adac:	70756363 	0x70756363
ffffffffa080adb0:	20646569 	addi	a0,v1,25961
ffffffffa080adb4:	636f6c62 	daddi	t3,k1,27746
ffffffffa080adb8:	203a206b 	addi	k0,at,8299
ffffffffa080adbc:	000a6425 	0xa6425
ffffffffa080adc0:	646f6e69 	daddiu	t3,v1,28265
ffffffffa080adc4:	6e652065 	ldr	a1,8293(s3)
ffffffffa080adc8:	20797274 	addi	t9,v1,29300
ffffffffa080adcc:	657a6973 	daddiu	k0,a7,26995
ffffffffa080add0:	25203a20 	addiu	zero,a5,14880
ffffffffa080add4:	202c4264 	addi	t0,at,16996
ffffffffa080add8:	20726964 	addi	s2,v1,26980
ffffffffa080addc:	72746e65 	0x72746e65
ffffffffa080ade0:	69732079 	ldl	s3,8313(a7)
ffffffffa080ade4:	3a20657a 	xori	zero,s1,0x657a
ffffffffa080ade8:	42642520 	wait	0x19094
ffffffffa080adec:	0000000a 	movz	zero,zero,zero
ffffffffa080adf0:	5d53465b 	0x5d53465b
ffffffffa080adf4:	61745320 	daddi	s4,a7,21280
ffffffffa080adf8:	6e697472 	ldr	a5,29810(s3)
ffffffffa080adfc:	6e692067 	ldr	a5,8295(s3)
ffffffffa080ae00:	61697469 	daddi	a5,a7,29801
ffffffffa080ae04:	657a696c 	daddiu	k0,a7,26988
ffffffffa080ae08:	6c696620 	ldr	a5,26144(v1)
ffffffffa080ae0c:	73797365 	0x73797365
ffffffffa080ae10:	216d6574 	addi	t1,a7,25972
ffffffffa080ae14:	20202020 	addi	zero,at,8224
ffffffffa080ae18:	00000a20 	0xa20
ffffffffa080ae1c:	00000000 	nop
ffffffffa080ae20:	5d53465b 	0x5d53465b
ffffffffa080ae24:	74655320 	jalx	ffffffffa1954c80 <__bbs_end+0x113a230>
ffffffffa080ae28:	676e6974 	daddiu	t2,k1,26996
ffffffffa080ae2c:	70757320 	0x70757320
ffffffffa080ae30:	6c627265 	ldr	v0,29285(v1)
ffffffffa080ae34:	2e6b636f 	sltiu	a7,s3,25455
ffffffffa080ae38:	000a2e2e 	0xa2e2e
ffffffffa080ae3c:	00000000 	nop
ffffffffa080ae40:	20202020 	addi	zero,at,8224
ffffffffa080ae44:	67616d20 	daddiu	at,k1,27936
ffffffffa080ae48:	3a206369 	xori	zero,s1,0x6369
ffffffffa080ae4c:	25783020 	addiu	t8,a7,12320
ffffffffa080ae50:	00000a78 	dsll	at,zero,0x9
ffffffffa080ae54:	00000000 	nop
ffffffffa080ae58:	20202020 	addi	zero,at,8224
ffffffffa080ae5c:	6d756e20 	ldr	s5,28192(a7)
ffffffffa080ae60:	20726562 	addi	s2,v1,25954
ffffffffa080ae64:	636f6c62 	daddi	t3,k1,27746
ffffffffa080ae68:	203a206b 	addi	k0,at,8299
ffffffffa080ae6c:	2c642520 	sltiu	a0,v1,9504
ffffffffa080ae70:	72617473 	0x72617473
ffffffffa080ae74:	6c622074 	ldr	v0,8308(v1)
ffffffffa080ae78:	206b636f 	addi	a7,v1,25455
ffffffffa080ae7c:	6425203a 	daddiu	a1,at,8250
ffffffffa080ae80:	0000000a 	movz	zero,zero,zero
ffffffffa080ae84:	00000000 	nop
ffffffffa080ae88:	20202020 	addi	zero,at,8224
ffffffffa080ae8c:	6f6c6220 	ldr	t0,25120(k1)
ffffffffa080ae90:	6d206b63 	ldr	zero,27491(a5)
ffffffffa080ae94:	6f207061 	ldr	zero,28769(t9)
ffffffffa080ae98:	65736666 	daddiu	s3,a7,26214
ffffffffa080ae9c:	203a2074 	addi	k0,at,8308
ffffffffa080aea0:	28206425 	slti	zero,at,25637
ffffffffa080aea4:	0a296425 	j	ffffffffa8a59094 <__bbs_end+0x823e644>
ffffffffa080aea8:	00000000 	nop
ffffffffa080aeac:	00000000 	nop
ffffffffa080aeb0:	20202020 	addi	zero,at,8224
ffffffffa080aeb4:	6f6e6920 	ldr	t2,26912(k1)
ffffffffa080aeb8:	6d206564 	ldr	zero,25956(a5)
ffffffffa080aebc:	6f207061 	ldr	zero,28769(t9)
ffffffffa080aec0:	65736666 	daddiu	s3,a7,26214
ffffffffa080aec4:	203a2074 	addi	k0,at,8308
ffffffffa080aec8:	28206425 	slti	zero,at,25637
ffffffffa080aecc:	0a296425 	j	ffffffffa8a59094 <__bbs_end+0x823e644>
ffffffffa080aed0:	00000000 	nop
ffffffffa080aed4:	00000000 	nop
ffffffffa080aed8:	20202020 	addi	zero,at,8224
ffffffffa080aedc:	6f6e6920 	ldr	t2,26912(k1)
ffffffffa080aee0:	6f206564 	ldr	zero,25956(t9)
ffffffffa080aee4:	65736666 	daddiu	s3,a7,26214
ffffffffa080aee8:	203a2074 	addi	k0,at,8308
ffffffffa080aeec:	28206425 	slti	zero,at,25637
ffffffffa080aef0:	0a296425 	j	ffffffffa8a59094 <__bbs_end+0x823e644>
ffffffffa080aef4:	00000000 	nop
ffffffffa080aef8:	20202020 	addi	zero,at,8224
ffffffffa080aefc:	74616420 	jalx	ffffffffa1859080 <__bbs_end+0x103e630>
ffffffffa080af00:	666f2061 	daddiu	t3,s3,8289
ffffffffa080af04:	74657366 	jalx	ffffffffa195cd98 <__bbs_end+0x1142348>
ffffffffa080af08:	25203a20 	addiu	zero,a5,14880
ffffffffa080af0c:	25282064 	addiu	a4,a5,8292
ffffffffa080af10:	000a2964 	0xa2964
ffffffffa080af14:	00000000 	nop
ffffffffa080af18:	20202020 	addi	zero,at,8224
ffffffffa080af1c:	6f6e6920 	ldr	t2,26912(k1)
ffffffffa080af20:	65206564 	daddiu	zero,a5,25956
ffffffffa080af24:	7972746e 	0x7972746e
ffffffffa080af28:	7a697320 	0x7a697320
ffffffffa080af2c:	203a2065 	addi	k0,at,8293
ffffffffa080af30:	42383231 	c0	0x383231
ffffffffa080af34:	6964202c 	ldl	a0,8236(a7)
ffffffffa080af38:	6e652072 	ldr	a1,8306(s3)
ffffffffa080af3c:	20797274 	addi	t9,v1,29300
ffffffffa080af40:	657a6973 	daddiu	k0,a7,26995
ffffffffa080af44:	33203a20 	andi	zero,t9,0x3a20
ffffffffa080af48:	000a4232 	tlt	zero,a6,0x108
ffffffffa080af4c:	00000000 	nop
ffffffffa080af50:	5d53465b 	0x5d53465b
ffffffffa080af54:	74655320 	jalx	ffffffffa1954c80 <__bbs_end+0x113a230>
ffffffffa080af58:	676e6974 	daddiu	t2,k1,26996
ffffffffa080af5c:	6f6e6920 	ldr	t2,26912(k1)
ffffffffa080af60:	6d2d6564 	ldr	t1,25956(a5)
ffffffffa080af64:	2e2e7061 	sltiu	t2,s1,28769
ffffffffa080af68:	0a20202e 	j	ffffffffa88080b8 <__bbs_end+0x7fed668>
ffffffffa080af6c:	00000000 	nop
ffffffffa080af70:	5d53465b 	0x5d53465b
ffffffffa080af74:	74655320 	jalx	ffffffffa1954c80 <__bbs_end+0x113a230>
ffffffffa080af78:	676e6974 	daddiu	t2,k1,26996
ffffffffa080af7c:	6f6c6220 	ldr	t0,25120(k1)
ffffffffa080af80:	6d2d6b63 	ldr	t1,27491(a5)
ffffffffa080af84:	2e2e7061 	sltiu	t2,s1,28769
ffffffffa080af88:	2020202e 	addi	zero,at,8238
ffffffffa080af8c:	20202020 	addi	zero,at,8224
ffffffffa080af90:	20202020 	addi	zero,at,8224
ffffffffa080af94:	0a202020 	j	ffffffffa8808080 <__bbs_end+0x7fed630>
ffffffffa080af98:	00000000 	nop
ffffffffa080af9c:	00000000 	nop
ffffffffa080afa0:	5d53465b 	0x5d53465b
ffffffffa080afa4:	74655320 	jalx	ffffffffa1954c80 <__bbs_end+0x113a230>
ffffffffa080afa8:	676e6974 	daddiu	t2,k1,26996
ffffffffa080afac:	6f6e6920 	ldr	t2,26912(k1)
ffffffffa080afb0:	2e2e6564 	sltiu	t2,s1,25956
ffffffffa080afb4:	2020202e 	addi	zero,at,8238
ffffffffa080afb8:	20202020 	addi	zero,at,8224
ffffffffa080afbc:	20202020 	addi	zero,at,8224
ffffffffa080afc0:	20202020 	addi	zero,at,8224
ffffffffa080afc4:	0a202020 	j	ffffffffa8808080 <__bbs_end+0x7fed630>
ffffffffa080afc8:	00000000 	nop
ffffffffa080afcc:	00000000 	nop
ffffffffa080afd0:	5d53465b 	0x5d53465b
ffffffffa080afd4:	696e4920 	ldl	t2,18720(a7)
ffffffffa080afd8:	6c616974 	ldr	at,26996(v1)
ffffffffa080afdc:	6e697a69 	ldr	a5,31337(s3)
ffffffffa080afe0:	69662067 	ldl	a2,8295(a7)
ffffffffa080afe4:	7973656c 	0x7973656c
ffffffffa080afe8:	6d657473 	ldr	a1,29811(a7)
ffffffffa080afec:	6e696620 	ldr	a5,26144(s3)
ffffffffa080aff0:	65687369 	daddiu	a4,a7,29545
ffffffffa080aff4:	20202164 	addi	zero,at,8548
ffffffffa080aff8:	00000a20 	0xa20
ffffffffa080affc:	00000000 	nop
ffffffffa080b000:	255b6325 	addiu	k1,a6,25381
ffffffffa080b004:	64253b64 	daddiu	a1,at,15204
ffffffffa080b008:	00000048 	0x48
ffffffffa080b00c:	00000000 	nop
ffffffffa080b010:	325b6325 	andi	k1,s2,0x6325
ffffffffa080b014:	0000004a 	0x4a
ffffffffa080b018:	3f5b6325 	0x3f5b6325
ffffffffa080b01c:	006c3532 	tlt	v1,t0,0xd4
ffffffffa080b020:	495b203e 	0x495b203e
ffffffffa080b024:	5d54494e 	0x5d54494e
ffffffffa080b028:	61745320 	daddi	s4,a7,21280
ffffffffa080b02c:	69206b63 	ldl	zero,27491(a5)
ffffffffa080b030:	6974696e 	ldl	s4,26990(a7)
ffffffffa080b034:	7a696c61 	0x7a696c61
ffffffffa080b038:	6f697461 	ldr	a5,29793(k1)
ffffffffa080b03c:	7573206e 	jalx	ffffffffa5cc81b8 <__bbs_end+0x54ad768>
ffffffffa080b040:	65656363 	daddiu	a1,a7,25443
ffffffffa080b044:	2e646564 	sltiu	a0,s3,25956
ffffffffa080b048:	0000000a 	movz	zero,zero,zero
ffffffffa080b04c:	00000000 	nop
ffffffffa080b050:	495b203e 	0x495b203e
ffffffffa080b054:	5d54494e 	0x5d54494e
ffffffffa080b058:	42435020 	wait	0x10d40
ffffffffa080b05c:	696e6920 	ldl	t2,26912(a7)
ffffffffa080b060:	6c616974 	ldr	at,26996(v1)
ffffffffa080b064:	74617a69 	jalx	ffffffffa185e9a4 <__bbs_end+0x1043f54>
ffffffffa080b068:	206e6f69 	addi	t2,v1,28521
ffffffffa080b06c:	63637573 	daddi	v1,k1,30067
ffffffffa080b070:	65646565 	daddiu	a0,a7,25957
ffffffffa080b074:	000a2e64 	0xa2e64
ffffffffa080b078:	495b203e 	0x495b203e
ffffffffa080b07c:	5d54494e 	0x5d54494e
ffffffffa080b080:	52435320 	beql	s2,v1,ffffffffa081fd04 <__bbs_end+0x52b4>
ffffffffa080b084:	204e4545 	addi	t2,v0,17733
ffffffffa080b088:	74696e69 	jalx	ffffffffa1a5b9a4 <__bbs_end+0x1240f54>
ffffffffa080b08c:	696c6169 	ldl	t0,24937(a7)
ffffffffa080b090:	6974617a 	ldl	s4,24954(a7)
ffffffffa080b094:	73206e6f 	0x73206e6f
ffffffffa080b098:	65636375 	daddiu	v1,a7,25461
ffffffffa080b09c:	64656465 	daddiu	a1,v1,25701
ffffffffa080b0a0:	00000a2e 	0xa2e
	...
ffffffffa080b0b0:	4f52505b 	c3	0x152505b
ffffffffa080b0b4:	53534543 	beql	k0,s3,ffffffffa081c5c4 <__bbs_end+0x1b74>
ffffffffa080b0b8:	42415420 	wait	0x10550
ffffffffa080b0bc:	0a5d454c 	j	ffffffffa9751530 <__bbs_end+0x8f36ae0>
ffffffffa080b0c0:	00000000 	nop
ffffffffa080b0c4:	00000000 	nop
ffffffffa080b0c8:	5d64255b 	0x5d64255b
ffffffffa080b0cc:	44495020 	0x44495020
ffffffffa080b0d0:	25203a20 	addiu	zero,a5,14880
ffffffffa080b0d4:	54532064 	bnel	v0,s3,ffffffffa0813268 <old_screen+0xb08>
ffffffffa080b0d8:	53555441 	beql	k0,s5,ffffffffa08201e0 <__bbs_end+0x5790>
ffffffffa080b0dc:	52203a20 	beqzl	s1,ffffffffa0819960 <pcb+0x5038>
ffffffffa080b0e0:	494e4e55 	0x494e4e55
ffffffffa080b0e4:	000a474e 	0xa474e
ffffffffa080b0e8:	5d64255b 	0x5d64255b
ffffffffa080b0ec:	44495020 	0x44495020
ffffffffa080b0f0:	25203a20 	addiu	zero,a5,14880
ffffffffa080b0f4:	54532064 	bnel	v0,s3,ffffffffa0813288 <old_screen+0xb28>
ffffffffa080b0f8:	53555441 	beql	k0,s5,ffffffffa0820200 <__bbs_end+0x57b0>
ffffffffa080b0fc:	52203a20 	beqzl	s1,ffffffffa0819980 <pcb+0x5058>
ffffffffa080b100:	59444145 	0x59444145
ffffffffa080b104:	0000000a 	movz	zero,zero,zero
ffffffffa080b108:	5d64255b 	0x5d64255b
ffffffffa080b10c:	44495020 	0x44495020
ffffffffa080b110:	25203a20 	addiu	zero,a5,14880
ffffffffa080b114:	54532064 	bnel	v0,s3,ffffffffa08132a8 <old_screen+0xb48>
ffffffffa080b118:	53555441 	beql	k0,s5,ffffffffa0820220 <__bbs_end+0x57d0>
ffffffffa080b11c:	42203a20 	wait	0x80e8
ffffffffa080b120:	4b434f4c 	c2	0x1434f4c
ffffffffa080b124:	000a4445 	0xa4445
	...
ffffffffa080b130:	2d2d203e 	sltiu	t1,a5,8254
ffffffffa080b134:	2d2d2d2d 	sltiu	t1,a5,11565
ffffffffa080b138:	2d2d2d2d 	sltiu	t1,a5,11565
ffffffffa080b13c:	2d2d2d2d 	sltiu	t1,a5,11565
ffffffffa080b140:	4d4f4320 	madd.s	$f12,$f10,$f8,$f15
ffffffffa080b144:	444e414d 	0x444e414d
ffffffffa080b148:	2d2d2d20 	sltiu	t1,a5,11552
ffffffffa080b14c:	2d2d2d2d 	sltiu	t1,a5,11565
ffffffffa080b150:	2d2d2d2d 	sltiu	t1,a5,11565
ffffffffa080b154:	002d2d2d 	0x2d2d2d
ffffffffa080b158:	4f52203e 	nmsub.ps	$f0,$f26,$f4,$f18
ffffffffa080b15c:	5540544f 	bnezl	a6,ffffffffa082029c <__bbs_end+0x584c>
ffffffffa080b160:	5f534143 	0x5f534143
ffffffffa080b164:	2024534f 	addi	a0,at,21327
	...
ffffffffa080b170:	000a7325 	0xa7325
ffffffffa080b174:	00000000 	nop
ffffffffa080b178:	00007325 	0x7325
ffffffffa080b17c:	00000000 	nop
ffffffffa080b180:	00006325 	0x6325
ffffffffa080b184:	00000000 	nop
ffffffffa080b188:	00007370 	tge	zero,zero,0x1cd
ffffffffa080b18c:	00000000 	nop
ffffffffa080b190:	61656c63 	daddi	a1,a7,27747
ffffffffa080b194:	00000072 	tlt	zero,zero,0x1
ffffffffa080b198:	61656c63 	daddi	a1,a7,27747
ffffffffa080b19c:	6c612072 	ldr	at,8306(v1)
ffffffffa080b1a0:	0000006c 	0x6c
ffffffffa080b1a4:	00000000 	nop
ffffffffa080b1a8:	6c6c696b 	ldr	t0,26987(v1)
ffffffffa080b1ac:	00000000 	nop
ffffffffa080b1b0:	434f5250 	c0	0x14f5250
ffffffffa080b1b4:	20535345 	addi	s3,v0,21317
ffffffffa080b1b8:	64697028 	daddiu	a5,v1,28712
ffffffffa080b1bc:	2964253d 	slti	a0,a7,9533
ffffffffa080b1c0:	73616820 	clz	t1 or at,k1
ffffffffa080b1c4:	65656220 	daddiu	a1,a7,25120
ffffffffa080b1c8:	494b206e 	0x494b206e
ffffffffa080b1cc:	44454c4c 	0x44454c4c
ffffffffa080b1d0:	00000a2e 	0xa2e
ffffffffa080b1d4:	00000000 	nop
ffffffffa080b1d8:	434f5250 	c0	0x14f5250
ffffffffa080b1dc:	20535345 	addi	s3,v0,21317
ffffffffa080b1e0:	4e206425 	c3	0x206425
ffffffffa080b1e4:	4520544f 	bc1any2f	$fcc0,ffffffffa0820324 <__bbs_end+0x58d4>
ffffffffa080b1e8:	54534958 	bnel	v0,s3,ffffffffa081d74c <__bbs_end+0x2cfc>
ffffffffa080b1ec:	0a2e4445 	j	ffffffffa8b91114 <__bbs_end+0x83766c4>
ffffffffa080b1f0:	00000000 	nop
ffffffffa080b1f4:	00000000 	nop
ffffffffa080b1f8:	74696177 	jalx	ffffffffa1a585dc <__bbs_end+0x123db8c>
ffffffffa080b1fc:	00000000 	nop
ffffffffa080b200:	434f5250 	c0	0x14f5250
ffffffffa080b204:	20535345 	addi	s3,v0,21317
ffffffffa080b208:	57206425 	bnezl	t9,ffffffffa08242a0 <__bbs_end+0x9850>
ffffffffa080b20c:	20544941 	addi	s4,v0,18753
ffffffffa080b210:	43435553 	c0	0x1435553
ffffffffa080b214:	2e535345 	sltiu	s3,s2,21317
ffffffffa080b218:	0000000a 	movz	zero,zero,zero
ffffffffa080b21c:	00000000 	nop
ffffffffa080b220:	63657865 	daddi	a1,k1,30821
ffffffffa080b224:	00003020 	add	a2,zero,zero
ffffffffa080b228:	63657865 	daddi	a1,k1,30821
ffffffffa080b22c:	00003120 	0x3120
ffffffffa080b230:	73666b6d 	0x73666b6d
ffffffffa080b234:	00000000 	nop
ffffffffa080b238:	74617473 	jalx	ffffffffa185d1cc <__bbs_end+0x104277c>
ffffffffa080b23c:	00007366 	0x7366
ffffffffa080b240:	00006463 	0x6463
ffffffffa080b244:	00000000 	nop
ffffffffa080b248:	69646b6d 	ldl	a0,27501(a7)
ffffffffa080b24c:	00000072 	tlt	zero,zero,0x1
ffffffffa080b250:	69646d72 	ldl	a0,28018(a7)
ffffffffa080b254:	00000072 	tlt	zero,zero,0x1
ffffffffa080b258:	00006d72 	tlt	zero,zero,0x1b5
ffffffffa080b25c:	00000000 	nop
ffffffffa080b260:	0000736c 	0x736c
ffffffffa080b264:	00000000 	nop
ffffffffa080b268:	63756f74 	daddi	s5,k1,28532
ffffffffa080b26c:	00000068 	0x68
ffffffffa080b270:	00746163 	0x746163
ffffffffa080b274:	00000000 	nop
ffffffffa080b278:	00006e6c 	0x6e6c
ffffffffa080b27c:	00000000 	nop
ffffffffa080b280:	2d206e6c 	sltiu	zero,a5,28268
ffffffffa080b284:	00000073 	tltu	zero,zero,0x1
ffffffffa080b288:	63637553 	daddi	v1,k1,30035
ffffffffa080b28c:	66737365 	daddiu	s3,s3,29541
ffffffffa080b290:	796c6c75 	0x796c6c75
ffffffffa080b294:	65726320 	daddiu	s2,a7,25376
ffffffffa080b298:	20657461 	addi	a1,v1,29793
ffffffffa080b29c:	64726168 	daddiu	s2,v1,24936
ffffffffa080b2a0:	6e696c20 	ldr	a5,27680(s3)
ffffffffa080b2a4:	25203a6b 	addiu	zero,a5,14955
ffffffffa080b2a8:	3e2d2073 	0x3e2d2073
ffffffffa080b2ac:	0a732520 	j	ffffffffa9cc9480 <__bbs_end+0x94aea30>
ffffffffa080b2b0:	00000000 	nop
ffffffffa080b2b4:	00000000 	nop
ffffffffa080b2b8:	63637553 	daddi	v1,k1,30035
ffffffffa080b2bc:	66737365 	daddiu	s3,s3,29541
ffffffffa080b2c0:	796c6c75 	0x796c6c75
ffffffffa080b2c4:	65726320 	daddiu	s2,a7,25376
ffffffffa080b2c8:	20657461 	addi	a1,v1,29793
ffffffffa080b2cc:	74666f73 	jalx	ffffffffa199bdcc <__bbs_end+0x118137c>
ffffffffa080b2d0:	6e696c20 	ldr	a5,27680(s3)
ffffffffa080b2d4:	25203a6b 	addiu	zero,a5,14955
ffffffffa080b2d8:	3e2d2073 	0x3e2d2073
ffffffffa080b2dc:	0a732520 	j	ffffffffa9cc9480 <__bbs_end+0x94aea30>
ffffffffa080b2e0:	00000000 	nop
ffffffffa080b2e4:	00000000 	nop
ffffffffa080b2e8:	006e7572 	tlt	v1,t2,0x1d5
ffffffffa080b2ec:	00000000 	nop
ffffffffa080b2f0:	5252455b 	beql	s2,s2,ffffffffa081c860 <__bbs_end+0x1e10>
ffffffffa080b2f4:	205d524f 	addi	sp,v0,21071
ffffffffa080b2f8:	6f727245 	ldr	s2,29253(k1)
ffffffffa080b2fc:	6e492072 	ldr	a5,8306(s2)
ffffffffa080b300:	21747570 	addi	s4,a7,30064
ffffffffa080b304:	0000000a 	movz	zero,zero,zero
	...
ffffffffa080b310:	78742e31 	0x78742e31
ffffffffa080b314:	00000074 	teq	zero,zero,0x1
ffffffffa080b318:	6c6c6568 	ldr	t0,25960(v1)
ffffffffa080b31c:	6f77206f 	ldr	s7,8303(k1)
ffffffffa080b320:	21646c72 	addi	a0,a7,27762
ffffffffa080b324:	0000000a 	movz	zero,zero,zero
ffffffffa080b328:	00006325 	0x6325
ffffffffa080b32c:	00000000 	nop
ffffffffa080b330:	78742e32 	0x78742e32
ffffffffa080b334:	00000074 	teq	zero,zero,0x1
ffffffffa080b338:	696e6946 	ldl	t2,26950(a7)
ffffffffa080b33c:	77206873 	jalx	ffffffffac81a1cc <__bbs_end+0xbfff77c>
ffffffffa080b340:	65746972 	daddiu	s4,a7,26994
ffffffffa080b344:	6f6c6220 	ldr	t0,25120(k1)
ffffffffa080b348:	31206b63 	andi	zero,a5,0x6b63
ffffffffa080b34c:	00000000 	nop
ffffffffa080b350:	696e6946 	ldl	t2,26950(a7)
ffffffffa080b354:	77206873 	jalx	ffffffffac81a1cc <__bbs_end+0xbfff77c>
ffffffffa080b358:	65746972 	daddiu	s4,a7,26994
ffffffffa080b35c:	00000000 	nop
ffffffffa080b360:	696e6946 	ldl	t2,26950(a7)
ffffffffa080b364:	72206873 	0x72206873
ffffffffa080b368:	20646165 	addi	a0,v1,24933
ffffffffa080b36c:	636f6c62 	daddi	t3,k1,27746
ffffffffa080b370:	3a31206b 	xori	s1,s1,0x206b
ffffffffa080b374:	00000000 	nop
ffffffffa080b378:	696e6946 	ldl	t2,26950(a7)
ffffffffa080b37c:	72206873 	0x72206873
ffffffffa080b380:	20646165 	addi	a0,v1,24933
ffffffffa080b384:	0000003a 	dsrl	zero,zero,0x0
	...
