
main:     file format elf64-tradlittlemips


Disassembly of section .text:

ffffffffa0800200 <_start>:
ffffffffa0800200:	67bdfff0 	daddiu	sp,sp,-16
ffffffffa0800204:	ffbf0008 	sd	ra,8(sp)
ffffffffa0800208:	ffbe0000 	sd	s8,0(sp)
ffffffffa080020c:	03a0f02d 	move	s8,sp
ffffffffa0800210:	0c2000a8 	jal	ffffffffa08002a0 <asm_start>
ffffffffa0800214:	00000000 	nop
ffffffffa0800218:	0c2007c8 	jal	ffffffffa0801f20 <init_stack>
ffffffffa080021c:	00000000 	nop
ffffffffa0800220:	3c020000 	lui	v0,0x0
ffffffffa0800224:	64420000 	daddiu	v0,v0,0
ffffffffa0800228:	00021438 	dsll	v0,v0,0x10
ffffffffa080022c:	6442a080 	daddiu	v0,v0,-24448
ffffffffa0800230:	00021438 	dsll	v0,v0,0x10
ffffffffa0800234:	64447140 	daddiu	a0,v0,28992
ffffffffa0800238:	0c2011d7 	jal	ffffffffa080475c <printk>
ffffffffa080023c:	00000000 	nop
ffffffffa0800240:	0c200538 	jal	ffffffffa08014e0 <init_pcb>
ffffffffa0800244:	00000000 	nop
ffffffffa0800248:	3c020000 	lui	v0,0x0
ffffffffa080024c:	64420000 	daddiu	v0,v0,0
ffffffffa0800250:	00021438 	dsll	v0,v0,0x10
ffffffffa0800254:	6442a080 	daddiu	v0,v0,-24448
ffffffffa0800258:	00021438 	dsll	v0,v0,0x10
ffffffffa080025c:	64447170 	daddiu	a0,v0,29040
ffffffffa0800260:	0c2011d7 	jal	ffffffffa080475c <printk>
ffffffffa0800264:	00000000 	nop
ffffffffa0800268:	0c200344 	jal	ffffffffa0800d10 <init_screen>
ffffffffa080026c:	00000000 	nop
ffffffffa0800270:	3c020000 	lui	v0,0x0
ffffffffa0800274:	64420000 	daddiu	v0,v0,0
ffffffffa0800278:	00021438 	dsll	v0,v0,0x10
ffffffffa080027c:	6442a080 	daddiu	v0,v0,-24448
ffffffffa0800280:	00021438 	dsll	v0,v0,0x10
ffffffffa0800284:	64447198 	daddiu	a0,v0,29080
ffffffffa0800288:	0c2011d7 	jal	ffffffffa080475c <printk>
ffffffffa080028c:	00000000 	nop
ffffffffa0800290:	0c2000b2 	jal	ffffffffa08002c8 <do_scheduler>
ffffffffa0800294:	00000000 	nop
ffffffffa0800298:	082000a4 	j	ffffffffa0800290 <_start+0x90>
ffffffffa080029c:	00000000 	nop

ffffffffa08002a0 <asm_start>:
ffffffffa08002a0:	40806000 	mtc0	zero,c0_status
ffffffffa08002a4:	40809000 	mtc0	zero,c0_watchlo
ffffffffa08002a8:	40809800 	mtc0	zero,c0_watchhi
ffffffffa08002ac:	40088000 	mfc0	a4,c0_config
ffffffffa08002b0:	2401fff8 	li	at,-8
ffffffffa08002b4:	01014024 	and	a4,a4,at
ffffffffa08002b8:	35080002 	ori	a4,a4,0x2
ffffffffa08002bc:	40888000 	mtc0	a4,c0_config
ffffffffa08002c0:	03e00008 	jr	ra
ffffffffa08002c4:	00000000 	nop

ffffffffa08002c8 <do_scheduler>:
ffffffffa08002c8:	3c1a0000 	lui	k0,0x0
ffffffffa08002cc:	675a0000 	daddiu	k0,k0,0
ffffffffa08002d0:	001ad438 	dsll	k0,k0,0x10
ffffffffa08002d4:	675aa081 	daddiu	k0,k0,-24447
ffffffffa08002d8:	001ad438 	dsll	k0,k0,0x10
ffffffffa08002dc:	df5a9c10 	ld	k0,-25584(k0)
ffffffffa08002e0:	635a0140 	daddi	k0,k0,320
ffffffffa08002e4:	ff410008 	sd	at,8(k0)
ffffffffa08002e8:	ff420010 	sd	v0,16(k0)
ffffffffa08002ec:	ff430018 	sd	v1,24(k0)
ffffffffa08002f0:	ff440020 	sd	a0,32(k0)
ffffffffa08002f4:	ff450028 	sd	a1,40(k0)
ffffffffa08002f8:	ff460030 	sd	a2,48(k0)
ffffffffa08002fc:	ff470038 	sd	a3,56(k0)
ffffffffa0800300:	ff480040 	sd	a4,64(k0)
ffffffffa0800304:	ff490048 	sd	a5,72(k0)
ffffffffa0800308:	ff4a0050 	sd	a6,80(k0)
ffffffffa080030c:	ff4b0058 	sd	a7,88(k0)
ffffffffa0800310:	ff4c0060 	sd	t0,96(k0)
ffffffffa0800314:	ff4d0068 	sd	t1,104(k0)
ffffffffa0800318:	ff4e0070 	sd	t2,112(k0)
ffffffffa080031c:	ff4f0078 	sd	t3,120(k0)
ffffffffa0800320:	ff500080 	sd	s0,128(k0)
ffffffffa0800324:	ff510088 	sd	s1,136(k0)
ffffffffa0800328:	ff520090 	sd	s2,144(k0)
ffffffffa080032c:	ff530098 	sd	s3,152(k0)
ffffffffa0800330:	ff5400a0 	sd	s4,160(k0)
ffffffffa0800334:	ff5500a8 	sd	s5,168(k0)
ffffffffa0800338:	ff5600b0 	sd	s6,176(k0)
ffffffffa080033c:	ff5700b8 	sd	s7,184(k0)
ffffffffa0800340:	ff5800c0 	sd	t8,192(k0)
ffffffffa0800344:	ff5900c8 	sd	t9,200(k0)
ffffffffa0800348:	ff5c00e0 	sd	gp,224(k0)
ffffffffa080034c:	ff5d00e8 	sd	sp,232(k0)
ffffffffa0800350:	ff5e00f0 	sd	s8,240(k0)
ffffffffa0800354:	ff5f00f8 	sd	ra,248(k0)
ffffffffa0800358:	0c2008fa 	jal	ffffffffa08023e8 <scheduler>
ffffffffa080035c:	00000000 	nop
ffffffffa0800360:	3c1a0000 	lui	k0,0x0
ffffffffa0800364:	675a0000 	daddiu	k0,k0,0
ffffffffa0800368:	001ad438 	dsll	k0,k0,0x10
ffffffffa080036c:	675aa081 	daddiu	k0,k0,-24447
ffffffffa0800370:	001ad438 	dsll	k0,k0,0x10
ffffffffa0800374:	df5a9c10 	ld	k0,-25584(k0)
ffffffffa0800378:	635a0140 	daddi	k0,k0,320
ffffffffa080037c:	df410008 	ld	at,8(k0)
ffffffffa0800380:	df420010 	ld	v0,16(k0)
ffffffffa0800384:	df430018 	ld	v1,24(k0)
ffffffffa0800388:	df440020 	ld	a0,32(k0)
ffffffffa080038c:	df450028 	ld	a1,40(k0)
ffffffffa0800390:	df460030 	ld	a2,48(k0)
ffffffffa0800394:	df470038 	ld	a3,56(k0)
ffffffffa0800398:	df480040 	ld	a4,64(k0)
ffffffffa080039c:	df490048 	ld	a5,72(k0)
ffffffffa08003a0:	df4a0050 	ld	a6,80(k0)
ffffffffa08003a4:	df4b0058 	ld	a7,88(k0)
ffffffffa08003a8:	df4c0060 	ld	t0,96(k0)
ffffffffa08003ac:	df4d0068 	ld	t1,104(k0)
ffffffffa08003b0:	df4e0070 	ld	t2,112(k0)
ffffffffa08003b4:	df4f0078 	ld	t3,120(k0)
ffffffffa08003b8:	df500080 	ld	s0,128(k0)
ffffffffa08003bc:	df510088 	ld	s1,136(k0)
ffffffffa08003c0:	df520090 	ld	s2,144(k0)
ffffffffa08003c4:	df530098 	ld	s3,152(k0)
ffffffffa08003c8:	df5400a0 	ld	s4,160(k0)
ffffffffa08003cc:	df5500a8 	ld	s5,168(k0)
ffffffffa08003d0:	df5600b0 	ld	s6,176(k0)
ffffffffa08003d4:	df5700b8 	ld	s7,184(k0)
ffffffffa08003d8:	df5800c0 	ld	t8,192(k0)
ffffffffa08003dc:	df5900c8 	ld	t9,200(k0)
ffffffffa08003e0:	df5c00e0 	ld	gp,224(k0)
ffffffffa08003e4:	df5d00e8 	ld	sp,232(k0)
ffffffffa08003e8:	df5e00f0 	ld	s8,240(k0)
ffffffffa08003ec:	df5f00f8 	ld	ra,248(k0)
ffffffffa08003f0:	03e00008 	jr	ra
ffffffffa08003f4:	00000000 	nop

ffffffffa08003f8 <TLBexception_handler_entry>:
	...

ffffffffa0800400 <invoke_syscall>:
ffffffffa0800400:	67bdffd0 	daddiu	sp,sp,-48
ffffffffa0800404:	ffbf0028 	sd	ra,40(sp)
ffffffffa0800408:	ffbe0020 	sd	s8,32(sp)
ffffffffa080040c:	03a0f02d 	move	s8,sp
ffffffffa0800410:	0080102d 	move	v0,a0
ffffffffa0800414:	00021000 	sll	v0,v0,0x0
ffffffffa0800418:	a3c20010 	sb	v0,16(s8)
ffffffffa080041c:	3c028f0d 	lui	v0,0x8f0d
ffffffffa0800420:	34425570 	ori	v0,v0,0x5570
ffffffffa0800424:	ffc20000 	sd	v0,0(s8)
ffffffffa0800428:	83c20010 	lb	v0,16(s8)
ffffffffa080042c:	0040182d 	move	v1,v0
ffffffffa0800430:	dfc20000 	ld	v0,0(s8)
ffffffffa0800434:	0060202d 	move	a0,v1
ffffffffa0800438:	0040f809 	jalr	v0
ffffffffa080043c:	00000000 	nop
ffffffffa0800440:	03c0e82d 	move	sp,s8
ffffffffa0800444:	dfbf0028 	ld	ra,40(sp)
ffffffffa0800448:	dfbe0020 	ld	s8,32(sp)
ffffffffa080044c:	67bd0030 	daddiu	sp,sp,48
ffffffffa0800450:	03e00008 	jr	ra
ffffffffa0800454:	00000000 	nop

ffffffffa0800458 <port_write>:
ffffffffa0800458:	67bdffd0 	daddiu	sp,sp,-48
ffffffffa080045c:	ffbf0028 	sd	ra,40(sp)
ffffffffa0800460:	ffbe0020 	sd	s8,32(sp)
ffffffffa0800464:	03a0f02d 	move	s8,sp
ffffffffa0800468:	ffc40010 	sd	a0,16(s8)
ffffffffa080046c:	3c028f0d 	lui	v0,0x8f0d
ffffffffa0800470:	34425534 	ori	v0,v0,0x5534
ffffffffa0800474:	ffc20000 	sd	v0,0(s8)
ffffffffa0800478:	dfc20000 	ld	v0,0(s8)
ffffffffa080047c:	dfc40010 	ld	a0,16(s8)
ffffffffa0800480:	0040f809 	jalr	v0
ffffffffa0800484:	00000000 	nop
ffffffffa0800488:	03c0e82d 	move	sp,s8
ffffffffa080048c:	dfbf0028 	ld	ra,40(sp)
ffffffffa0800490:	dfbe0020 	ld	s8,32(sp)
ffffffffa0800494:	67bd0030 	daddiu	sp,sp,48
ffffffffa0800498:	03e00008 	jr	ra
ffffffffa080049c:	00000000 	nop

ffffffffa08004a0 <sdwrite>:
ffffffffa08004a0:	67bdffd0 	daddiu	sp,sp,-48
ffffffffa08004a4:	ffbf0028 	sd	ra,40(sp)
ffffffffa08004a8:	ffbe0020 	sd	s8,32(sp)
ffffffffa08004ac:	03a0f02d 	move	s8,sp
ffffffffa08004b0:	ffc40010 	sd	a0,16(s8)
ffffffffa08004b4:	00a0182d 	move	v1,a1
ffffffffa08004b8:	00c0102d 	move	v0,a2
ffffffffa08004bc:	00031800 	sll	v1,v1,0x0
ffffffffa08004c0:	afc30018 	sw	v1,24(s8)
ffffffffa08004c4:	00021000 	sll	v0,v0,0x0
ffffffffa08004c8:	afc2001c 	sw	v0,28(s8)
ffffffffa08004cc:	3c028f0d 	lui	v0,0x8f0d
ffffffffa08004d0:	34425d54 	ori	v0,v0,0x5d54
ffffffffa08004d4:	ffc20000 	sd	v0,0(s8)
ffffffffa08004d8:	8fc50018 	lw	a1,24(s8)
ffffffffa08004dc:	8fc3001c 	lw	v1,28(s8)
ffffffffa08004e0:	dfc20000 	ld	v0,0(s8)
ffffffffa08004e4:	dfc40010 	ld	a0,16(s8)
ffffffffa08004e8:	0060302d 	move	a2,v1
ffffffffa08004ec:	0040f809 	jalr	v0
ffffffffa08004f0:	00000000 	nop
ffffffffa08004f4:	8fc2001c 	lw	v0,28(s8)
ffffffffa08004f8:	03c0e82d 	move	sp,s8
ffffffffa08004fc:	dfbf0028 	ld	ra,40(sp)
ffffffffa0800500:	dfbe0020 	ld	s8,32(sp)
ffffffffa0800504:	67bd0030 	daddiu	sp,sp,48
ffffffffa0800508:	03e00008 	jr	ra
ffffffffa080050c:	00000000 	nop

ffffffffa0800510 <sdread>:
ffffffffa0800510:	67bdffd0 	daddiu	sp,sp,-48
ffffffffa0800514:	ffbf0028 	sd	ra,40(sp)
ffffffffa0800518:	ffbe0020 	sd	s8,32(sp)
ffffffffa080051c:	03a0f02d 	move	s8,sp
ffffffffa0800520:	ffc40010 	sd	a0,16(s8)
ffffffffa0800524:	00a0182d 	move	v1,a1
ffffffffa0800528:	00c0102d 	move	v0,a2
ffffffffa080052c:	00031800 	sll	v1,v1,0x0
ffffffffa0800530:	afc30018 	sw	v1,24(s8)
ffffffffa0800534:	00021000 	sll	v0,v0,0x0
ffffffffa0800538:	afc2001c 	sw	v0,28(s8)
ffffffffa080053c:	3c028f0d 	lui	v0,0x8f0d
ffffffffa0800540:	34425e10 	ori	v0,v0,0x5e10
ffffffffa0800544:	ffc20000 	sd	v0,0(s8)
ffffffffa0800548:	8fc50018 	lw	a1,24(s8)
ffffffffa080054c:	8fc3001c 	lw	v1,28(s8)
ffffffffa0800550:	dfc20000 	ld	v0,0(s8)
ffffffffa0800554:	dfc40010 	ld	a0,16(s8)
ffffffffa0800558:	0060302d 	move	a2,v1
ffffffffa080055c:	0040f809 	jalr	v0
ffffffffa0800560:	00000000 	nop
ffffffffa0800564:	8fc2001c 	lw	v0,28(s8)
ffffffffa0800568:	03c0e82d 	move	sp,s8
ffffffffa080056c:	dfbf0028 	ld	ra,40(sp)
ffffffffa0800570:	dfbe0020 	ld	s8,32(sp)
ffffffffa0800574:	67bd0030 	daddiu	sp,sp,48
ffffffffa0800578:	03e00008 	jr	ra
ffffffffa080057c:	00000000 	nop

ffffffffa0800580 <sd_card_read>:
ffffffffa0800580:	67bdffe0 	daddiu	sp,sp,-32
ffffffffa0800584:	ffbf0018 	sd	ra,24(sp)
ffffffffa0800588:	ffbe0010 	sd	s8,16(sp)
ffffffffa080058c:	03a0f02d 	move	s8,sp
ffffffffa0800590:	ffc40000 	sd	a0,0(s8)
ffffffffa0800594:	00a0182d 	move	v1,a1
ffffffffa0800598:	00c0102d 	move	v0,a2
ffffffffa080059c:	00031800 	sll	v1,v1,0x0
ffffffffa08005a0:	afc30008 	sw	v1,8(s8)
ffffffffa08005a4:	00021000 	sll	v0,v0,0x0
ffffffffa08005a8:	afc2000c 	sw	v0,12(s8)
ffffffffa08005ac:	8fc2000c 	lw	v0,12(s8)
ffffffffa08005b0:	8fc30008 	lw	v1,8(s8)
ffffffffa08005b4:	dfc40000 	ld	a0,0(s8)
ffffffffa08005b8:	0060282d 	move	a1,v1
ffffffffa08005bc:	0040302d 	move	a2,v0
ffffffffa08005c0:	0c200144 	jal	ffffffffa0800510 <sdread>
ffffffffa08005c4:	00000000 	nop
ffffffffa08005c8:	03c0e82d 	move	sp,s8
ffffffffa08005cc:	dfbf0018 	ld	ra,24(sp)
ffffffffa08005d0:	dfbe0010 	ld	s8,16(sp)
ffffffffa08005d4:	67bd0020 	daddiu	sp,sp,32
ffffffffa08005d8:	03e00008 	jr	ra
ffffffffa08005dc:	00000000 	nop

ffffffffa08005e0 <sd_card_write>:
ffffffffa08005e0:	67bdffe0 	daddiu	sp,sp,-32
ffffffffa08005e4:	ffbf0018 	sd	ra,24(sp)
ffffffffa08005e8:	ffbe0010 	sd	s8,16(sp)
ffffffffa08005ec:	03a0f02d 	move	s8,sp
ffffffffa08005f0:	ffc40000 	sd	a0,0(s8)
ffffffffa08005f4:	00a0182d 	move	v1,a1
ffffffffa08005f8:	00c0102d 	move	v0,a2
ffffffffa08005fc:	00031800 	sll	v1,v1,0x0
ffffffffa0800600:	afc30008 	sw	v1,8(s8)
ffffffffa0800604:	00021000 	sll	v0,v0,0x0
ffffffffa0800608:	afc2000c 	sw	v0,12(s8)
ffffffffa080060c:	8fc2000c 	lw	v0,12(s8)
ffffffffa0800610:	8fc30008 	lw	v1,8(s8)
ffffffffa0800614:	dfc40000 	ld	a0,0(s8)
ffffffffa0800618:	0060282d 	move	a1,v1
ffffffffa080061c:	0040302d 	move	a2,v0
ffffffffa0800620:	0c200128 	jal	ffffffffa08004a0 <sdwrite>
ffffffffa0800624:	00000000 	nop
ffffffffa0800628:	03c0e82d 	move	sp,s8
ffffffffa080062c:	dfbf0018 	ld	ra,24(sp)
ffffffffa0800630:	dfbe0010 	ld	s8,16(sp)
ffffffffa0800634:	67bd0020 	daddiu	sp,sp,32
ffffffffa0800638:	03e00008 	jr	ra
ffffffffa080063c:	00000000 	nop

ffffffffa0800640 <vt100_move_cursor>:
ffffffffa0800640:	67bdffe0 	daddiu	sp,sp,-32
ffffffffa0800644:	ffbf0018 	sd	ra,24(sp)
ffffffffa0800648:	ffbe0010 	sd	s8,16(sp)
ffffffffa080064c:	03a0f02d 	move	s8,sp
ffffffffa0800650:	0080182d 	move	v1,a0
ffffffffa0800654:	00a0102d 	move	v0,a1
ffffffffa0800658:	00031800 	sll	v1,v1,0x0
ffffffffa080065c:	afc30000 	sw	v1,0(s8)
ffffffffa0800660:	00021000 	sll	v0,v0,0x0
ffffffffa0800664:	afc20004 	sw	v0,4(s8)
ffffffffa0800668:	8fc60004 	lw	a2,4(s8)
ffffffffa080066c:	8fc30000 	lw	v1,0(s8)
ffffffffa0800670:	3c020000 	lui	v0,0x0
ffffffffa0800674:	64420000 	daddiu	v0,v0,0
ffffffffa0800678:	00021438 	dsll	v0,v0,0x10
ffffffffa080067c:	6442a080 	daddiu	v0,v0,-24448
ffffffffa0800680:	00021438 	dsll	v0,v0,0x10
ffffffffa0800684:	64447120 	daddiu	a0,v0,28960
ffffffffa0800688:	2405001b 	li	a1,27
ffffffffa080068c:	0060382d 	move	a3,v1
ffffffffa0800690:	0c2011d7 	jal	ffffffffa080475c <printk>
ffffffffa0800694:	00000000 	nop
ffffffffa0800698:	03c0e82d 	move	sp,s8
ffffffffa080069c:	dfbf0018 	ld	ra,24(sp)
ffffffffa08006a0:	dfbe0010 	ld	s8,16(sp)
ffffffffa08006a4:	67bd0020 	daddiu	sp,sp,32
ffffffffa08006a8:	03e00008 	jr	ra
ffffffffa08006ac:	00000000 	nop

ffffffffa08006b0 <vt100_clear>:
ffffffffa08006b0:	67bdfff0 	daddiu	sp,sp,-16
ffffffffa08006b4:	ffbf0008 	sd	ra,8(sp)
ffffffffa08006b8:	ffbe0000 	sd	s8,0(sp)
ffffffffa08006bc:	03a0f02d 	move	s8,sp
ffffffffa08006c0:	3c020000 	lui	v0,0x0
ffffffffa08006c4:	64420000 	daddiu	v0,v0,0
ffffffffa08006c8:	00021438 	dsll	v0,v0,0x10
ffffffffa08006cc:	6442a080 	daddiu	v0,v0,-24448
ffffffffa08006d0:	00021438 	dsll	v0,v0,0x10
ffffffffa08006d4:	64447130 	daddiu	a0,v0,28976
ffffffffa08006d8:	2405001b 	li	a1,27
ffffffffa08006dc:	0c2011d7 	jal	ffffffffa080475c <printk>
ffffffffa08006e0:	00000000 	nop
ffffffffa08006e4:	03c0e82d 	move	sp,s8
ffffffffa08006e8:	dfbf0008 	ld	ra,8(sp)
ffffffffa08006ec:	dfbe0000 	ld	s8,0(sp)
ffffffffa08006f0:	67bd0010 	daddiu	sp,sp,16
ffffffffa08006f4:	03e00008 	jr	ra
ffffffffa08006f8:	00000000 	nop

ffffffffa08006fc <vt100_hidden_cursor>:
ffffffffa08006fc:	67bdfff0 	daddiu	sp,sp,-16
ffffffffa0800700:	ffbf0008 	sd	ra,8(sp)
ffffffffa0800704:	ffbe0000 	sd	s8,0(sp)
ffffffffa0800708:	03a0f02d 	move	s8,sp
ffffffffa080070c:	3c020000 	lui	v0,0x0
ffffffffa0800710:	64420000 	daddiu	v0,v0,0
ffffffffa0800714:	00021438 	dsll	v0,v0,0x10
ffffffffa0800718:	6442a080 	daddiu	v0,v0,-24448
ffffffffa080071c:	00021438 	dsll	v0,v0,0x10
ffffffffa0800720:	64447138 	daddiu	a0,v0,28984
ffffffffa0800724:	2405001b 	li	a1,27
ffffffffa0800728:	0c2011d7 	jal	ffffffffa080475c <printk>
ffffffffa080072c:	00000000 	nop
ffffffffa0800730:	03c0e82d 	move	sp,s8
ffffffffa0800734:	dfbf0008 	ld	ra,8(sp)
ffffffffa0800738:	dfbe0000 	ld	s8,0(sp)
ffffffffa080073c:	67bd0010 	daddiu	sp,sp,16
ffffffffa0800740:	03e00008 	jr	ra
ffffffffa0800744:	00000000 	nop

ffffffffa0800748 <screen_scroll>:
ffffffffa0800748:	67bdffd0 	daddiu	sp,sp,-48
ffffffffa080074c:	ffbe0028 	sd	s8,40(sp)
ffffffffa0800750:	03a0f02d 	move	s8,sp
ffffffffa0800754:	0080182d 	move	v1,a0
ffffffffa0800758:	00a0102d 	move	v0,a1
ffffffffa080075c:	00031800 	sll	v1,v1,0x0
ffffffffa0800760:	afc30010 	sw	v1,16(s8)
ffffffffa0800764:	00021000 	sll	v0,v0,0x0
ffffffffa0800768:	afc20014 	sw	v0,20(s8)
ffffffffa080076c:	8fc20010 	lw	v0,16(s8)
ffffffffa0800770:	afc20000 	sw	v0,0(s8)
ffffffffa0800774:	082001fb 	j	ffffffffa08007ec <screen_scroll+0xa4>
ffffffffa0800778:	00000000 	nop
ffffffffa080077c:	afc00004 	sw	zero,4(s8)
ffffffffa0800780:	082001f4 	j	ffffffffa08007d0 <screen_scroll+0x88>
ffffffffa0800784:	00000000 	nop
ffffffffa0800788:	8fc20000 	lw	v0,0(s8)
ffffffffa080078c:	00021100 	sll	v0,v0,0x4
ffffffffa0800790:	00021880 	sll	v1,v0,0x2
ffffffffa0800794:	00431021 	addu	v0,v0,v1
ffffffffa0800798:	8fc30004 	lw	v1,4(s8)
ffffffffa080079c:	00621021 	addu	v0,v1,v0
ffffffffa08007a0:	0040182d 	move	v1,v0
ffffffffa08007a4:	3c020000 	lui	v0,0x0
ffffffffa08007a8:	64420000 	daddiu	v0,v0,0
ffffffffa08007ac:	00021438 	dsll	v0,v0,0x10
ffffffffa08007b0:	6442a081 	daddiu	v0,v0,-24447
ffffffffa08007b4:	00021438 	dsll	v0,v0,0x10
ffffffffa08007b8:	64428df0 	daddiu	v0,v0,-29200
ffffffffa08007bc:	0062102d 	daddu	v0,v1,v0
ffffffffa08007c0:	a0400000 	sb	zero,0(v0)
ffffffffa08007c4:	8fc20004 	lw	v0,4(s8)
ffffffffa08007c8:	24420001 	addiu	v0,v0,1
ffffffffa08007cc:	afc20004 	sw	v0,4(s8)
ffffffffa08007d0:	8fc20004 	lw	v0,4(s8)
ffffffffa08007d4:	28420050 	slti	v0,v0,80
ffffffffa08007d8:	1440ffeb 	bnez	v0,ffffffffa0800788 <screen_scroll+0x40>
ffffffffa08007dc:	00000000 	nop
ffffffffa08007e0:	8fc20000 	lw	v0,0(s8)
ffffffffa08007e4:	24420001 	addiu	v0,v0,1
ffffffffa08007e8:	afc20000 	sw	v0,0(s8)
ffffffffa08007ec:	8fc30000 	lw	v1,0(s8)
ffffffffa08007f0:	8fc20014 	lw	v0,20(s8)
ffffffffa08007f4:	0043102a 	slt	v0,v0,v1
ffffffffa08007f8:	1040ffe0 	beqz	v0,ffffffffa080077c <screen_scroll+0x34>
ffffffffa08007fc:	00000000 	nop
ffffffffa0800800:	8fc20010 	lw	v0,16(s8)
ffffffffa0800804:	afc20000 	sw	v0,0(s8)
ffffffffa0800808:	08200246 	j	ffffffffa0800918 <screen_scroll+0x1d0>
ffffffffa080080c:	00000000 	nop
ffffffffa0800810:	afc00004 	sw	zero,4(s8)
ffffffffa0800814:	0820023f 	j	ffffffffa08008fc <screen_scroll+0x1b4>
ffffffffa0800818:	00000000 	nop
ffffffffa080081c:	8fc30000 	lw	v1,0(s8)
ffffffffa0800820:	8fc20014 	lw	v0,20(s8)
ffffffffa0800824:	14620013 	bne	v1,v0,ffffffffa0800874 <screen_scroll+0x12c>
ffffffffa0800828:	00000000 	nop
ffffffffa080082c:	8fc20000 	lw	v0,0(s8)
ffffffffa0800830:	00021100 	sll	v0,v0,0x4
ffffffffa0800834:	00021880 	sll	v1,v0,0x2
ffffffffa0800838:	00431021 	addu	v0,v0,v1
ffffffffa080083c:	8fc30004 	lw	v1,4(s8)
ffffffffa0800840:	00621021 	addu	v0,v1,v0
ffffffffa0800844:	0040182d 	move	v1,v0
ffffffffa0800848:	3c020000 	lui	v0,0x0
ffffffffa080084c:	64420000 	daddiu	v0,v0,0
ffffffffa0800850:	00021438 	dsll	v0,v0,0x10
ffffffffa0800854:	6442a081 	daddiu	v0,v0,-24447
ffffffffa0800858:	00021438 	dsll	v0,v0,0x10
ffffffffa080085c:	64428490 	daddiu	v0,v0,-31600
ffffffffa0800860:	0062102d 	daddu	v0,v1,v0
ffffffffa0800864:	24030020 	li	v1,32
ffffffffa0800868:	a0430000 	sb	v1,0(v0)
ffffffffa080086c:	0820023c 	j	ffffffffa08008f0 <screen_scroll+0x1a8>
ffffffffa0800870:	00000000 	nop
ffffffffa0800874:	8fc20000 	lw	v0,0(s8)
ffffffffa0800878:	00021100 	sll	v0,v0,0x4
ffffffffa080087c:	00021880 	sll	v1,v0,0x2
ffffffffa0800880:	00431021 	addu	v0,v0,v1
ffffffffa0800884:	8fc30004 	lw	v1,4(s8)
ffffffffa0800888:	00621021 	addu	v0,v1,v0
ffffffffa080088c:	0040202d 	move	a0,v0
ffffffffa0800890:	8fc20000 	lw	v0,0(s8)
ffffffffa0800894:	24420001 	addiu	v0,v0,1
ffffffffa0800898:	00021100 	sll	v0,v0,0x4
ffffffffa080089c:	00021880 	sll	v1,v0,0x2
ffffffffa08008a0:	00431021 	addu	v0,v0,v1
ffffffffa08008a4:	8fc30004 	lw	v1,4(s8)
ffffffffa08008a8:	00621021 	addu	v0,v1,v0
ffffffffa08008ac:	0040182d 	move	v1,v0
ffffffffa08008b0:	3c020000 	lui	v0,0x0
ffffffffa08008b4:	64420000 	daddiu	v0,v0,0
ffffffffa08008b8:	00021438 	dsll	v0,v0,0x10
ffffffffa08008bc:	6442a081 	daddiu	v0,v0,-24447
ffffffffa08008c0:	00021438 	dsll	v0,v0,0x10
ffffffffa08008c4:	64428490 	daddiu	v0,v0,-31600
ffffffffa08008c8:	0062102d 	daddu	v0,v1,v0
ffffffffa08008cc:	80430000 	lb	v1,0(v0)
ffffffffa08008d0:	3c020000 	lui	v0,0x0
ffffffffa08008d4:	64420000 	daddiu	v0,v0,0
ffffffffa08008d8:	00021438 	dsll	v0,v0,0x10
ffffffffa08008dc:	6442a081 	daddiu	v0,v0,-24447
ffffffffa08008e0:	00021438 	dsll	v0,v0,0x10
ffffffffa08008e4:	64428490 	daddiu	v0,v0,-31600
ffffffffa08008e8:	0082102d 	daddu	v0,a0,v0
ffffffffa08008ec:	a0430000 	sb	v1,0(v0)
ffffffffa08008f0:	8fc20004 	lw	v0,4(s8)
ffffffffa08008f4:	24420001 	addiu	v0,v0,1
ffffffffa08008f8:	afc20004 	sw	v0,4(s8)
ffffffffa08008fc:	8fc20004 	lw	v0,4(s8)
ffffffffa0800900:	28420050 	slti	v0,v0,80
ffffffffa0800904:	1440ffc5 	bnez	v0,ffffffffa080081c <screen_scroll+0xd4>
ffffffffa0800908:	00000000 	nop
ffffffffa080090c:	8fc20000 	lw	v0,0(s8)
ffffffffa0800910:	24420001 	addiu	v0,v0,1
ffffffffa0800914:	afc20000 	sw	v0,0(s8)
ffffffffa0800918:	8fc30000 	lw	v1,0(s8)
ffffffffa080091c:	8fc20014 	lw	v0,20(s8)
ffffffffa0800920:	0043102a 	slt	v0,v0,v1
ffffffffa0800924:	1040ffba 	beqz	v0,ffffffffa0800810 <screen_scroll+0xc8>
ffffffffa0800928:	00000000 	nop
ffffffffa080092c:	03c0e82d 	move	sp,s8
ffffffffa0800930:	dfbe0028 	ld	s8,40(sp)
ffffffffa0800934:	67bd0030 	daddiu	sp,sp,48
ffffffffa0800938:	03e00008 	jr	ra
ffffffffa080093c:	00000000 	nop

ffffffffa0800940 <screen_write_ch>:
ffffffffa0800940:	67bdffe0 	daddiu	sp,sp,-32
ffffffffa0800944:	ffbf0018 	sd	ra,24(sp)
ffffffffa0800948:	ffbe0010 	sd	s8,16(sp)
ffffffffa080094c:	03a0f02d 	move	s8,sp
ffffffffa0800950:	0080102d 	move	v0,a0
ffffffffa0800954:	00021000 	sll	v0,v0,0x0
ffffffffa0800958:	a3c20000 	sb	v0,0(s8)
ffffffffa080095c:	83c30000 	lb	v1,0(s8)
ffffffffa0800960:	2402000a 	li	v0,10
ffffffffa0800964:	14620017 	bne	v1,v0,ffffffffa08009c4 <screen_write_ch+0x84>
ffffffffa0800968:	00000000 	nop
ffffffffa080096c:	3c020000 	lui	v0,0x0
ffffffffa0800970:	64420000 	daddiu	v0,v0,0
ffffffffa0800974:	00021438 	dsll	v0,v0,0x10
ffffffffa0800978:	6442a081 	daddiu	v0,v0,-24447
ffffffffa080097c:	00021438 	dsll	v0,v0,0x10
ffffffffa0800980:	ac4098e0 	sw	zero,-26400(v0)
ffffffffa0800984:	3c020000 	lui	v0,0x0
ffffffffa0800988:	64420000 	daddiu	v0,v0,0
ffffffffa080098c:	00021438 	dsll	v0,v0,0x10
ffffffffa0800990:	6442a081 	daddiu	v0,v0,-24447
ffffffffa0800994:	00021438 	dsll	v0,v0,0x10
ffffffffa0800998:	8c4298e4 	lw	v0,-26396(v0)
ffffffffa080099c:	24420001 	addiu	v0,v0,1
ffffffffa08009a0:	0040182d 	move	v1,v0
ffffffffa08009a4:	3c020000 	lui	v0,0x0
ffffffffa08009a8:	64420000 	daddiu	v0,v0,0
ffffffffa08009ac:	00021438 	dsll	v0,v0,0x10
ffffffffa08009b0:	6442a081 	daddiu	v0,v0,-24447
ffffffffa08009b4:	00021438 	dsll	v0,v0,0x10
ffffffffa08009b8:	ac4398e4 	sw	v1,-26396(v0)
ffffffffa08009bc:	082002eb 	j	ffffffffa0800bac <screen_write_ch+0x26c>
ffffffffa08009c0:	00000000 	nop
ffffffffa08009c4:	83c30000 	lb	v1,0(s8)
ffffffffa08009c8:	24020008 	li	v0,8
ffffffffa08009cc:	14620034 	bne	v1,v0,ffffffffa0800aa0 <screen_write_ch+0x160>
ffffffffa08009d0:	00000000 	nop
ffffffffa08009d4:	3c020000 	lui	v0,0x0
ffffffffa08009d8:	64420000 	daddiu	v0,v0,0
ffffffffa08009dc:	00021438 	dsll	v0,v0,0x10
ffffffffa08009e0:	6442a081 	daddiu	v0,v0,-24447
ffffffffa08009e4:	00021438 	dsll	v0,v0,0x10
ffffffffa08009e8:	8c4298e0 	lw	v0,-26400(v0)
ffffffffa08009ec:	1840006f 	blez	v0,ffffffffa0800bac <screen_write_ch+0x26c>
ffffffffa08009f0:	00000000 	nop
ffffffffa08009f4:	3c020000 	lui	v0,0x0
ffffffffa08009f8:	64420000 	daddiu	v0,v0,0
ffffffffa08009fc:	00021438 	dsll	v0,v0,0x10
ffffffffa0800a00:	6442a081 	daddiu	v0,v0,-24447
ffffffffa0800a04:	00021438 	dsll	v0,v0,0x10
ffffffffa0800a08:	8c4298e0 	lw	v0,-26400(v0)
ffffffffa0800a0c:	2442ffff 	addiu	v0,v0,-1
ffffffffa0800a10:	0040182d 	move	v1,v0
ffffffffa0800a14:	3c020000 	lui	v0,0x0
ffffffffa0800a18:	64420000 	daddiu	v0,v0,0
ffffffffa0800a1c:	00021438 	dsll	v0,v0,0x10
ffffffffa0800a20:	6442a081 	daddiu	v0,v0,-24447
ffffffffa0800a24:	00021438 	dsll	v0,v0,0x10
ffffffffa0800a28:	ac4398e0 	sw	v1,-26400(v0)
ffffffffa0800a2c:	3c020000 	lui	v0,0x0
ffffffffa0800a30:	64420000 	daddiu	v0,v0,0
ffffffffa0800a34:	00021438 	dsll	v0,v0,0x10
ffffffffa0800a38:	6442a081 	daddiu	v0,v0,-24447
ffffffffa0800a3c:	00021438 	dsll	v0,v0,0x10
ffffffffa0800a40:	8c4298e4 	lw	v0,-26396(v0)
ffffffffa0800a44:	00021100 	sll	v0,v0,0x4
ffffffffa0800a48:	00021880 	sll	v1,v0,0x2
ffffffffa0800a4c:	00431021 	addu	v0,v0,v1
ffffffffa0800a50:	0040182d 	move	v1,v0
ffffffffa0800a54:	3c020000 	lui	v0,0x0
ffffffffa0800a58:	64420000 	daddiu	v0,v0,0
ffffffffa0800a5c:	00021438 	dsll	v0,v0,0x10
ffffffffa0800a60:	6442a081 	daddiu	v0,v0,-24447
ffffffffa0800a64:	00021438 	dsll	v0,v0,0x10
ffffffffa0800a68:	8c4298e0 	lw	v0,-26400(v0)
ffffffffa0800a6c:	00621021 	addu	v0,v1,v0
ffffffffa0800a70:	0040182d 	move	v1,v0
ffffffffa0800a74:	3c020000 	lui	v0,0x0
ffffffffa0800a78:	64420000 	daddiu	v0,v0,0
ffffffffa0800a7c:	00021438 	dsll	v0,v0,0x10
ffffffffa0800a80:	6442a081 	daddiu	v0,v0,-24447
ffffffffa0800a84:	00021438 	dsll	v0,v0,0x10
ffffffffa0800a88:	64428490 	daddiu	v0,v0,-31600
ffffffffa0800a8c:	0062102d 	daddu	v0,v1,v0
ffffffffa0800a90:	24030020 	li	v1,32
ffffffffa0800a94:	a0430000 	sb	v1,0(v0)
ffffffffa0800a98:	082002eb 	j	ffffffffa0800bac <screen_write_ch+0x26c>
ffffffffa0800a9c:	00000000 	nop
ffffffffa0800aa0:	83c30000 	lb	v1,0(s8)
ffffffffa0800aa4:	2402000d 	li	v0,13
ffffffffa0800aa8:	14620017 	bne	v1,v0,ffffffffa0800b08 <screen_write_ch+0x1c8>
ffffffffa0800aac:	00000000 	nop
ffffffffa0800ab0:	3c020000 	lui	v0,0x0
ffffffffa0800ab4:	64420000 	daddiu	v0,v0,0
ffffffffa0800ab8:	00021438 	dsll	v0,v0,0x10
ffffffffa0800abc:	6442a081 	daddiu	v0,v0,-24447
ffffffffa0800ac0:	00021438 	dsll	v0,v0,0x10
ffffffffa0800ac4:	ac4098e0 	sw	zero,-26400(v0)
ffffffffa0800ac8:	3c020000 	lui	v0,0x0
ffffffffa0800acc:	64420000 	daddiu	v0,v0,0
ffffffffa0800ad0:	00021438 	dsll	v0,v0,0x10
ffffffffa0800ad4:	6442a081 	daddiu	v0,v0,-24447
ffffffffa0800ad8:	00021438 	dsll	v0,v0,0x10
ffffffffa0800adc:	8c4298e4 	lw	v0,-26396(v0)
ffffffffa0800ae0:	24420001 	addiu	v0,v0,1
ffffffffa0800ae4:	0040182d 	move	v1,v0
ffffffffa0800ae8:	3c020000 	lui	v0,0x0
ffffffffa0800aec:	64420000 	daddiu	v0,v0,0
ffffffffa0800af0:	00021438 	dsll	v0,v0,0x10
ffffffffa0800af4:	6442a081 	daddiu	v0,v0,-24447
ffffffffa0800af8:	00021438 	dsll	v0,v0,0x10
ffffffffa0800afc:	ac4398e4 	sw	v1,-26396(v0)
ffffffffa0800b00:	082002eb 	j	ffffffffa0800bac <screen_write_ch+0x26c>
ffffffffa0800b04:	00000000 	nop
ffffffffa0800b08:	3c020000 	lui	v0,0x0
ffffffffa0800b0c:	64420000 	daddiu	v0,v0,0
ffffffffa0800b10:	00021438 	dsll	v0,v0,0x10
ffffffffa0800b14:	6442a081 	daddiu	v0,v0,-24447
ffffffffa0800b18:	00021438 	dsll	v0,v0,0x10
ffffffffa0800b1c:	8c4298e4 	lw	v0,-26396(v0)
ffffffffa0800b20:	00021100 	sll	v0,v0,0x4
ffffffffa0800b24:	00021880 	sll	v1,v0,0x2
ffffffffa0800b28:	00431021 	addu	v0,v0,v1
ffffffffa0800b2c:	0040182d 	move	v1,v0
ffffffffa0800b30:	3c020000 	lui	v0,0x0
ffffffffa0800b34:	64420000 	daddiu	v0,v0,0
ffffffffa0800b38:	00021438 	dsll	v0,v0,0x10
ffffffffa0800b3c:	6442a081 	daddiu	v0,v0,-24447
ffffffffa0800b40:	00021438 	dsll	v0,v0,0x10
ffffffffa0800b44:	8c4298e0 	lw	v0,-26400(v0)
ffffffffa0800b48:	00621021 	addu	v0,v1,v0
ffffffffa0800b4c:	0040182d 	move	v1,v0
ffffffffa0800b50:	3c020000 	lui	v0,0x0
ffffffffa0800b54:	64420000 	daddiu	v0,v0,0
ffffffffa0800b58:	00021438 	dsll	v0,v0,0x10
ffffffffa0800b5c:	6442a081 	daddiu	v0,v0,-24447
ffffffffa0800b60:	00021438 	dsll	v0,v0,0x10
ffffffffa0800b64:	64428490 	daddiu	v0,v0,-31600
ffffffffa0800b68:	0062102d 	daddu	v0,v1,v0
ffffffffa0800b6c:	93c30000 	lbu	v1,0(s8)
ffffffffa0800b70:	a0430000 	sb	v1,0(v0)
ffffffffa0800b74:	3c020000 	lui	v0,0x0
ffffffffa0800b78:	64420000 	daddiu	v0,v0,0
ffffffffa0800b7c:	00021438 	dsll	v0,v0,0x10
ffffffffa0800b80:	6442a081 	daddiu	v0,v0,-24447
ffffffffa0800b84:	00021438 	dsll	v0,v0,0x10
ffffffffa0800b88:	8c4298e0 	lw	v0,-26400(v0)
ffffffffa0800b8c:	24420001 	addiu	v0,v0,1
ffffffffa0800b90:	0040182d 	move	v1,v0
ffffffffa0800b94:	3c020000 	lui	v0,0x0
ffffffffa0800b98:	64420000 	daddiu	v0,v0,0
ffffffffa0800b9c:	00021438 	dsll	v0,v0,0x10
ffffffffa0800ba0:	6442a081 	daddiu	v0,v0,-24447
ffffffffa0800ba4:	00021438 	dsll	v0,v0,0x10
ffffffffa0800ba8:	ac4398e0 	sw	v1,-26400(v0)
ffffffffa0800bac:	3c020000 	lui	v0,0x0
ffffffffa0800bb0:	64420000 	daddiu	v0,v0,0
ffffffffa0800bb4:	00021438 	dsll	v0,v0,0x10
ffffffffa0800bb8:	6442a081 	daddiu	v0,v0,-24447
ffffffffa0800bbc:	00021438 	dsll	v0,v0,0x10
ffffffffa0800bc0:	8c4298e0 	lw	v0,-26400(v0)
ffffffffa0800bc4:	04410007 	bgez	v0,ffffffffa0800be4 <screen_write_ch+0x2a4>
ffffffffa0800bc8:	00000000 	nop
ffffffffa0800bcc:	3c020000 	lui	v0,0x0
ffffffffa0800bd0:	64420000 	daddiu	v0,v0,0
ffffffffa0800bd4:	00021438 	dsll	v0,v0,0x10
ffffffffa0800bd8:	6442a081 	daddiu	v0,v0,-24447
ffffffffa0800bdc:	00021438 	dsll	v0,v0,0x10
ffffffffa0800be0:	ac4098e0 	sw	zero,-26400(v0)
ffffffffa0800be4:	3c020000 	lui	v0,0x0
ffffffffa0800be8:	64420000 	daddiu	v0,v0,0
ffffffffa0800bec:	00021438 	dsll	v0,v0,0x10
ffffffffa0800bf0:	6442a081 	daddiu	v0,v0,-24447
ffffffffa0800bf4:	00021438 	dsll	v0,v0,0x10
ffffffffa0800bf8:	8c4298e0 	lw	v0,-26400(v0)
ffffffffa0800bfc:	28420050 	slti	v0,v0,80
ffffffffa0800c00:	14400015 	bnez	v0,ffffffffa0800c58 <screen_write_ch+0x318>
ffffffffa0800c04:	00000000 	nop
ffffffffa0800c08:	3c020000 	lui	v0,0x0
ffffffffa0800c0c:	64420000 	daddiu	v0,v0,0
ffffffffa0800c10:	00021438 	dsll	v0,v0,0x10
ffffffffa0800c14:	6442a081 	daddiu	v0,v0,-24447
ffffffffa0800c18:	00021438 	dsll	v0,v0,0x10
ffffffffa0800c1c:	8c4298e4 	lw	v0,-26396(v0)
ffffffffa0800c20:	24420001 	addiu	v0,v0,1
ffffffffa0800c24:	0040182d 	move	v1,v0
ffffffffa0800c28:	3c020000 	lui	v0,0x0
ffffffffa0800c2c:	64420000 	daddiu	v0,v0,0
ffffffffa0800c30:	00021438 	dsll	v0,v0,0x10
ffffffffa0800c34:	6442a081 	daddiu	v0,v0,-24447
ffffffffa0800c38:	00021438 	dsll	v0,v0,0x10
ffffffffa0800c3c:	ac4398e4 	sw	v1,-26396(v0)
ffffffffa0800c40:	3c020000 	lui	v0,0x0
ffffffffa0800c44:	64420000 	daddiu	v0,v0,0
ffffffffa0800c48:	00021438 	dsll	v0,v0,0x10
ffffffffa0800c4c:	6442a081 	daddiu	v0,v0,-24447
ffffffffa0800c50:	00021438 	dsll	v0,v0,0x10
ffffffffa0800c54:	ac4098e0 	sw	zero,-26400(v0)
ffffffffa0800c58:	3c020000 	lui	v0,0x0
ffffffffa0800c5c:	64420000 	daddiu	v0,v0,0
ffffffffa0800c60:	00021438 	dsll	v0,v0,0x10
ffffffffa0800c64:	6442a081 	daddiu	v0,v0,-24447
ffffffffa0800c68:	00021438 	dsll	v0,v0,0x10
ffffffffa0800c6c:	8c4298e4 	lw	v0,-26396(v0)
ffffffffa0800c70:	04410007 	bgez	v0,ffffffffa0800c90 <screen_write_ch+0x350>
ffffffffa0800c74:	00000000 	nop
ffffffffa0800c78:	3c020000 	lui	v0,0x0
ffffffffa0800c7c:	64420000 	daddiu	v0,v0,0
ffffffffa0800c80:	00021438 	dsll	v0,v0,0x10
ffffffffa0800c84:	6442a081 	daddiu	v0,v0,-24447
ffffffffa0800c88:	00021438 	dsll	v0,v0,0x10
ffffffffa0800c8c:	ac4098e4 	sw	zero,-26396(v0)
ffffffffa0800c90:	3c020000 	lui	v0,0x0
ffffffffa0800c94:	64420000 	daddiu	v0,v0,0
ffffffffa0800c98:	00021438 	dsll	v0,v0,0x10
ffffffffa0800c9c:	6442a081 	daddiu	v0,v0,-24447
ffffffffa0800ca0:	00021438 	dsll	v0,v0,0x10
ffffffffa0800ca4:	8c4298e4 	lw	v0,-26396(v0)
ffffffffa0800ca8:	2842001e 	slti	v0,v0,30
ffffffffa0800cac:	14400012 	bnez	v0,ffffffffa0800cf8 <screen_write_ch+0x3b8>
ffffffffa0800cb0:	00000000 	nop
ffffffffa0800cb4:	24040010 	li	a0,16
ffffffffa0800cb8:	2405001d 	li	a1,29
ffffffffa0800cbc:	0c2001d2 	jal	ffffffffa0800748 <screen_scroll>
ffffffffa0800cc0:	00000000 	nop
ffffffffa0800cc4:	3c020000 	lui	v0,0x0
ffffffffa0800cc8:	64420000 	daddiu	v0,v0,0
ffffffffa0800ccc:	00021438 	dsll	v0,v0,0x10
ffffffffa0800cd0:	6442a081 	daddiu	v0,v0,-24447
ffffffffa0800cd4:	00021438 	dsll	v0,v0,0x10
ffffffffa0800cd8:	ac4098e0 	sw	zero,-26400(v0)
ffffffffa0800cdc:	3c020000 	lui	v0,0x0
ffffffffa0800ce0:	64420000 	daddiu	v0,v0,0
ffffffffa0800ce4:	00021438 	dsll	v0,v0,0x10
ffffffffa0800ce8:	6442a081 	daddiu	v0,v0,-24447
ffffffffa0800cec:	00021438 	dsll	v0,v0,0x10
ffffffffa0800cf0:	2403001d 	li	v1,29
ffffffffa0800cf4:	ac4398e4 	sw	v1,-26396(v0)
ffffffffa0800cf8:	03c0e82d 	move	sp,s8
ffffffffa0800cfc:	dfbf0018 	ld	ra,24(sp)
ffffffffa0800d00:	dfbe0010 	ld	s8,16(sp)
ffffffffa0800d04:	67bd0020 	daddiu	sp,sp,32
ffffffffa0800d08:	03e00008 	jr	ra
ffffffffa0800d0c:	00000000 	nop

ffffffffa0800d10 <init_screen>:
ffffffffa0800d10:	67bdfff0 	daddiu	sp,sp,-16
ffffffffa0800d14:	ffbf0008 	sd	ra,8(sp)
ffffffffa0800d18:	ffbe0000 	sd	s8,0(sp)
ffffffffa0800d1c:	03a0f02d 	move	s8,sp
ffffffffa0800d20:	0c2001bf 	jal	ffffffffa08006fc <vt100_hidden_cursor>
ffffffffa0800d24:	00000000 	nop
ffffffffa0800d28:	0c2001ac 	jal	ffffffffa08006b0 <vt100_clear>
ffffffffa0800d2c:	00000000 	nop
ffffffffa0800d30:	0000202d 	move	a0,zero
ffffffffa0800d34:	2405001d 	li	a1,29
ffffffffa0800d38:	0c200356 	jal	ffffffffa0800d58 <screen_clear>
ffffffffa0800d3c:	00000000 	nop
ffffffffa0800d40:	03c0e82d 	move	sp,s8
ffffffffa0800d44:	dfbf0008 	ld	ra,8(sp)
ffffffffa0800d48:	dfbe0000 	ld	s8,0(sp)
ffffffffa0800d4c:	67bd0010 	daddiu	sp,sp,16
ffffffffa0800d50:	03e00008 	jr	ra
ffffffffa0800d54:	00000000 	nop

ffffffffa0800d58 <screen_clear>:
ffffffffa0800d58:	67bdffd0 	daddiu	sp,sp,-48
ffffffffa0800d5c:	ffbf0028 	sd	ra,40(sp)
ffffffffa0800d60:	ffbe0020 	sd	s8,32(sp)
ffffffffa0800d64:	03a0f02d 	move	s8,sp
ffffffffa0800d68:	0080182d 	move	v1,a0
ffffffffa0800d6c:	00a0102d 	move	v0,a1
ffffffffa0800d70:	00031800 	sll	v1,v1,0x0
ffffffffa0800d74:	afc30010 	sw	v1,16(s8)
ffffffffa0800d78:	00021000 	sll	v0,v0,0x0
ffffffffa0800d7c:	afc20014 	sw	v0,20(s8)
ffffffffa0800d80:	afc00000 	sw	zero,0(s8)
ffffffffa0800d84:	0820038f 	j	ffffffffa0800e3c <screen_clear+0xe4>
ffffffffa0800d88:	00000000 	nop
ffffffffa0800d8c:	afc00004 	sw	zero,4(s8)
ffffffffa0800d90:	08200388 	j	ffffffffa0800e20 <screen_clear+0xc8>
ffffffffa0800d94:	00000000 	nop
ffffffffa0800d98:	8fc20000 	lw	v0,0(s8)
ffffffffa0800d9c:	00021100 	sll	v0,v0,0x4
ffffffffa0800da0:	00021880 	sll	v1,v0,0x2
ffffffffa0800da4:	00431021 	addu	v0,v0,v1
ffffffffa0800da8:	8fc30004 	lw	v1,4(s8)
ffffffffa0800dac:	00621021 	addu	v0,v1,v0
ffffffffa0800db0:	0040182d 	move	v1,v0
ffffffffa0800db4:	3c020000 	lui	v0,0x0
ffffffffa0800db8:	64420000 	daddiu	v0,v0,0
ffffffffa0800dbc:	00021438 	dsll	v0,v0,0x10
ffffffffa0800dc0:	6442a081 	daddiu	v0,v0,-24447
ffffffffa0800dc4:	00021438 	dsll	v0,v0,0x10
ffffffffa0800dc8:	64428490 	daddiu	v0,v0,-31600
ffffffffa0800dcc:	0062102d 	daddu	v0,v1,v0
ffffffffa0800dd0:	24030020 	li	v1,32
ffffffffa0800dd4:	a0430000 	sb	v1,0(v0)
ffffffffa0800dd8:	8fc20000 	lw	v0,0(s8)
ffffffffa0800ddc:	00021100 	sll	v0,v0,0x4
ffffffffa0800de0:	00021880 	sll	v1,v0,0x2
ffffffffa0800de4:	00431021 	addu	v0,v0,v1
ffffffffa0800de8:	8fc30004 	lw	v1,4(s8)
ffffffffa0800dec:	00621021 	addu	v0,v1,v0
ffffffffa0800df0:	0040182d 	move	v1,v0
ffffffffa0800df4:	3c020000 	lui	v0,0x0
ffffffffa0800df8:	64420000 	daddiu	v0,v0,0
ffffffffa0800dfc:	00021438 	dsll	v0,v0,0x10
ffffffffa0800e00:	6442a081 	daddiu	v0,v0,-24447
ffffffffa0800e04:	00021438 	dsll	v0,v0,0x10
ffffffffa0800e08:	64428df0 	daddiu	v0,v0,-29200
ffffffffa0800e0c:	0062102d 	daddu	v0,v1,v0
ffffffffa0800e10:	a0400000 	sb	zero,0(v0)
ffffffffa0800e14:	8fc20004 	lw	v0,4(s8)
ffffffffa0800e18:	24420001 	addiu	v0,v0,1
ffffffffa0800e1c:	afc20004 	sw	v0,4(s8)
ffffffffa0800e20:	8fc20004 	lw	v0,4(s8)
ffffffffa0800e24:	28420050 	slti	v0,v0,80
ffffffffa0800e28:	1440ffdb 	bnez	v0,ffffffffa0800d98 <screen_clear+0x40>
ffffffffa0800e2c:	00000000 	nop
ffffffffa0800e30:	8fc20000 	lw	v0,0(s8)
ffffffffa0800e34:	24420001 	addiu	v0,v0,1
ffffffffa0800e38:	afc20000 	sw	v0,0(s8)
ffffffffa0800e3c:	8fc20000 	lw	v0,0(s8)
ffffffffa0800e40:	2842001e 	slti	v0,v0,30
ffffffffa0800e44:	1440ffd1 	bnez	v0,ffffffffa0800d8c <screen_clear+0x34>
ffffffffa0800e48:	00000000 	nop
ffffffffa0800e4c:	0c20041e 	jal	ffffffffa0801078 <screen_reflush>
ffffffffa0800e50:	00000000 	nop
ffffffffa0800e54:	03c0e82d 	move	sp,s8
ffffffffa0800e58:	dfbf0028 	ld	ra,40(sp)
ffffffffa0800e5c:	dfbe0020 	ld	s8,32(sp)
ffffffffa0800e60:	67bd0030 	daddiu	sp,sp,48
ffffffffa0800e64:	03e00008 	jr	ra
ffffffffa0800e68:	00000000 	nop

ffffffffa0800e6c <screen_clear_shell>:
ffffffffa0800e6c:	67bdffd0 	daddiu	sp,sp,-48
ffffffffa0800e70:	ffbf0028 	sd	ra,40(sp)
ffffffffa0800e74:	ffbe0020 	sd	s8,32(sp)
ffffffffa0800e78:	03a0f02d 	move	s8,sp
ffffffffa0800e7c:	0080182d 	move	v1,a0
ffffffffa0800e80:	00a0102d 	move	v0,a1
ffffffffa0800e84:	00031800 	sll	v1,v1,0x0
ffffffffa0800e88:	afc30010 	sw	v1,16(s8)
ffffffffa0800e8c:	00021000 	sll	v0,v0,0x0
ffffffffa0800e90:	afc20014 	sw	v0,20(s8)
ffffffffa0800e94:	afc00000 	sw	zero,0(s8)
ffffffffa0800e98:	082003d4 	j	ffffffffa0800f50 <screen_clear_shell+0xe4>
ffffffffa0800e9c:	00000000 	nop
ffffffffa0800ea0:	afc00004 	sw	zero,4(s8)
ffffffffa0800ea4:	082003cd 	j	ffffffffa0800f34 <screen_clear_shell+0xc8>
ffffffffa0800ea8:	00000000 	nop
ffffffffa0800eac:	8fc20000 	lw	v0,0(s8)
ffffffffa0800eb0:	00021100 	sll	v0,v0,0x4
ffffffffa0800eb4:	00021880 	sll	v1,v0,0x2
ffffffffa0800eb8:	00431021 	addu	v0,v0,v1
ffffffffa0800ebc:	8fc30004 	lw	v1,4(s8)
ffffffffa0800ec0:	00621021 	addu	v0,v1,v0
ffffffffa0800ec4:	0040182d 	move	v1,v0
ffffffffa0800ec8:	3c020000 	lui	v0,0x0
ffffffffa0800ecc:	64420000 	daddiu	v0,v0,0
ffffffffa0800ed0:	00021438 	dsll	v0,v0,0x10
ffffffffa0800ed4:	6442a081 	daddiu	v0,v0,-24447
ffffffffa0800ed8:	00021438 	dsll	v0,v0,0x10
ffffffffa0800edc:	64428490 	daddiu	v0,v0,-31600
ffffffffa0800ee0:	0062102d 	daddu	v0,v1,v0
ffffffffa0800ee4:	24030020 	li	v1,32
ffffffffa0800ee8:	a0430000 	sb	v1,0(v0)
ffffffffa0800eec:	8fc20000 	lw	v0,0(s8)
ffffffffa0800ef0:	00021100 	sll	v0,v0,0x4
ffffffffa0800ef4:	00021880 	sll	v1,v0,0x2
ffffffffa0800ef8:	00431021 	addu	v0,v0,v1
ffffffffa0800efc:	8fc30004 	lw	v1,4(s8)
ffffffffa0800f00:	00621021 	addu	v0,v1,v0
ffffffffa0800f04:	0040182d 	move	v1,v0
ffffffffa0800f08:	3c020000 	lui	v0,0x0
ffffffffa0800f0c:	64420000 	daddiu	v0,v0,0
ffffffffa0800f10:	00021438 	dsll	v0,v0,0x10
ffffffffa0800f14:	6442a081 	daddiu	v0,v0,-24447
ffffffffa0800f18:	00021438 	dsll	v0,v0,0x10
ffffffffa0800f1c:	64428df0 	daddiu	v0,v0,-29200
ffffffffa0800f20:	0062102d 	daddu	v0,v1,v0
ffffffffa0800f24:	a0400000 	sb	zero,0(v0)
ffffffffa0800f28:	8fc20004 	lw	v0,4(s8)
ffffffffa0800f2c:	24420001 	addiu	v0,v0,1
ffffffffa0800f30:	afc20004 	sw	v0,4(s8)
ffffffffa0800f34:	8fc20004 	lw	v0,4(s8)
ffffffffa0800f38:	28420050 	slti	v0,v0,80
ffffffffa0800f3c:	1440ffdb 	bnez	v0,ffffffffa0800eac <screen_clear_shell+0x40>
ffffffffa0800f40:	00000000 	nop
ffffffffa0800f44:	8fc20000 	lw	v0,0(s8)
ffffffffa0800f48:	24420001 	addiu	v0,v0,1
ffffffffa0800f4c:	afc20000 	sw	v0,0(s8)
ffffffffa0800f50:	8fc20000 	lw	v0,0(s8)
ffffffffa0800f54:	2842001e 	slti	v0,v0,30
ffffffffa0800f58:	1440ffd1 	bnez	v0,ffffffffa0800ea0 <screen_clear_shell+0x34>
ffffffffa0800f5c:	00000000 	nop
ffffffffa0800f60:	0c2004a5 	jal	ffffffffa0801294 <screen_reflush_shell>
ffffffffa0800f64:	00000000 	nop
ffffffffa0800f68:	03c0e82d 	move	sp,s8
ffffffffa0800f6c:	dfbf0028 	ld	ra,40(sp)
ffffffffa0800f70:	dfbe0020 	ld	s8,32(sp)
ffffffffa0800f74:	67bd0030 	daddiu	sp,sp,48
ffffffffa0800f78:	03e00008 	jr	ra
ffffffffa0800f7c:	00000000 	nop

ffffffffa0800f80 <screen_move_cursor>:
ffffffffa0800f80:	67bdffe0 	daddiu	sp,sp,-32
ffffffffa0800f84:	ffbe0018 	sd	s8,24(sp)
ffffffffa0800f88:	03a0f02d 	move	s8,sp
ffffffffa0800f8c:	0080182d 	move	v1,a0
ffffffffa0800f90:	00a0102d 	move	v0,a1
ffffffffa0800f94:	00031800 	sll	v1,v1,0x0
ffffffffa0800f98:	afc30000 	sw	v1,0(s8)
ffffffffa0800f9c:	00021000 	sll	v0,v0,0x0
ffffffffa0800fa0:	afc20004 	sw	v0,4(s8)
ffffffffa0800fa4:	3c020000 	lui	v0,0x0
ffffffffa0800fa8:	64420000 	daddiu	v0,v0,0
ffffffffa0800fac:	00021438 	dsll	v0,v0,0x10
ffffffffa0800fb0:	6442a081 	daddiu	v0,v0,-24447
ffffffffa0800fb4:	00021438 	dsll	v0,v0,0x10
ffffffffa0800fb8:	8fc30000 	lw	v1,0(s8)
ffffffffa0800fbc:	ac4398e0 	sw	v1,-26400(v0)
ffffffffa0800fc0:	3c020000 	lui	v0,0x0
ffffffffa0800fc4:	64420000 	daddiu	v0,v0,0
ffffffffa0800fc8:	00021438 	dsll	v0,v0,0x10
ffffffffa0800fcc:	6442a081 	daddiu	v0,v0,-24447
ffffffffa0800fd0:	00021438 	dsll	v0,v0,0x10
ffffffffa0800fd4:	8fc30004 	lw	v1,4(s8)
ffffffffa0800fd8:	ac4398e4 	sw	v1,-26396(v0)
ffffffffa0800fdc:	03c0e82d 	move	sp,s8
ffffffffa0800fe0:	dfbe0018 	ld	s8,24(sp)
ffffffffa0800fe4:	67bd0020 	daddiu	sp,sp,32
ffffffffa0800fe8:	03e00008 	jr	ra
ffffffffa0800fec:	00000000 	nop

ffffffffa0800ff0 <screen_write>:
ffffffffa0800ff0:	67bdffd0 	daddiu	sp,sp,-48
ffffffffa0800ff4:	ffbf0028 	sd	ra,40(sp)
ffffffffa0800ff8:	ffbe0020 	sd	s8,32(sp)
ffffffffa0800ffc:	03a0f02d 	move	s8,sp
ffffffffa0801000:	ffc40010 	sd	a0,16(s8)
ffffffffa0801004:	afc00000 	sw	zero,0(s8)
ffffffffa0801008:	dfc40010 	ld	a0,16(s8)
ffffffffa080100c:	0c200ec8 	jal	ffffffffa0803b20 <strlen>
ffffffffa0801010:	00000000 	nop
ffffffffa0801014:	afc20004 	sw	v0,4(s8)
ffffffffa0801018:	afc00000 	sw	zero,0(s8)
ffffffffa080101c:	08200413 	j	ffffffffa080104c <screen_write+0x5c>
ffffffffa0801020:	00000000 	nop
ffffffffa0801024:	8fc20000 	lw	v0,0(s8)
ffffffffa0801028:	dfc30010 	ld	v1,16(s8)
ffffffffa080102c:	0062102d 	daddu	v0,v1,v0
ffffffffa0801030:	80420000 	lb	v0,0(v0)
ffffffffa0801034:	0040202d 	move	a0,v0
ffffffffa0801038:	0c200250 	jal	ffffffffa0800940 <screen_write_ch>
ffffffffa080103c:	00000000 	nop
ffffffffa0801040:	8fc20000 	lw	v0,0(s8)
ffffffffa0801044:	24420001 	addiu	v0,v0,1
ffffffffa0801048:	afc20000 	sw	v0,0(s8)
ffffffffa080104c:	8fc30000 	lw	v1,0(s8)
ffffffffa0801050:	8fc20004 	lw	v0,4(s8)
ffffffffa0801054:	0062102a 	slt	v0,v1,v0
ffffffffa0801058:	1440fff2 	bnez	v0,ffffffffa0801024 <screen_write+0x34>
ffffffffa080105c:	00000000 	nop
ffffffffa0801060:	03c0e82d 	move	sp,s8
ffffffffa0801064:	dfbf0028 	ld	ra,40(sp)
ffffffffa0801068:	dfbe0020 	ld	s8,32(sp)
ffffffffa080106c:	67bd0030 	daddiu	sp,sp,48
ffffffffa0801070:	03e00008 	jr	ra
ffffffffa0801074:	00000000 	nop

ffffffffa0801078 <screen_reflush>:
ffffffffa0801078:	67bdffe0 	daddiu	sp,sp,-32
ffffffffa080107c:	ffbf0018 	sd	ra,24(sp)
ffffffffa0801080:	ffbe0010 	sd	s8,16(sp)
ffffffffa0801084:	03a0f02d 	move	s8,sp
ffffffffa0801088:	afc00000 	sw	zero,0(s8)
ffffffffa080108c:	0820048b 	j	ffffffffa080122c <screen_reflush+0x1b4>
ffffffffa0801090:	00000000 	nop
ffffffffa0801094:	afc00004 	sw	zero,4(s8)
ffffffffa0801098:	08200484 	j	ffffffffa0801210 <screen_reflush+0x198>
ffffffffa080109c:	00000000 	nop
ffffffffa08010a0:	8fc20000 	lw	v0,0(s8)
ffffffffa08010a4:	00021100 	sll	v0,v0,0x4
ffffffffa08010a8:	00021880 	sll	v1,v0,0x2
ffffffffa08010ac:	00431021 	addu	v0,v0,v1
ffffffffa08010b0:	8fc30004 	lw	v1,4(s8)
ffffffffa08010b4:	00621021 	addu	v0,v1,v0
ffffffffa08010b8:	0040182d 	move	v1,v0
ffffffffa08010bc:	3c020000 	lui	v0,0x0
ffffffffa08010c0:	64420000 	daddiu	v0,v0,0
ffffffffa08010c4:	00021438 	dsll	v0,v0,0x10
ffffffffa08010c8:	6442a081 	daddiu	v0,v0,-24447
ffffffffa08010cc:	00021438 	dsll	v0,v0,0x10
ffffffffa08010d0:	64428490 	daddiu	v0,v0,-31600
ffffffffa08010d4:	0062102d 	daddu	v0,v1,v0
ffffffffa08010d8:	80430000 	lb	v1,0(v0)
ffffffffa08010dc:	8fc20000 	lw	v0,0(s8)
ffffffffa08010e0:	00021100 	sll	v0,v0,0x4
ffffffffa08010e4:	00022080 	sll	a0,v0,0x2
ffffffffa08010e8:	00441021 	addu	v0,v0,a0
ffffffffa08010ec:	8fc40004 	lw	a0,4(s8)
ffffffffa08010f0:	00821021 	addu	v0,a0,v0
ffffffffa08010f4:	0040202d 	move	a0,v0
ffffffffa08010f8:	3c020000 	lui	v0,0x0
ffffffffa08010fc:	64420000 	daddiu	v0,v0,0
ffffffffa0801100:	00021438 	dsll	v0,v0,0x10
ffffffffa0801104:	6442a081 	daddiu	v0,v0,-24447
ffffffffa0801108:	00021438 	dsll	v0,v0,0x10
ffffffffa080110c:	64428df0 	daddiu	v0,v0,-29200
ffffffffa0801110:	0082102d 	daddu	v0,a0,v0
ffffffffa0801114:	80420000 	lb	v0,0(v0)
ffffffffa0801118:	1062003a 	beq	v1,v0,ffffffffa0801204 <screen_reflush+0x18c>
ffffffffa080111c:	00000000 	nop
ffffffffa0801120:	8fc20004 	lw	v0,4(s8)
ffffffffa0801124:	24420001 	addiu	v0,v0,1
ffffffffa0801128:	0040182d 	move	v1,v0
ffffffffa080112c:	8fc20000 	lw	v0,0(s8)
ffffffffa0801130:	24420001 	addiu	v0,v0,1
ffffffffa0801134:	0060202d 	move	a0,v1
ffffffffa0801138:	0040282d 	move	a1,v0
ffffffffa080113c:	0c200190 	jal	ffffffffa0800640 <vt100_move_cursor>
ffffffffa0801140:	00000000 	nop
ffffffffa0801144:	8fc20000 	lw	v0,0(s8)
ffffffffa0801148:	00021100 	sll	v0,v0,0x4
ffffffffa080114c:	00021880 	sll	v1,v0,0x2
ffffffffa0801150:	00431021 	addu	v0,v0,v1
ffffffffa0801154:	8fc30004 	lw	v1,4(s8)
ffffffffa0801158:	00621021 	addu	v0,v1,v0
ffffffffa080115c:	0040182d 	move	v1,v0
ffffffffa0801160:	3c020000 	lui	v0,0x0
ffffffffa0801164:	64420000 	daddiu	v0,v0,0
ffffffffa0801168:	00021438 	dsll	v0,v0,0x10
ffffffffa080116c:	6442a081 	daddiu	v0,v0,-24447
ffffffffa0801170:	00021438 	dsll	v0,v0,0x10
ffffffffa0801174:	64428490 	daddiu	v0,v0,-31600
ffffffffa0801178:	0062102d 	daddu	v0,v1,v0
ffffffffa080117c:	80420000 	lb	v0,0(v0)
ffffffffa0801180:	0040202d 	move	a0,v0
ffffffffa0801184:	0c200100 	jal	ffffffffa0800400 <invoke_syscall>
ffffffffa0801188:	00000000 	nop
ffffffffa080118c:	8fc20000 	lw	v0,0(s8)
ffffffffa0801190:	00021100 	sll	v0,v0,0x4
ffffffffa0801194:	00021880 	sll	v1,v0,0x2
ffffffffa0801198:	00431021 	addu	v0,v0,v1
ffffffffa080119c:	8fc30004 	lw	v1,4(s8)
ffffffffa08011a0:	00621021 	addu	v0,v1,v0
ffffffffa08011a4:	0040202d 	move	a0,v0
ffffffffa08011a8:	8fc20000 	lw	v0,0(s8)
ffffffffa08011ac:	00021100 	sll	v0,v0,0x4
ffffffffa08011b0:	00021880 	sll	v1,v0,0x2
ffffffffa08011b4:	00431021 	addu	v0,v0,v1
ffffffffa08011b8:	8fc30004 	lw	v1,4(s8)
ffffffffa08011bc:	00621021 	addu	v0,v1,v0
ffffffffa08011c0:	0040182d 	move	v1,v0
ffffffffa08011c4:	3c020000 	lui	v0,0x0
ffffffffa08011c8:	64420000 	daddiu	v0,v0,0
ffffffffa08011cc:	00021438 	dsll	v0,v0,0x10
ffffffffa08011d0:	6442a081 	daddiu	v0,v0,-24447
ffffffffa08011d4:	00021438 	dsll	v0,v0,0x10
ffffffffa08011d8:	64428490 	daddiu	v0,v0,-31600
ffffffffa08011dc:	0062102d 	daddu	v0,v1,v0
ffffffffa08011e0:	80430000 	lb	v1,0(v0)
ffffffffa08011e4:	3c020000 	lui	v0,0x0
ffffffffa08011e8:	64420000 	daddiu	v0,v0,0
ffffffffa08011ec:	00021438 	dsll	v0,v0,0x10
ffffffffa08011f0:	6442a081 	daddiu	v0,v0,-24447
ffffffffa08011f4:	00021438 	dsll	v0,v0,0x10
ffffffffa08011f8:	64428df0 	daddiu	v0,v0,-29200
ffffffffa08011fc:	0082102d 	daddu	v0,a0,v0
ffffffffa0801200:	a0430000 	sb	v1,0(v0)
ffffffffa0801204:	8fc20004 	lw	v0,4(s8)
ffffffffa0801208:	24420001 	addiu	v0,v0,1
ffffffffa080120c:	afc20004 	sw	v0,4(s8)
ffffffffa0801210:	8fc20004 	lw	v0,4(s8)
ffffffffa0801214:	28420050 	slti	v0,v0,80
ffffffffa0801218:	1440ffa1 	bnez	v0,ffffffffa08010a0 <screen_reflush+0x28>
ffffffffa080121c:	00000000 	nop
ffffffffa0801220:	8fc20000 	lw	v0,0(s8)
ffffffffa0801224:	24420001 	addiu	v0,v0,1
ffffffffa0801228:	afc20000 	sw	v0,0(s8)
ffffffffa080122c:	8fc20000 	lw	v0,0(s8)
ffffffffa0801230:	2842001e 	slti	v0,v0,30
ffffffffa0801234:	1440ff97 	bnez	v0,ffffffffa0801094 <screen_reflush+0x1c>
ffffffffa0801238:	00000000 	nop
ffffffffa080123c:	3c020000 	lui	v0,0x0
ffffffffa0801240:	64420000 	daddiu	v0,v0,0
ffffffffa0801244:	00021438 	dsll	v0,v0,0x10
ffffffffa0801248:	6442a081 	daddiu	v0,v0,-24447
ffffffffa080124c:	00021438 	dsll	v0,v0,0x10
ffffffffa0801250:	8c4398e0 	lw	v1,-26400(v0)
ffffffffa0801254:	3c020000 	lui	v0,0x0
ffffffffa0801258:	64420000 	daddiu	v0,v0,0
ffffffffa080125c:	00021438 	dsll	v0,v0,0x10
ffffffffa0801260:	6442a081 	daddiu	v0,v0,-24447
ffffffffa0801264:	00021438 	dsll	v0,v0,0x10
ffffffffa0801268:	8c4298e4 	lw	v0,-26396(v0)
ffffffffa080126c:	0060202d 	move	a0,v1
ffffffffa0801270:	0040282d 	move	a1,v0
ffffffffa0801274:	0c200190 	jal	ffffffffa0800640 <vt100_move_cursor>
ffffffffa0801278:	00000000 	nop
ffffffffa080127c:	03c0e82d 	move	sp,s8
ffffffffa0801280:	dfbf0018 	ld	ra,24(sp)
ffffffffa0801284:	dfbe0010 	ld	s8,16(sp)
ffffffffa0801288:	67bd0020 	daddiu	sp,sp,32
ffffffffa080128c:	03e00008 	jr	ra
ffffffffa0801290:	00000000 	nop

ffffffffa0801294 <screen_reflush_shell>:
ffffffffa0801294:	67bdffe0 	daddiu	sp,sp,-32
ffffffffa0801298:	ffbf0018 	sd	ra,24(sp)
ffffffffa080129c:	ffbe0010 	sd	s8,16(sp)
ffffffffa08012a0:	03a0f02d 	move	s8,sp
ffffffffa08012a4:	24020012 	li	v0,18
ffffffffa08012a8:	afc20000 	sw	v0,0(s8)
ffffffffa08012ac:	08200513 	j	ffffffffa080144c <screen_reflush_shell+0x1b8>
ffffffffa08012b0:	00000000 	nop
ffffffffa08012b4:	afc00004 	sw	zero,4(s8)
ffffffffa08012b8:	0820050c 	j	ffffffffa0801430 <screen_reflush_shell+0x19c>
ffffffffa08012bc:	00000000 	nop
ffffffffa08012c0:	8fc20000 	lw	v0,0(s8)
ffffffffa08012c4:	00021100 	sll	v0,v0,0x4
ffffffffa08012c8:	00021880 	sll	v1,v0,0x2
ffffffffa08012cc:	00431021 	addu	v0,v0,v1
ffffffffa08012d0:	8fc30004 	lw	v1,4(s8)
ffffffffa08012d4:	00621021 	addu	v0,v1,v0
ffffffffa08012d8:	0040182d 	move	v1,v0
ffffffffa08012dc:	3c020000 	lui	v0,0x0
ffffffffa08012e0:	64420000 	daddiu	v0,v0,0
ffffffffa08012e4:	00021438 	dsll	v0,v0,0x10
ffffffffa08012e8:	6442a081 	daddiu	v0,v0,-24447
ffffffffa08012ec:	00021438 	dsll	v0,v0,0x10
ffffffffa08012f0:	64428490 	daddiu	v0,v0,-31600
ffffffffa08012f4:	0062102d 	daddu	v0,v1,v0
ffffffffa08012f8:	80430000 	lb	v1,0(v0)
ffffffffa08012fc:	8fc20000 	lw	v0,0(s8)
ffffffffa0801300:	00021100 	sll	v0,v0,0x4
ffffffffa0801304:	00022080 	sll	a0,v0,0x2
ffffffffa0801308:	00441021 	addu	v0,v0,a0
ffffffffa080130c:	8fc40004 	lw	a0,4(s8)
ffffffffa0801310:	00821021 	addu	v0,a0,v0
ffffffffa0801314:	0040202d 	move	a0,v0
ffffffffa0801318:	3c020000 	lui	v0,0x0
ffffffffa080131c:	64420000 	daddiu	v0,v0,0
ffffffffa0801320:	00021438 	dsll	v0,v0,0x10
ffffffffa0801324:	6442a081 	daddiu	v0,v0,-24447
ffffffffa0801328:	00021438 	dsll	v0,v0,0x10
ffffffffa080132c:	64428df0 	daddiu	v0,v0,-29200
ffffffffa0801330:	0082102d 	daddu	v0,a0,v0
ffffffffa0801334:	80420000 	lb	v0,0(v0)
ffffffffa0801338:	1062003a 	beq	v1,v0,ffffffffa0801424 <screen_reflush_shell+0x190>
ffffffffa080133c:	00000000 	nop
ffffffffa0801340:	8fc20004 	lw	v0,4(s8)
ffffffffa0801344:	24420001 	addiu	v0,v0,1
ffffffffa0801348:	0040182d 	move	v1,v0
ffffffffa080134c:	8fc20000 	lw	v0,0(s8)
ffffffffa0801350:	24420001 	addiu	v0,v0,1
ffffffffa0801354:	0060202d 	move	a0,v1
ffffffffa0801358:	0040282d 	move	a1,v0
ffffffffa080135c:	0c200190 	jal	ffffffffa0800640 <vt100_move_cursor>
ffffffffa0801360:	00000000 	nop
ffffffffa0801364:	8fc20000 	lw	v0,0(s8)
ffffffffa0801368:	00021100 	sll	v0,v0,0x4
ffffffffa080136c:	00021880 	sll	v1,v0,0x2
ffffffffa0801370:	00431021 	addu	v0,v0,v1
ffffffffa0801374:	8fc30004 	lw	v1,4(s8)
ffffffffa0801378:	00621021 	addu	v0,v1,v0
ffffffffa080137c:	0040182d 	move	v1,v0
ffffffffa0801380:	3c020000 	lui	v0,0x0
ffffffffa0801384:	64420000 	daddiu	v0,v0,0
ffffffffa0801388:	00021438 	dsll	v0,v0,0x10
ffffffffa080138c:	6442a081 	daddiu	v0,v0,-24447
ffffffffa0801390:	00021438 	dsll	v0,v0,0x10
ffffffffa0801394:	64428490 	daddiu	v0,v0,-31600
ffffffffa0801398:	0062102d 	daddu	v0,v1,v0
ffffffffa080139c:	80420000 	lb	v0,0(v0)
ffffffffa08013a0:	0040202d 	move	a0,v0
ffffffffa08013a4:	0c200100 	jal	ffffffffa0800400 <invoke_syscall>
ffffffffa08013a8:	00000000 	nop
ffffffffa08013ac:	8fc20000 	lw	v0,0(s8)
ffffffffa08013b0:	00021100 	sll	v0,v0,0x4
ffffffffa08013b4:	00021880 	sll	v1,v0,0x2
ffffffffa08013b8:	00431021 	addu	v0,v0,v1
ffffffffa08013bc:	8fc30004 	lw	v1,4(s8)
ffffffffa08013c0:	00621021 	addu	v0,v1,v0
ffffffffa08013c4:	0040202d 	move	a0,v0
ffffffffa08013c8:	8fc20000 	lw	v0,0(s8)
ffffffffa08013cc:	00021100 	sll	v0,v0,0x4
ffffffffa08013d0:	00021880 	sll	v1,v0,0x2
ffffffffa08013d4:	00431021 	addu	v0,v0,v1
ffffffffa08013d8:	8fc30004 	lw	v1,4(s8)
ffffffffa08013dc:	00621021 	addu	v0,v1,v0
ffffffffa08013e0:	0040182d 	move	v1,v0
ffffffffa08013e4:	3c020000 	lui	v0,0x0
ffffffffa08013e8:	64420000 	daddiu	v0,v0,0
ffffffffa08013ec:	00021438 	dsll	v0,v0,0x10
ffffffffa08013f0:	6442a081 	daddiu	v0,v0,-24447
ffffffffa08013f4:	00021438 	dsll	v0,v0,0x10
ffffffffa08013f8:	64428490 	daddiu	v0,v0,-31600
ffffffffa08013fc:	0062102d 	daddu	v0,v1,v0
ffffffffa0801400:	80430000 	lb	v1,0(v0)
ffffffffa0801404:	3c020000 	lui	v0,0x0
ffffffffa0801408:	64420000 	daddiu	v0,v0,0
ffffffffa080140c:	00021438 	dsll	v0,v0,0x10
ffffffffa0801410:	6442a081 	daddiu	v0,v0,-24447
ffffffffa0801414:	00021438 	dsll	v0,v0,0x10
ffffffffa0801418:	64428df0 	daddiu	v0,v0,-29200
ffffffffa080141c:	0082102d 	daddu	v0,a0,v0
ffffffffa0801420:	a0430000 	sb	v1,0(v0)
ffffffffa0801424:	8fc20004 	lw	v0,4(s8)
ffffffffa0801428:	24420001 	addiu	v0,v0,1
ffffffffa080142c:	afc20004 	sw	v0,4(s8)
ffffffffa0801430:	8fc20004 	lw	v0,4(s8)
ffffffffa0801434:	28420050 	slti	v0,v0,80
ffffffffa0801438:	1440ffa1 	bnez	v0,ffffffffa08012c0 <screen_reflush_shell+0x2c>
ffffffffa080143c:	00000000 	nop
ffffffffa0801440:	8fc20000 	lw	v0,0(s8)
ffffffffa0801444:	24420001 	addiu	v0,v0,1
ffffffffa0801448:	afc20000 	sw	v0,0(s8)
ffffffffa080144c:	8fc20000 	lw	v0,0(s8)
ffffffffa0801450:	2842001e 	slti	v0,v0,30
ffffffffa0801454:	1440ff97 	bnez	v0,ffffffffa08012b4 <screen_reflush_shell+0x20>
ffffffffa0801458:	00000000 	nop
ffffffffa080145c:	3c020000 	lui	v0,0x0
ffffffffa0801460:	64420000 	daddiu	v0,v0,0
ffffffffa0801464:	00021438 	dsll	v0,v0,0x10
ffffffffa0801468:	6442a081 	daddiu	v0,v0,-24447
ffffffffa080146c:	00021438 	dsll	v0,v0,0x10
ffffffffa0801470:	8c4398e0 	lw	v1,-26400(v0)
ffffffffa0801474:	3c020000 	lui	v0,0x0
ffffffffa0801478:	64420000 	daddiu	v0,v0,0
ffffffffa080147c:	00021438 	dsll	v0,v0,0x10
ffffffffa0801480:	6442a081 	daddiu	v0,v0,-24447
ffffffffa0801484:	00021438 	dsll	v0,v0,0x10
ffffffffa0801488:	8c4298e4 	lw	v0,-26396(v0)
ffffffffa080148c:	0060202d 	move	a0,v1
ffffffffa0801490:	0040282d 	move	a1,v0
ffffffffa0801494:	0c200190 	jal	ffffffffa0800640 <vt100_move_cursor>
ffffffffa0801498:	00000000 	nop
ffffffffa080149c:	03c0e82d 	move	sp,s8
ffffffffa08014a0:	dfbf0018 	ld	ra,24(sp)
ffffffffa08014a4:	dfbe0010 	ld	s8,16(sp)
ffffffffa08014a8:	67bd0020 	daddiu	sp,sp,32
ffffffffa08014ac:	03e00008 	jr	ra
ffffffffa08014b0:	00000000 	nop
	...

ffffffffa08014c0 <init_memory>:
ffffffffa08014c0:	67bdfff0 	daddiu	sp,sp,-16
ffffffffa08014c4:	ffbe0008 	sd	s8,8(sp)
ffffffffa08014c8:	03a0f02d 	move	s8,sp
ffffffffa08014cc:	03c0e82d 	move	sp,s8
ffffffffa08014d0:	dfbe0008 	ld	s8,8(sp)
ffffffffa08014d4:	67bd0010 	daddiu	sp,sp,16
ffffffffa08014d8:	03e00008 	jr	ra
ffffffffa08014dc:	00000000 	nop

ffffffffa08014e0 <init_pcb>:
ffffffffa08014e0:	67bdffe0 	daddiu	sp,sp,-32
ffffffffa08014e4:	ffbf0018 	sd	ra,24(sp)
ffffffffa08014e8:	ffbe0010 	sd	s8,16(sp)
ffffffffa08014ec:	03a0f02d 	move	s8,sp
ffffffffa08014f0:	3c020000 	lui	v0,0x0
ffffffffa08014f4:	64420000 	daddiu	v0,v0,0
ffffffffa08014f8:	00021438 	dsll	v0,v0,0x10
ffffffffa08014fc:	6442a080 	daddiu	v0,v0,-24448
ffffffffa0801500:	00021438 	dsll	v0,v0,0x10
ffffffffa0801504:	ac407ea0 	sw	zero,32416(v0)
ffffffffa0801508:	24020001 	li	v0,1
ffffffffa080150c:	afc20000 	sw	v0,0(s8)
ffffffffa0801510:	0820055a 	j	ffffffffa0801568 <init_pcb+0x88>
ffffffffa0801514:	00000000 	nop
ffffffffa0801518:	3c050000 	lui	a1,0x0
ffffffffa080151c:	64a50000 	daddiu	a1,a1,0
ffffffffa0801520:	00052c38 	dsll	a1,a1,0x10
ffffffffa0801524:	64a5a081 	daddiu	a1,a1,-24447
ffffffffa0801528:	00052c38 	dsll	a1,a1,0x10
ffffffffa080152c:	8fc40000 	lw	a0,0(s8)
ffffffffa0801530:	0080182d 	move	v1,a0
ffffffffa0801534:	00031178 	dsll	v0,v1,0x5
ffffffffa0801538:	0040182d 	move	v1,v0
ffffffffa080153c:	000310b8 	dsll	v0,v1,0x2
ffffffffa0801540:	0043102f 	dsubu	v0,v0,v1
ffffffffa0801544:	0044102d 	daddu	v0,v0,a0
ffffffffa0801548:	000210f8 	dsll	v0,v0,0x3
ffffffffa080154c:	64a39c18 	daddiu	v1,a1,-25576
ffffffffa0801550:	0043102d 	daddu	v0,v0,v1
ffffffffa0801554:	24030003 	li	v1,3
ffffffffa0801558:	ac4302fc 	sw	v1,764(v0)
ffffffffa080155c:	8fc20000 	lw	v0,0(s8)
ffffffffa0801560:	24420001 	addiu	v0,v0,1
ffffffffa0801564:	afc20000 	sw	v0,0(s8)
ffffffffa0801568:	8fc20000 	lw	v0,0(s8)
ffffffffa080156c:	28420020 	slti	v0,v0,32
ffffffffa0801570:	1440ffe9 	bnez	v0,ffffffffa0801518 <init_pcb+0x38>
ffffffffa0801574:	00000000 	nop
ffffffffa0801578:	3c020000 	lui	v0,0x0
ffffffffa080157c:	64420000 	daddiu	v0,v0,0
ffffffffa0801580:	00021438 	dsll	v0,v0,0x10
ffffffffa0801584:	6442a081 	daddiu	v0,v0,-24447
ffffffffa0801588:	00021438 	dsll	v0,v0,0x10
ffffffffa080158c:	64449c00 	daddiu	a0,v0,-25600
ffffffffa0801590:	0c200bf0 	jal	ffffffffa0802fc0 <queue_init>
ffffffffa0801594:	00000000 	nop
ffffffffa0801598:	3c020000 	lui	v0,0x0
ffffffffa080159c:	64420000 	daddiu	v0,v0,0
ffffffffa08015a0:	00021438 	dsll	v0,v0,0x10
ffffffffa08015a4:	6442a081 	daddiu	v0,v0,-24447
ffffffffa08015a8:	00021438 	dsll	v0,v0,0x10
ffffffffa08015ac:	64449bf0 	daddiu	a0,v0,-25616
ffffffffa08015b0:	0c200bf0 	jal	ffffffffa0802fc0 <queue_init>
ffffffffa08015b4:	00000000 	nop
ffffffffa08015b8:	3c020000 	lui	v0,0x0
ffffffffa08015bc:	64420000 	daddiu	v0,v0,0
ffffffffa08015c0:	00021438 	dsll	v0,v0,0x10
ffffffffa08015c4:	6442a081 	daddiu	v0,v0,-24447
ffffffffa08015c8:	00021438 	dsll	v0,v0,0x10
ffffffffa08015cc:	64429c18 	daddiu	v0,v0,-25576
ffffffffa08015d0:	3c03a0f0 	lui	v1,0xa0f0
ffffffffa08015d4:	fc430280 	sd	v1,640(v0)
ffffffffa08015d8:	3c020000 	lui	v0,0x0
ffffffffa08015dc:	64420000 	daddiu	v0,v0,0
ffffffffa08015e0:	00021438 	dsll	v0,v0,0x10
ffffffffa08015e4:	6442a081 	daddiu	v0,v0,-24447
ffffffffa08015e8:	00021438 	dsll	v0,v0,0x10
ffffffffa08015ec:	64429c18 	daddiu	v0,v0,-25576
ffffffffa08015f0:	3c03a0f2 	lui	v1,0xa0f2
ffffffffa08015f4:	fc430288 	sd	v1,648(v0)
ffffffffa08015f8:	3c020000 	lui	v0,0x0
ffffffffa08015fc:	64420000 	daddiu	v0,v0,0
ffffffffa0801600:	00021438 	dsll	v0,v0,0x10
ffffffffa0801604:	6442a081 	daddiu	v0,v0,-24447
ffffffffa0801608:	00021438 	dsll	v0,v0,0x10
ffffffffa080160c:	64429c18 	daddiu	v0,v0,-25576
ffffffffa0801610:	fc4002c8 	sd	zero,712(v0)
ffffffffa0801614:	3c020000 	lui	v0,0x0
ffffffffa0801618:	64420000 	daddiu	v0,v0,0
ffffffffa080161c:	00021438 	dsll	v0,v0,0x10
ffffffffa0801620:	6442a081 	daddiu	v0,v0,-24447
ffffffffa0801624:	00021438 	dsll	v0,v0,0x10
ffffffffa0801628:	64429c18 	daddiu	v0,v0,-25576
ffffffffa080162c:	fc400298 	sd	zero,664(v0)
ffffffffa0801630:	3c020000 	lui	v0,0x0
ffffffffa0801634:	64420000 	daddiu	v0,v0,0
ffffffffa0801638:	00021438 	dsll	v0,v0,0x10
ffffffffa080163c:	6442a081 	daddiu	v0,v0,-24447
ffffffffa0801640:	00021438 	dsll	v0,v0,0x10
ffffffffa0801644:	64429c18 	daddiu	v0,v0,-25576
ffffffffa0801648:	3c030000 	lui	v1,0x0
ffffffffa080164c:	64630000 	daddiu	v1,v1,0
ffffffffa0801650:	00031c38 	dsll	v1,v1,0x10
ffffffffa0801654:	6463a081 	daddiu	v1,v1,-24447
ffffffffa0801658:	00031c38 	dsll	v1,v1,0x10
ffffffffa080165c:	64639f20 	daddiu	v1,v1,-24800
ffffffffa0801660:	fc4302a0 	sd	v1,672(v0)
ffffffffa0801664:	0000202d 	move	a0,zero
ffffffffa0801668:	3c020000 	lui	v0,0x0
ffffffffa080166c:	64420000 	daddiu	v0,v0,0
ffffffffa0801670:	00021438 	dsll	v0,v0,0x10
ffffffffa0801674:	6442a081 	daddiu	v0,v0,-24447
ffffffffa0801678:	00021438 	dsll	v0,v0,0x10
ffffffffa080167c:	64459c18 	daddiu	a1,v0,-25576
ffffffffa0801680:	3c020000 	lui	v0,0x0
ffffffffa0801684:	64420000 	daddiu	v0,v0,0
ffffffffa0801688:	00021438 	dsll	v0,v0,0x10
ffffffffa080168c:	6442a080 	daddiu	v0,v0,-24448
ffffffffa0801690:	00021438 	dsll	v0,v0,0x10
ffffffffa0801694:	64467ec0 	daddiu	a2,v0,32448
ffffffffa0801698:	0c2008a4 	jal	ffffffffa0802290 <set_pcb>
ffffffffa080169c:	00000000 	nop
ffffffffa08016a0:	3c020000 	lui	v0,0x0
ffffffffa08016a4:	64420000 	daddiu	v0,v0,0
ffffffffa08016a8:	00021438 	dsll	v0,v0,0x10
ffffffffa08016ac:	6442a081 	daddiu	v0,v0,-24447
ffffffffa08016b0:	00021438 	dsll	v0,v0,0x10
ffffffffa08016b4:	64449c00 	daddiu	a0,v0,-25600
ffffffffa08016b8:	3c020000 	lui	v0,0x0
ffffffffa08016bc:	64420000 	daddiu	v0,v0,0
ffffffffa08016c0:	00021438 	dsll	v0,v0,0x10
ffffffffa08016c4:	6442a081 	daddiu	v0,v0,-24447
ffffffffa08016c8:	00021438 	dsll	v0,v0,0x10
ffffffffa08016cc:	64459c18 	daddiu	a1,v0,-25576
ffffffffa08016d0:	0c200c10 	jal	ffffffffa0803040 <queue_push>
ffffffffa08016d4:	00000000 	nop
ffffffffa08016d8:	3c020000 	lui	v0,0x0
ffffffffa08016dc:	64420000 	daddiu	v0,v0,0
ffffffffa08016e0:	00021438 	dsll	v0,v0,0x10
ffffffffa08016e4:	6442a081 	daddiu	v0,v0,-24447
ffffffffa08016e8:	00021438 	dsll	v0,v0,0x10
ffffffffa08016ec:	64429c18 	daddiu	v0,v0,-25576
ffffffffa08016f0:	ac400300 	sw	zero,768(v0)
ffffffffa08016f4:	3c020000 	lui	v0,0x0
ffffffffa08016f8:	64420000 	daddiu	v0,v0,0
ffffffffa08016fc:	00021438 	dsll	v0,v0,0x10
ffffffffa0801700:	6442a081 	daddiu	v0,v0,-24447
ffffffffa0801704:	00021438 	dsll	v0,v0,0x10
ffffffffa0801708:	64429c18 	daddiu	v0,v0,-25576
ffffffffa080170c:	24030012 	li	v1,18
ffffffffa0801710:	ac430304 	sw	v1,772(v0)
ffffffffa0801714:	3c020000 	lui	v0,0x0
ffffffffa0801718:	64420000 	daddiu	v0,v0,0
ffffffffa080171c:	00021438 	dsll	v0,v0,0x10
ffffffffa0801720:	6442a081 	daddiu	v0,v0,-24447
ffffffffa0801724:	00021438 	dsll	v0,v0,0x10
ffffffffa0801728:	64429c18 	daddiu	v0,v0,-25576
ffffffffa080172c:	24030001 	li	v1,1
ffffffffa0801730:	ac4302fc 	sw	v1,764(v0)
ffffffffa0801734:	3c020000 	lui	v0,0x0
ffffffffa0801738:	64420000 	daddiu	v0,v0,0
ffffffffa080173c:	00021438 	dsll	v0,v0,0x10
ffffffffa0801740:	6442a081 	daddiu	v0,v0,-24447
ffffffffa0801744:	00021438 	dsll	v0,v0,0x10
ffffffffa0801748:	64429c18 	daddiu	v0,v0,-25576
ffffffffa080174c:	3c03a0f0 	lui	v1,0xa0f0
ffffffffa0801750:	34631000 	ori	v1,v1,0x1000
ffffffffa0801754:	fc430588 	sd	v1,1416(v0)
ffffffffa0801758:	3c020000 	lui	v0,0x0
ffffffffa080175c:	64420000 	daddiu	v0,v0,0
ffffffffa0801760:	00021438 	dsll	v0,v0,0x10
ffffffffa0801764:	6442a081 	daddiu	v0,v0,-24447
ffffffffa0801768:	00021438 	dsll	v0,v0,0x10
ffffffffa080176c:	64429c18 	daddiu	v0,v0,-25576
ffffffffa0801770:	3c03a0f2 	lui	v1,0xa0f2
ffffffffa0801774:	34631000 	ori	v1,v1,0x1000
ffffffffa0801778:	fc430590 	sd	v1,1424(v0)
ffffffffa080177c:	3c020000 	lui	v0,0x0
ffffffffa0801780:	64420000 	daddiu	v0,v0,0
ffffffffa0801784:	00021438 	dsll	v0,v0,0x10
ffffffffa0801788:	6442a081 	daddiu	v0,v0,-24447
ffffffffa080178c:	00021438 	dsll	v0,v0,0x10
ffffffffa0801790:	64429c18 	daddiu	v0,v0,-25576
ffffffffa0801794:	fc4005d0 	sd	zero,1488(v0)
ffffffffa0801798:	3c020000 	lui	v0,0x0
ffffffffa080179c:	64420000 	daddiu	v0,v0,0
ffffffffa08017a0:	00021438 	dsll	v0,v0,0x10
ffffffffa08017a4:	6442a081 	daddiu	v0,v0,-24447
ffffffffa08017a8:	00021438 	dsll	v0,v0,0x10
ffffffffa08017ac:	64429c18 	daddiu	v0,v0,-25576
ffffffffa08017b0:	fc4005a0 	sd	zero,1440(v0)
ffffffffa08017b4:	3c020000 	lui	v0,0x0
ffffffffa08017b8:	64420000 	daddiu	v0,v0,0
ffffffffa08017bc:	00021438 	dsll	v0,v0,0x10
ffffffffa08017c0:	6442a081 	daddiu	v0,v0,-24447
ffffffffa08017c4:	00021438 	dsll	v0,v0,0x10
ffffffffa08017c8:	64429c18 	daddiu	v0,v0,-25576
ffffffffa08017cc:	3c030000 	lui	v1,0x0
ffffffffa08017d0:	64630000 	daddiu	v1,v1,0
ffffffffa08017d4:	00031c38 	dsll	v1,v1,0x10
ffffffffa08017d8:	6463a081 	daddiu	v1,v1,-24447
ffffffffa08017dc:	00031c38 	dsll	v1,v1,0x10
ffffffffa08017e0:	64639c18 	daddiu	v1,v1,-25576
ffffffffa08017e4:	fc4305a8 	sd	v1,1448(v0)
ffffffffa08017e8:	3c020000 	lui	v0,0x0
ffffffffa08017ec:	64420000 	daddiu	v0,v0,0
ffffffffa08017f0:	00021438 	dsll	v0,v0,0x10
ffffffffa08017f4:	6442a081 	daddiu	v0,v0,-24447
ffffffffa08017f8:	00021438 	dsll	v0,v0,0x10
ffffffffa08017fc:	64429c18 	daddiu	v0,v0,-25576
ffffffffa0801800:	dc430588 	ld	v1,1416(v0)
ffffffffa0801804:	3c020000 	lui	v0,0x0
ffffffffa0801808:	64420000 	daddiu	v0,v0,0
ffffffffa080180c:	00021438 	dsll	v0,v0,0x10
ffffffffa0801810:	6442a081 	daddiu	v0,v0,-24447
ffffffffa0801814:	00021438 	dsll	v0,v0,0x10
ffffffffa0801818:	64429c18 	daddiu	v0,v0,-25576
ffffffffa080181c:	fc4303f0 	sd	v1,1008(v0)
ffffffffa0801820:	3c020000 	lui	v0,0x0
ffffffffa0801824:	64420000 	daddiu	v0,v0,0
ffffffffa0801828:	00021438 	dsll	v0,v0,0x10
ffffffffa080182c:	6442a081 	daddiu	v0,v0,-24447
ffffffffa0801830:	00021438 	dsll	v0,v0,0x10
ffffffffa0801834:	64429c18 	daddiu	v0,v0,-25576
ffffffffa0801838:	dc430590 	ld	v1,1424(v0)
ffffffffa080183c:	3c020000 	lui	v0,0x0
ffffffffa0801840:	64420000 	daddiu	v0,v0,0
ffffffffa0801844:	00021438 	dsll	v0,v0,0x10
ffffffffa0801848:	6442a081 	daddiu	v0,v0,-24447
ffffffffa080184c:	00021438 	dsll	v0,v0,0x10
ffffffffa0801850:	64429c18 	daddiu	v0,v0,-25576
ffffffffa0801854:	fc430530 	sd	v1,1328(v0)
ffffffffa0801858:	3c020000 	lui	v0,0x0
ffffffffa080185c:	64420000 	daddiu	v0,v0,0
ffffffffa0801860:	00021438 	dsll	v0,v0,0x10
ffffffffa0801864:	6442a081 	daddiu	v0,v0,-24447
ffffffffa0801868:	00021438 	dsll	v0,v0,0x10
ffffffffa080186c:	3c030000 	lui	v1,0x0
ffffffffa0801870:	64630000 	daddiu	v1,v1,0
ffffffffa0801874:	00031c38 	dsll	v1,v1,0x10
ffffffffa0801878:	6463a081 	daddiu	v1,v1,-24447
ffffffffa080187c:	00031c38 	dsll	v1,v1,0x10
ffffffffa0801880:	64639f20 	daddiu	v1,v1,-24800
ffffffffa0801884:	fc439c10 	sd	v1,-25584(v0)
ffffffffa0801888:	03c0e82d 	move	sp,s8
ffffffffa080188c:	dfbf0018 	ld	ra,24(sp)
ffffffffa0801890:	dfbe0010 	ld	s8,16(sp)
ffffffffa0801894:	67bd0020 	daddiu	sp,sp,32
ffffffffa0801898:	03e00008 	jr	ra
ffffffffa080189c:	00000000 	nop

ffffffffa08018a0 <init_exception_handler>:
ffffffffa08018a0:	67bdfff0 	daddiu	sp,sp,-16
ffffffffa08018a4:	ffbe0008 	sd	s8,8(sp)
ffffffffa08018a8:	03a0f02d 	move	s8,sp
ffffffffa08018ac:	03c0e82d 	move	sp,s8
ffffffffa08018b0:	dfbe0008 	ld	s8,8(sp)
ffffffffa08018b4:	67bd0010 	daddiu	sp,sp,16
ffffffffa08018b8:	03e00008 	jr	ra
ffffffffa08018bc:	00000000 	nop

ffffffffa08018c0 <init_exception>:
ffffffffa08018c0:	67bdfff0 	daddiu	sp,sp,-16
ffffffffa08018c4:	ffbe0008 	sd	s8,8(sp)
ffffffffa08018c8:	03a0f02d 	move	s8,sp
ffffffffa08018cc:	03c0e82d 	move	sp,s8
ffffffffa08018d0:	dfbe0008 	ld	s8,8(sp)
ffffffffa08018d4:	67bd0010 	daddiu	sp,sp,16
ffffffffa08018d8:	03e00008 	jr	ra
ffffffffa08018dc:	00000000 	nop

ffffffffa08018e0 <init_syscall>:
ffffffffa08018e0:	67bdfff0 	daddiu	sp,sp,-16
ffffffffa08018e4:	ffbe0008 	sd	s8,8(sp)
ffffffffa08018e8:	03a0f02d 	move	s8,sp
ffffffffa08018ec:	03c0e82d 	move	sp,s8
ffffffffa08018f0:	dfbe0008 	ld	s8,8(sp)
ffffffffa08018f4:	67bd0010 	daddiu	sp,sp,16
ffffffffa08018f8:	03e00008 	jr	ra
ffffffffa08018fc:	00000000 	nop

ffffffffa0801900 <irq_timer>:
ffffffffa0801900:	67bdfff0 	daddiu	sp,sp,-16
ffffffffa0801904:	ffbf0008 	sd	ra,8(sp)
ffffffffa0801908:	ffbe0000 	sd	s8,0(sp)
ffffffffa080190c:	03a0f02d 	move	s8,sp
ffffffffa0801910:	0c20041e 	jal	ffffffffa0801078 <screen_reflush>
ffffffffa0801914:	00000000 	nop
ffffffffa0801918:	03c0e82d 	move	sp,s8
ffffffffa080191c:	dfbf0008 	ld	ra,8(sp)
ffffffffa0801920:	dfbe0000 	ld	s8,0(sp)
ffffffffa0801924:	67bd0010 	daddiu	sp,sp,16
ffffffffa0801928:	03e00008 	jr	ra
ffffffffa080192c:	00000000 	nop

ffffffffa0801930 <interrupt_helper>:
ffffffffa0801930:	67bdffe0 	daddiu	sp,sp,-32
ffffffffa0801934:	ffbe0018 	sd	s8,24(sp)
ffffffffa0801938:	03a0f02d 	move	s8,sp
ffffffffa080193c:	0080182d 	move	v1,a0
ffffffffa0801940:	00a0102d 	move	v0,a1
ffffffffa0801944:	00031800 	sll	v1,v1,0x0
ffffffffa0801948:	afc30000 	sw	v1,0(s8)
ffffffffa080194c:	00021000 	sll	v0,v0,0x0
ffffffffa0801950:	afc20004 	sw	v0,4(s8)
ffffffffa0801954:	03c0e82d 	move	sp,s8
ffffffffa0801958:	dfbe0018 	ld	s8,24(sp)
ffffffffa080195c:	67bd0020 	daddiu	sp,sp,32
ffffffffa0801960:	03e00008 	jr	ra
ffffffffa0801964:	00000000 	nop

ffffffffa0801968 <other_exception_handler>:
ffffffffa0801968:	67bdfff0 	daddiu	sp,sp,-16
ffffffffa080196c:	ffbe0008 	sd	s8,8(sp)
ffffffffa0801970:	03a0f02d 	move	s8,sp
ffffffffa0801974:	03c0e82d 	move	sp,s8
ffffffffa0801978:	dfbe0008 	ld	s8,8(sp)
ffffffffa080197c:	67bd0010 	daddiu	sp,sp,16
ffffffffa0801980:	03e00008 	jr	ra
ffffffffa0801984:	00000000 	nop
	...

ffffffffa0801990 <do_barrier_init>:
ffffffffa0801990:	67bdffe0 	daddiu	sp,sp,-32
ffffffffa0801994:	ffbe0018 	sd	s8,24(sp)
ffffffffa0801998:	03a0f02d 	move	s8,sp
ffffffffa080199c:	ffc40000 	sd	a0,0(s8)
ffffffffa08019a0:	00a0102d 	move	v0,a1
ffffffffa08019a4:	00021000 	sll	v0,v0,0x0
ffffffffa08019a8:	afc20008 	sw	v0,8(s8)
ffffffffa08019ac:	dfc20000 	ld	v0,0(s8)
ffffffffa08019b0:	8fc30008 	lw	v1,8(s8)
ffffffffa08019b4:	ac430000 	sw	v1,0(v0)
ffffffffa08019b8:	dfc20000 	ld	v0,0(s8)
ffffffffa08019bc:	ac400004 	sw	zero,4(v0)
ffffffffa08019c0:	03c0e82d 	move	sp,s8
ffffffffa08019c4:	dfbe0018 	ld	s8,24(sp)
ffffffffa08019c8:	67bd0020 	daddiu	sp,sp,32
ffffffffa08019cc:	03e00008 	jr	ra
ffffffffa08019d0:	00000000 	nop

ffffffffa08019d4 <do_barrier_wait>:
ffffffffa08019d4:	67bdffe0 	daddiu	sp,sp,-32
ffffffffa08019d8:	ffbf0018 	sd	ra,24(sp)
ffffffffa08019dc:	ffbe0010 	sd	s8,16(sp)
ffffffffa08019e0:	03a0f02d 	move	s8,sp
ffffffffa08019e4:	ffc40000 	sd	a0,0(s8)
ffffffffa08019e8:	dfc20000 	ld	v0,0(s8)
ffffffffa08019ec:	8c420004 	lw	v0,4(v0)
ffffffffa08019f0:	24420001 	addiu	v0,v0,1
ffffffffa08019f4:	0040182d 	move	v1,v0
ffffffffa08019f8:	dfc20000 	ld	v0,0(s8)
ffffffffa08019fc:	ac430004 	sw	v1,4(v0)
ffffffffa0801a00:	dfc20000 	ld	v0,0(s8)
ffffffffa0801a04:	8c430004 	lw	v1,4(v0)
ffffffffa0801a08:	dfc20000 	ld	v0,0(s8)
ffffffffa0801a0c:	8c420000 	lw	v0,0(v0)
ffffffffa0801a10:	0062102a 	slt	v0,v1,v0
ffffffffa0801a14:	10400008 	beqz	v0,ffffffffa0801a38 <do_barrier_wait+0x64>
ffffffffa0801a18:	00000000 	nop
ffffffffa0801a1c:	dfc20000 	ld	v0,0(s8)
ffffffffa0801a20:	64420008 	daddiu	v0,v0,8
ffffffffa0801a24:	0040202d 	move	a0,v0
ffffffffa0801a28:	0c2009a6 	jal	ffffffffa0802698 <do_block>
ffffffffa0801a2c:	00000000 	nop
ffffffffa0801a30:	08200695 	j	ffffffffa0801a54 <do_barrier_wait+0x80>
ffffffffa0801a34:	00000000 	nop
ffffffffa0801a38:	dfc20000 	ld	v0,0(s8)
ffffffffa0801a3c:	64420008 	daddiu	v0,v0,8
ffffffffa0801a40:	0040202d 	move	a0,v0
ffffffffa0801a44:	0c2009e9 	jal	ffffffffa08027a4 <do_unblock_all>
ffffffffa0801a48:	00000000 	nop
ffffffffa0801a4c:	dfc20000 	ld	v0,0(s8)
ffffffffa0801a50:	ac400004 	sw	zero,4(v0)
ffffffffa0801a54:	03c0e82d 	move	sp,s8
ffffffffa0801a58:	dfbf0018 	ld	ra,24(sp)
ffffffffa0801a5c:	dfbe0010 	ld	s8,16(sp)
ffffffffa0801a60:	67bd0020 	daddiu	sp,sp,32
ffffffffa0801a64:	03e00008 	jr	ra
ffffffffa0801a68:	00000000 	nop
ffffffffa0801a6c:	00000000 	nop

ffffffffa0801a70 <do_condition_init>:
ffffffffa0801a70:	67bdffe0 	daddiu	sp,sp,-32
ffffffffa0801a74:	ffbf0018 	sd	ra,24(sp)
ffffffffa0801a78:	ffbe0010 	sd	s8,16(sp)
ffffffffa0801a7c:	03a0f02d 	move	s8,sp
ffffffffa0801a80:	ffc40000 	sd	a0,0(s8)
ffffffffa0801a84:	dfc20000 	ld	v0,0(s8)
ffffffffa0801a88:	0040202d 	move	a0,v0
ffffffffa0801a8c:	0c200bf0 	jal	ffffffffa0802fc0 <queue_init>
ffffffffa0801a90:	00000000 	nop
ffffffffa0801a94:	03c0e82d 	move	sp,s8
ffffffffa0801a98:	dfbf0018 	ld	ra,24(sp)
ffffffffa0801a9c:	dfbe0010 	ld	s8,16(sp)
ffffffffa0801aa0:	67bd0020 	daddiu	sp,sp,32
ffffffffa0801aa4:	03e00008 	jr	ra
ffffffffa0801aa8:	00000000 	nop

ffffffffa0801aac <do_condition_wait>:
ffffffffa0801aac:	67bdffe0 	daddiu	sp,sp,-32
ffffffffa0801ab0:	ffbf0018 	sd	ra,24(sp)
ffffffffa0801ab4:	ffbe0010 	sd	s8,16(sp)
ffffffffa0801ab8:	03a0f02d 	move	s8,sp
ffffffffa0801abc:	ffc40000 	sd	a0,0(s8)
ffffffffa0801ac0:	ffc50008 	sd	a1,8(s8)
ffffffffa0801ac4:	dfc40000 	ld	a0,0(s8)
ffffffffa0801ac8:	0c2007ab 	jal	ffffffffa0801eac <do_mutex_lock_release>
ffffffffa0801acc:	00000000 	nop
ffffffffa0801ad0:	dfc20008 	ld	v0,8(s8)
ffffffffa0801ad4:	0040202d 	move	a0,v0
ffffffffa0801ad8:	0c2009a6 	jal	ffffffffa0802698 <do_block>
ffffffffa0801adc:	00000000 	nop
ffffffffa0801ae0:	dfc40000 	ld	a0,0(s8)
ffffffffa0801ae4:	0c200786 	jal	ffffffffa0801e18 <do_mutex_lock_acquire>
ffffffffa0801ae8:	00000000 	nop
ffffffffa0801aec:	03c0e82d 	move	sp,s8
ffffffffa0801af0:	dfbf0018 	ld	ra,24(sp)
ffffffffa0801af4:	dfbe0010 	ld	s8,16(sp)
ffffffffa0801af8:	67bd0020 	daddiu	sp,sp,32
ffffffffa0801afc:	03e00008 	jr	ra
ffffffffa0801b00:	00000000 	nop

ffffffffa0801b04 <do_condition_signal>:
ffffffffa0801b04:	67bdffe0 	daddiu	sp,sp,-32
ffffffffa0801b08:	ffbf0018 	sd	ra,24(sp)
ffffffffa0801b0c:	ffbe0010 	sd	s8,16(sp)
ffffffffa0801b10:	03a0f02d 	move	s8,sp
ffffffffa0801b14:	ffc40000 	sd	a0,0(s8)
ffffffffa0801b18:	dfc20000 	ld	v0,0(s8)
ffffffffa0801b1c:	0040202d 	move	a0,v0
ffffffffa0801b20:	0c2009cc 	jal	ffffffffa0802730 <do_unblock_one>
ffffffffa0801b24:	00000000 	nop
ffffffffa0801b28:	03c0e82d 	move	sp,s8
ffffffffa0801b2c:	dfbf0018 	ld	ra,24(sp)
ffffffffa0801b30:	dfbe0010 	ld	s8,16(sp)
ffffffffa0801b34:	67bd0020 	daddiu	sp,sp,32
ffffffffa0801b38:	03e00008 	jr	ra
ffffffffa0801b3c:	00000000 	nop

ffffffffa0801b40 <do_condition_broadcast>:
ffffffffa0801b40:	67bdffe0 	daddiu	sp,sp,-32
ffffffffa0801b44:	ffbf0018 	sd	ra,24(sp)
ffffffffa0801b48:	ffbe0010 	sd	s8,16(sp)
ffffffffa0801b4c:	03a0f02d 	move	s8,sp
ffffffffa0801b50:	ffc40000 	sd	a0,0(s8)
ffffffffa0801b54:	dfc20000 	ld	v0,0(s8)
ffffffffa0801b58:	0040202d 	move	a0,v0
ffffffffa0801b5c:	0c2009e9 	jal	ffffffffa08027a4 <do_unblock_all>
ffffffffa0801b60:	00000000 	nop
ffffffffa0801b64:	03c0e82d 	move	sp,s8
ffffffffa0801b68:	dfbf0018 	ld	ra,24(sp)
ffffffffa0801b6c:	dfbe0010 	ld	s8,16(sp)
ffffffffa0801b70:	67bd0020 	daddiu	sp,sp,32
ffffffffa0801b74:	03e00008 	jr	ra
ffffffffa0801b78:	00000000 	nop
ffffffffa0801b7c:	00000000 	nop

ffffffffa0801b80 <do_semaphore_init>:
ffffffffa0801b80:	67bdffe0 	daddiu	sp,sp,-32
ffffffffa0801b84:	ffbe0018 	sd	s8,24(sp)
ffffffffa0801b88:	03a0f02d 	move	s8,sp
ffffffffa0801b8c:	ffc40000 	sd	a0,0(s8)
ffffffffa0801b90:	00a0102d 	move	v0,a1
ffffffffa0801b94:	00021000 	sll	v0,v0,0x0
ffffffffa0801b98:	afc20008 	sw	v0,8(s8)
ffffffffa0801b9c:	dfc20000 	ld	v0,0(s8)
ffffffffa0801ba0:	8fc30008 	lw	v1,8(s8)
ffffffffa0801ba4:	ac430000 	sw	v1,0(v0)
ffffffffa0801ba8:	03c0e82d 	move	sp,s8
ffffffffa0801bac:	dfbe0018 	ld	s8,24(sp)
ffffffffa0801bb0:	67bd0020 	daddiu	sp,sp,32
ffffffffa0801bb4:	03e00008 	jr	ra
ffffffffa0801bb8:	00000000 	nop

ffffffffa0801bbc <do_semaphore_up>:
ffffffffa0801bbc:	67bdffe0 	daddiu	sp,sp,-32
ffffffffa0801bc0:	ffbf0018 	sd	ra,24(sp)
ffffffffa0801bc4:	ffbe0010 	sd	s8,16(sp)
ffffffffa0801bc8:	03a0f02d 	move	s8,sp
ffffffffa0801bcc:	ffc40000 	sd	a0,0(s8)
ffffffffa0801bd0:	dfc20000 	ld	v0,0(s8)
ffffffffa0801bd4:	8c420000 	lw	v0,0(v0)
ffffffffa0801bd8:	24420001 	addiu	v0,v0,1
ffffffffa0801bdc:	0040182d 	move	v1,v0
ffffffffa0801be0:	dfc20000 	ld	v0,0(s8)
ffffffffa0801be4:	ac430000 	sw	v1,0(v0)
ffffffffa0801be8:	dfc20000 	ld	v0,0(s8)
ffffffffa0801bec:	8c420000 	lw	v0,0(v0)
ffffffffa0801bf0:	14400006 	bnez	v0,ffffffffa0801c0c <do_semaphore_up+0x50>
ffffffffa0801bf4:	00000000 	nop
ffffffffa0801bf8:	dfc20000 	ld	v0,0(s8)
ffffffffa0801bfc:	64420008 	daddiu	v0,v0,8
ffffffffa0801c00:	0040202d 	move	a0,v0
ffffffffa0801c04:	0c2009cc 	jal	ffffffffa0802730 <do_unblock_one>
ffffffffa0801c08:	00000000 	nop
ffffffffa0801c0c:	03c0e82d 	move	sp,s8
ffffffffa0801c10:	dfbf0018 	ld	ra,24(sp)
ffffffffa0801c14:	dfbe0010 	ld	s8,16(sp)
ffffffffa0801c18:	67bd0020 	daddiu	sp,sp,32
ffffffffa0801c1c:	03e00008 	jr	ra
ffffffffa0801c20:	00000000 	nop

ffffffffa0801c24 <do_semaphore_down>:
ffffffffa0801c24:	67bdffe0 	daddiu	sp,sp,-32
ffffffffa0801c28:	ffbf0018 	sd	ra,24(sp)
ffffffffa0801c2c:	ffbe0010 	sd	s8,16(sp)
ffffffffa0801c30:	03a0f02d 	move	s8,sp
ffffffffa0801c34:	ffc40000 	sd	a0,0(s8)
ffffffffa0801c38:	dfc20000 	ld	v0,0(s8)
ffffffffa0801c3c:	8c420000 	lw	v0,0(v0)
ffffffffa0801c40:	2442ffff 	addiu	v0,v0,-1
ffffffffa0801c44:	0040182d 	move	v1,v0
ffffffffa0801c48:	dfc20000 	ld	v0,0(s8)
ffffffffa0801c4c:	ac430000 	sw	v1,0(v0)
ffffffffa0801c50:	dfc20000 	ld	v0,0(s8)
ffffffffa0801c54:	8c420000 	lw	v0,0(v0)
ffffffffa0801c58:	04410006 	bgez	v0,ffffffffa0801c74 <do_semaphore_down+0x50>
ffffffffa0801c5c:	00000000 	nop
ffffffffa0801c60:	dfc20000 	ld	v0,0(s8)
ffffffffa0801c64:	64420008 	daddiu	v0,v0,8
ffffffffa0801c68:	0040202d 	move	a0,v0
ffffffffa0801c6c:	0c2009a6 	jal	ffffffffa0802698 <do_block>
ffffffffa0801c70:	00000000 	nop
ffffffffa0801c74:	03c0e82d 	move	sp,s8
ffffffffa0801c78:	dfbf0018 	ld	ra,24(sp)
ffffffffa0801c7c:	dfbe0010 	ld	s8,16(sp)
ffffffffa0801c80:	67bd0020 	daddiu	sp,sp,32
ffffffffa0801c84:	03e00008 	jr	ra
ffffffffa0801c88:	00000000 	nop
ffffffffa0801c8c:	00000000 	nop

ffffffffa0801c90 <init_pcb_core1>:
ffffffffa0801c90:	67bdfff0 	daddiu	sp,sp,-16
ffffffffa0801c94:	ffbe0008 	sd	s8,8(sp)
ffffffffa0801c98:	03a0f02d 	move	s8,sp
ffffffffa0801c9c:	03c0e82d 	move	sp,s8
ffffffffa0801ca0:	dfbe0008 	ld	s8,8(sp)
ffffffffa0801ca4:	67bd0010 	daddiu	sp,sp,16
ffffffffa0801ca8:	03e00008 	jr	ra
ffffffffa0801cac:	00000000 	nop

ffffffffa0801cb0 <smp_bootstrap>:
ffffffffa0801cb0:	67bdfff0 	daddiu	sp,sp,-16
ffffffffa0801cb4:	ffbe0008 	sd	s8,8(sp)
ffffffffa0801cb8:	03a0f02d 	move	s8,sp
ffffffffa0801cbc:	03c0e82d 	move	sp,s8
ffffffffa0801cc0:	dfbe0008 	ld	s8,8(sp)
ffffffffa0801cc4:	67bd0010 	daddiu	sp,sp,16
ffffffffa0801cc8:	03e00008 	jr	ra
ffffffffa0801ccc:	00000000 	nop

ffffffffa0801cd0 <ipi_write64>:
ffffffffa0801cd0:	67bdffe0 	daddiu	sp,sp,-32
ffffffffa0801cd4:	ffbe0018 	sd	s8,24(sp)
ffffffffa0801cd8:	03a0f02d 	move	s8,sp
ffffffffa0801cdc:	ffc40000 	sd	a0,0(s8)
ffffffffa0801ce0:	ffc50008 	sd	a1,8(s8)
ffffffffa0801ce4:	03c0e82d 	move	sp,s8
ffffffffa0801ce8:	dfbe0018 	ld	s8,24(sp)
ffffffffa0801cec:	67bd0020 	daddiu	sp,sp,32
ffffffffa0801cf0:	03e00008 	jr	ra
ffffffffa0801cf4:	00000000 	nop

ffffffffa0801cf8 <loongson3_boot_secondary>:
ffffffffa0801cf8:	67bdfff0 	daddiu	sp,sp,-16
ffffffffa0801cfc:	ffbe0008 	sd	s8,8(sp)
ffffffffa0801d00:	03a0f02d 	move	s8,sp
ffffffffa0801d04:	03c0e82d 	move	sp,s8
ffffffffa0801d08:	dfbe0008 	ld	s8,8(sp)
ffffffffa0801d0c:	67bd0010 	daddiu	sp,sp,16
ffffffffa0801d10:	03e00008 	jr	ra
ffffffffa0801d14:	00000000 	nop
	...

ffffffffa0801d20 <spin_lock_init>:
ffffffffa0801d20:	67bdffe0 	daddiu	sp,sp,-32
ffffffffa0801d24:	ffbe0018 	sd	s8,24(sp)
ffffffffa0801d28:	03a0f02d 	move	s8,sp
ffffffffa0801d2c:	ffc40000 	sd	a0,0(s8)
ffffffffa0801d30:	dfc20000 	ld	v0,0(s8)
ffffffffa0801d34:	ac400000 	sw	zero,0(v0)
ffffffffa0801d38:	03c0e82d 	move	sp,s8
ffffffffa0801d3c:	dfbe0018 	ld	s8,24(sp)
ffffffffa0801d40:	67bd0020 	daddiu	sp,sp,32
ffffffffa0801d44:	03e00008 	jr	ra
ffffffffa0801d48:	00000000 	nop

ffffffffa0801d4c <spin_lock_acquire>:
ffffffffa0801d4c:	67bdffe0 	daddiu	sp,sp,-32
ffffffffa0801d50:	ffbe0018 	sd	s8,24(sp)
ffffffffa0801d54:	03a0f02d 	move	s8,sp
ffffffffa0801d58:	ffc40000 	sd	a0,0(s8)
ffffffffa0801d5c:	00000000 	nop
ffffffffa0801d60:	dfc20000 	ld	v0,0(s8)
ffffffffa0801d64:	8c430000 	lw	v1,0(v0)
ffffffffa0801d68:	24020001 	li	v0,1
ffffffffa0801d6c:	1062fffc 	beq	v1,v0,ffffffffa0801d60 <spin_lock_acquire+0x14>
ffffffffa0801d70:	00000000 	nop
ffffffffa0801d74:	dfc20000 	ld	v0,0(s8)
ffffffffa0801d78:	24030001 	li	v1,1
ffffffffa0801d7c:	ac430000 	sw	v1,0(v0)
ffffffffa0801d80:	03c0e82d 	move	sp,s8
ffffffffa0801d84:	dfbe0018 	ld	s8,24(sp)
ffffffffa0801d88:	67bd0020 	daddiu	sp,sp,32
ffffffffa0801d8c:	03e00008 	jr	ra
ffffffffa0801d90:	00000000 	nop

ffffffffa0801d94 <spin_lock_release>:
ffffffffa0801d94:	67bdffe0 	daddiu	sp,sp,-32
ffffffffa0801d98:	ffbe0018 	sd	s8,24(sp)
ffffffffa0801d9c:	03a0f02d 	move	s8,sp
ffffffffa0801da0:	ffc40000 	sd	a0,0(s8)
ffffffffa0801da4:	dfc20000 	ld	v0,0(s8)
ffffffffa0801da8:	ac400000 	sw	zero,0(v0)
ffffffffa0801dac:	03c0e82d 	move	sp,s8
ffffffffa0801db0:	dfbe0018 	ld	s8,24(sp)
ffffffffa0801db4:	67bd0020 	daddiu	sp,sp,32
ffffffffa0801db8:	03e00008 	jr	ra
ffffffffa0801dbc:	00000000 	nop

ffffffffa0801dc0 <do_mutex_lock_init>:
ffffffffa0801dc0:	67bdffe0 	daddiu	sp,sp,-32
ffffffffa0801dc4:	ffbf0018 	sd	ra,24(sp)
ffffffffa0801dc8:	ffbe0010 	sd	s8,16(sp)
ffffffffa0801dcc:	03a0f02d 	move	s8,sp
ffffffffa0801dd0:	ffc40000 	sd	a0,0(s8)
ffffffffa0801dd4:	dfc20000 	ld	v0,0(s8)
ffffffffa0801dd8:	ac400000 	sw	zero,0(v0)
ffffffffa0801ddc:	dfc20000 	ld	v0,0(s8)
ffffffffa0801de0:	fc400008 	sd	zero,8(v0)
ffffffffa0801de4:	dfc20000 	ld	v0,0(s8)
ffffffffa0801de8:	fc400010 	sd	zero,16(v0)
ffffffffa0801dec:	dfc20000 	ld	v0,0(s8)
ffffffffa0801df0:	64420018 	daddiu	v0,v0,24
ffffffffa0801df4:	0040202d 	move	a0,v0
ffffffffa0801df8:	0c200bf0 	jal	ffffffffa0802fc0 <queue_init>
ffffffffa0801dfc:	00000000 	nop
ffffffffa0801e00:	03c0e82d 	move	sp,s8
ffffffffa0801e04:	dfbf0018 	ld	ra,24(sp)
ffffffffa0801e08:	dfbe0010 	ld	s8,16(sp)
ffffffffa0801e0c:	67bd0020 	daddiu	sp,sp,32
ffffffffa0801e10:	03e00008 	jr	ra
ffffffffa0801e14:	00000000 	nop

ffffffffa0801e18 <do_mutex_lock_acquire>:
ffffffffa0801e18:	67bdffe0 	daddiu	sp,sp,-32
ffffffffa0801e1c:	ffbf0018 	sd	ra,24(sp)
ffffffffa0801e20:	ffbe0010 	sd	s8,16(sp)
ffffffffa0801e24:	03a0f02d 	move	s8,sp
ffffffffa0801e28:	ffc40000 	sd	a0,0(s8)
ffffffffa0801e2c:	08200792 	j	ffffffffa0801e48 <do_mutex_lock_acquire+0x30>
ffffffffa0801e30:	00000000 	nop
ffffffffa0801e34:	dfc20000 	ld	v0,0(s8)
ffffffffa0801e38:	64420018 	daddiu	v0,v0,24
ffffffffa0801e3c:	0040202d 	move	a0,v0
ffffffffa0801e40:	0c2009a6 	jal	ffffffffa0802698 <do_block>
ffffffffa0801e44:	00000000 	nop
ffffffffa0801e48:	dfc20000 	ld	v0,0(s8)
ffffffffa0801e4c:	8c430000 	lw	v1,0(v0)
ffffffffa0801e50:	24020001 	li	v0,1
ffffffffa0801e54:	1062fff7 	beq	v1,v0,ffffffffa0801e34 <do_mutex_lock_acquire+0x1c>
ffffffffa0801e58:	00000000 	nop
ffffffffa0801e5c:	dfc20000 	ld	v0,0(s8)
ffffffffa0801e60:	24030001 	li	v1,1
ffffffffa0801e64:	ac430000 	sw	v1,0(v0)
ffffffffa0801e68:	3c020000 	lui	v0,0x0
ffffffffa0801e6c:	64420000 	daddiu	v0,v0,0
ffffffffa0801e70:	00021438 	dsll	v0,v0,0x10
ffffffffa0801e74:	6442a081 	daddiu	v0,v0,-24447
ffffffffa0801e78:	00021438 	dsll	v0,v0,0x10
ffffffffa0801e7c:	dc429c10 	ld	v0,-25584(v0)
ffffffffa0801e80:	644202a8 	daddiu	v0,v0,680
ffffffffa0801e84:	0040202d 	move	a0,v0
ffffffffa0801e88:	dfc50000 	ld	a1,0(s8)
ffffffffa0801e8c:	0c200c10 	jal	ffffffffa0803040 <queue_push>
ffffffffa0801e90:	00000000 	nop
ffffffffa0801e94:	03c0e82d 	move	sp,s8
ffffffffa0801e98:	dfbf0018 	ld	ra,24(sp)
ffffffffa0801e9c:	dfbe0010 	ld	s8,16(sp)
ffffffffa0801ea0:	67bd0020 	daddiu	sp,sp,32
ffffffffa0801ea4:	03e00008 	jr	ra
ffffffffa0801ea8:	00000000 	nop

ffffffffa0801eac <do_mutex_lock_release>:
ffffffffa0801eac:	67bdffe0 	daddiu	sp,sp,-32
ffffffffa0801eb0:	ffbf0018 	sd	ra,24(sp)
ffffffffa0801eb4:	ffbe0010 	sd	s8,16(sp)
ffffffffa0801eb8:	03a0f02d 	move	s8,sp
ffffffffa0801ebc:	ffc40000 	sd	a0,0(s8)
ffffffffa0801ec0:	dfc20000 	ld	v0,0(s8)
ffffffffa0801ec4:	ac400000 	sw	zero,0(v0)
ffffffffa0801ec8:	dfc20000 	ld	v0,0(s8)
ffffffffa0801ecc:	64420018 	daddiu	v0,v0,24
ffffffffa0801ed0:	0040202d 	move	a0,v0
ffffffffa0801ed4:	0c2009e9 	jal	ffffffffa08027a4 <do_unblock_all>
ffffffffa0801ed8:	00000000 	nop
ffffffffa0801edc:	3c020000 	lui	v0,0x0
ffffffffa0801ee0:	64420000 	daddiu	v0,v0,0
ffffffffa0801ee4:	00021438 	dsll	v0,v0,0x10
ffffffffa0801ee8:	6442a081 	daddiu	v0,v0,-24447
ffffffffa0801eec:	00021438 	dsll	v0,v0,0x10
ffffffffa0801ef0:	dc429c10 	ld	v0,-25584(v0)
ffffffffa0801ef4:	644202a8 	daddiu	v0,v0,680
ffffffffa0801ef8:	0040202d 	move	a0,v0
ffffffffa0801efc:	dfc50000 	ld	a1,0(s8)
ffffffffa0801f00:	0c200c5c 	jal	ffffffffa0803170 <queue_remove>
ffffffffa0801f04:	00000000 	nop
ffffffffa0801f08:	03c0e82d 	move	sp,s8
ffffffffa0801f0c:	dfbf0018 	ld	ra,24(sp)
ffffffffa0801f10:	dfbe0010 	ld	s8,16(sp)
ffffffffa0801f14:	67bd0020 	daddiu	sp,sp,32
ffffffffa0801f18:	03e00008 	jr	ra
ffffffffa0801f1c:	00000000 	nop

ffffffffa0801f20 <init_stack>:
ffffffffa0801f20:	67bdfff0 	daddiu	sp,sp,-16
ffffffffa0801f24:	ffbe0008 	sd	s8,8(sp)
ffffffffa0801f28:	03a0f02d 	move	s8,sp
ffffffffa0801f2c:	03c0e82d 	move	sp,s8
ffffffffa0801f30:	dfbe0008 	ld	s8,8(sp)
ffffffffa0801f34:	67bd0010 	daddiu	sp,sp,16
ffffffffa0801f38:	03e00008 	jr	ra
ffffffffa0801f3c:	00000000 	nop

ffffffffa0801f40 <new_kernel_stack>:
ffffffffa0801f40:	67bdfff0 	daddiu	sp,sp,-16
ffffffffa0801f44:	ffbe0008 	sd	s8,8(sp)
ffffffffa0801f48:	03a0f02d 	move	s8,sp
ffffffffa0801f4c:	03c0e82d 	move	sp,s8
ffffffffa0801f50:	dfbe0008 	ld	s8,8(sp)
ffffffffa0801f54:	67bd0010 	daddiu	sp,sp,16
ffffffffa0801f58:	03e00008 	jr	ra
ffffffffa0801f5c:	00000000 	nop

ffffffffa0801f60 <new_user_stack>:
ffffffffa0801f60:	67bdfff0 	daddiu	sp,sp,-16
ffffffffa0801f64:	ffbe0008 	sd	s8,8(sp)
ffffffffa0801f68:	03a0f02d 	move	s8,sp
ffffffffa0801f6c:	03c0e82d 	move	sp,s8
ffffffffa0801f70:	dfbe0008 	ld	s8,8(sp)
ffffffffa0801f74:	67bd0010 	daddiu	sp,sp,16
ffffffffa0801f78:	03e00008 	jr	ra
ffffffffa0801f7c:	00000000 	nop

ffffffffa0801f80 <free_kernel_stack>:
ffffffffa0801f80:	67bdffe0 	daddiu	sp,sp,-32
ffffffffa0801f84:	ffbe0018 	sd	s8,24(sp)
ffffffffa0801f88:	03a0f02d 	move	s8,sp
ffffffffa0801f8c:	ffc40000 	sd	a0,0(s8)
ffffffffa0801f90:	03c0e82d 	move	sp,s8
ffffffffa0801f94:	dfbe0018 	ld	s8,24(sp)
ffffffffa0801f98:	67bd0020 	daddiu	sp,sp,32
ffffffffa0801f9c:	03e00008 	jr	ra
ffffffffa0801fa0:	00000000 	nop

ffffffffa0801fa4 <free_user_stack>:
ffffffffa0801fa4:	67bdffe0 	daddiu	sp,sp,-32
ffffffffa0801fa8:	ffbe0018 	sd	s8,24(sp)
ffffffffa0801fac:	03a0f02d 	move	s8,sp
ffffffffa0801fb0:	ffc40000 	sd	a0,0(s8)
ffffffffa0801fb4:	03c0e82d 	move	sp,s8
ffffffffa0801fb8:	dfbe0018 	ld	s8,24(sp)
ffffffffa0801fbc:	67bd0020 	daddiu	sp,sp,32
ffffffffa0801fc0:	03e00008 	jr	ra
ffffffffa0801fc4:	00000000 	nop

ffffffffa0801fc8 <alloc_stack>:
ffffffffa0801fc8:	67bdffe0 	daddiu	sp,sp,-32
ffffffffa0801fcc:	ffbf0018 	sd	ra,24(sp)
ffffffffa0801fd0:	ffbe0010 	sd	s8,16(sp)
ffffffffa0801fd4:	03a0f02d 	move	s8,sp
ffffffffa0801fd8:	24020001 	li	v0,1
ffffffffa0801fdc:	afc20000 	sw	v0,0(s8)
ffffffffa0801fe0:	08200899 	j	ffffffffa0802264 <alloc_stack+0x29c>
ffffffffa0801fe4:	00000000 	nop
ffffffffa0801fe8:	3c050000 	lui	a1,0x0
ffffffffa0801fec:	64a50000 	daddiu	a1,a1,0
ffffffffa0801ff0:	00052c38 	dsll	a1,a1,0x10
ffffffffa0801ff4:	64a5a081 	daddiu	a1,a1,-24447
ffffffffa0801ff8:	00052c38 	dsll	a1,a1,0x10
ffffffffa0801ffc:	8fc40000 	lw	a0,0(s8)
ffffffffa0802000:	0080182d 	move	v1,a0
ffffffffa0802004:	00031178 	dsll	v0,v1,0x5
ffffffffa0802008:	0040182d 	move	v1,v0
ffffffffa080200c:	000310b8 	dsll	v0,v1,0x2
ffffffffa0802010:	0043102f 	dsubu	v0,v0,v1
ffffffffa0802014:	0044102d 	daddu	v0,v0,a0
ffffffffa0802018:	000210f8 	dsll	v0,v0,0x3
ffffffffa080201c:	64a39c18 	daddiu	v1,a1,-25576
ffffffffa0802020:	0043102d 	daddu	v0,v0,v1
ffffffffa0802024:	8c4302fc 	lw	v1,764(v0)
ffffffffa0802028:	24020003 	li	v0,3
ffffffffa080202c:	1462008a 	bne	v1,v0,ffffffffa0802258 <alloc_stack+0x290>
ffffffffa0802030:	00000000 	nop
ffffffffa0802034:	8fc40000 	lw	a0,0(s8)
ffffffffa0802038:	0080182d 	move	v1,a0
ffffffffa080203c:	00031178 	dsll	v0,v1,0x5
ffffffffa0802040:	0040182d 	move	v1,v0
ffffffffa0802044:	000310b8 	dsll	v0,v1,0x2
ffffffffa0802048:	0043102f 	dsubu	v0,v0,v1
ffffffffa080204c:	0044102d 	daddu	v0,v0,a0
ffffffffa0802050:	000210f8 	dsll	v0,v0,0x3
ffffffffa0802054:	3c030000 	lui	v1,0x0
ffffffffa0802058:	64630000 	daddiu	v1,v1,0
ffffffffa080205c:	00031c38 	dsll	v1,v1,0x10
ffffffffa0802060:	6463a081 	daddiu	v1,v1,-24447
ffffffffa0802064:	00031c38 	dsll	v1,v1,0x10
ffffffffa0802068:	64639c18 	daddiu	v1,v1,-25576
ffffffffa080206c:	0043102d 	daddu	v0,v0,v1
ffffffffa0802070:	0040202d 	move	a0,v0
ffffffffa0802074:	24050308 	li	a1,776
ffffffffa0802078:	0c200f19 	jal	ffffffffa0803c64 <bzero>
ffffffffa080207c:	00000000 	nop
ffffffffa0802080:	8fc20000 	lw	v0,0(s8)
ffffffffa0802084:	00021300 	sll	v0,v0,0xc
ffffffffa0802088:	0040182d 	move	v1,v0
ffffffffa080208c:	3c02a0f0 	lui	v0,0xa0f0
ffffffffa0802090:	0062282d 	daddu	a1,v1,v0
ffffffffa0802094:	3c060000 	lui	a2,0x0
ffffffffa0802098:	64c60000 	daddiu	a2,a2,0
ffffffffa080209c:	00063438 	dsll	a2,a2,0x10
ffffffffa08020a0:	64c6a081 	daddiu	a2,a2,-24447
ffffffffa08020a4:	00063438 	dsll	a2,a2,0x10
ffffffffa08020a8:	8fc40000 	lw	a0,0(s8)
ffffffffa08020ac:	0080182d 	move	v1,a0
ffffffffa08020b0:	00031178 	dsll	v0,v1,0x5
ffffffffa08020b4:	0040182d 	move	v1,v0
ffffffffa08020b8:	000310b8 	dsll	v0,v1,0x2
ffffffffa08020bc:	0043102f 	dsubu	v0,v0,v1
ffffffffa08020c0:	0044102d 	daddu	v0,v0,a0
ffffffffa08020c4:	000210f8 	dsll	v0,v0,0x3
ffffffffa08020c8:	64c39c18 	daddiu	v1,a2,-25576
ffffffffa08020cc:	0043102d 	daddu	v0,v0,v1
ffffffffa08020d0:	fc450280 	sd	a1,640(v0)
ffffffffa08020d4:	8fc20000 	lw	v0,0(s8)
ffffffffa08020d8:	00021300 	sll	v0,v0,0xc
ffffffffa08020dc:	0040182d 	move	v1,v0
ffffffffa08020e0:	3c02a0f2 	lui	v0,0xa0f2
ffffffffa08020e4:	0062282d 	daddu	a1,v1,v0
ffffffffa08020e8:	3c060000 	lui	a2,0x0
ffffffffa08020ec:	64c60000 	daddiu	a2,a2,0
ffffffffa08020f0:	00063438 	dsll	a2,a2,0x10
ffffffffa08020f4:	64c6a081 	daddiu	a2,a2,-24447
ffffffffa08020f8:	00063438 	dsll	a2,a2,0x10
ffffffffa08020fc:	8fc40000 	lw	a0,0(s8)
ffffffffa0802100:	0080182d 	move	v1,a0
ffffffffa0802104:	00031178 	dsll	v0,v1,0x5
ffffffffa0802108:	0040182d 	move	v1,v0
ffffffffa080210c:	000310b8 	dsll	v0,v1,0x2
ffffffffa0802110:	0043102f 	dsubu	v0,v0,v1
ffffffffa0802114:	0044102d 	daddu	v0,v0,a0
ffffffffa0802118:	000210f8 	dsll	v0,v0,0x3
ffffffffa080211c:	64c39c18 	daddiu	v1,a2,-25576
ffffffffa0802120:	0043102d 	daddu	v0,v0,v1
ffffffffa0802124:	fc450288 	sd	a1,648(v0)
ffffffffa0802128:	3c050000 	lui	a1,0x0
ffffffffa080212c:	64a50000 	daddiu	a1,a1,0
ffffffffa0802130:	00052c38 	dsll	a1,a1,0x10
ffffffffa0802134:	64a5a081 	daddiu	a1,a1,-24447
ffffffffa0802138:	00052c38 	dsll	a1,a1,0x10
ffffffffa080213c:	8fc40000 	lw	a0,0(s8)
ffffffffa0802140:	0080182d 	move	v1,a0
ffffffffa0802144:	00031178 	dsll	v0,v1,0x5
ffffffffa0802148:	0040182d 	move	v1,v0
ffffffffa080214c:	000310b8 	dsll	v0,v1,0x2
ffffffffa0802150:	0043102f 	dsubu	v0,v0,v1
ffffffffa0802154:	0044102d 	daddu	v0,v0,a0
ffffffffa0802158:	000210f8 	dsll	v0,v0,0x3
ffffffffa080215c:	64a39c18 	daddiu	v1,a1,-25576
ffffffffa0802160:	0043102d 	daddu	v0,v0,v1
ffffffffa0802164:	24030002 	li	v1,2
ffffffffa0802168:	ac4302fc 	sw	v1,764(v0)
ffffffffa080216c:	3c050000 	lui	a1,0x0
ffffffffa0802170:	64a50000 	daddiu	a1,a1,0
ffffffffa0802174:	00052c38 	dsll	a1,a1,0x10
ffffffffa0802178:	64a5a081 	daddiu	a1,a1,-24447
ffffffffa080217c:	00052c38 	dsll	a1,a1,0x10
ffffffffa0802180:	8fc40000 	lw	a0,0(s8)
ffffffffa0802184:	0080182d 	move	v1,a0
ffffffffa0802188:	00031178 	dsll	v0,v1,0x5
ffffffffa080218c:	0040182d 	move	v1,v0
ffffffffa0802190:	000310b8 	dsll	v0,v1,0x2
ffffffffa0802194:	0043102f 	dsubu	v0,v0,v1
ffffffffa0802198:	0044102d 	daddu	v0,v0,a0
ffffffffa080219c:	000210f8 	dsll	v0,v0,0x3
ffffffffa08021a0:	64a39c18 	daddiu	v1,a1,-25576
ffffffffa08021a4:	0043102d 	daddu	v0,v0,v1
ffffffffa08021a8:	fc4002c8 	sd	zero,712(v0)
ffffffffa08021ac:	8fc40000 	lw	a0,0(s8)
ffffffffa08021b0:	0080182d 	move	v1,a0
ffffffffa08021b4:	00031178 	dsll	v0,v1,0x5
ffffffffa08021b8:	0040182d 	move	v1,v0
ffffffffa08021bc:	000310b8 	dsll	v0,v1,0x2
ffffffffa08021c0:	0043102f 	dsubu	v0,v0,v1
ffffffffa08021c4:	0044102d 	daddu	v0,v0,a0
ffffffffa08021c8:	000210f8 	dsll	v0,v0,0x3
ffffffffa08021cc:	644302a0 	daddiu	v1,v0,672
ffffffffa08021d0:	3c020000 	lui	v0,0x0
ffffffffa08021d4:	64420000 	daddiu	v0,v0,0
ffffffffa08021d8:	00021438 	dsll	v0,v0,0x10
ffffffffa08021dc:	6442a081 	daddiu	v0,v0,-24447
ffffffffa08021e0:	00021438 	dsll	v0,v0,0x10
ffffffffa08021e4:	64429c18 	daddiu	v0,v0,-25576
ffffffffa08021e8:	0062102d 	daddu	v0,v1,v0
ffffffffa08021ec:	64420008 	daddiu	v0,v0,8
ffffffffa08021f0:	0040202d 	move	a0,v0
ffffffffa08021f4:	0c200bf0 	jal	ffffffffa0802fc0 <queue_init>
ffffffffa08021f8:	00000000 	nop
ffffffffa08021fc:	8fc40000 	lw	a0,0(s8)
ffffffffa0802200:	0080182d 	move	v1,a0
ffffffffa0802204:	00031178 	dsll	v0,v1,0x5
ffffffffa0802208:	0040182d 	move	v1,v0
ffffffffa080220c:	000310b8 	dsll	v0,v1,0x2
ffffffffa0802210:	0043102f 	dsubu	v0,v0,v1
ffffffffa0802214:	0044102d 	daddu	v0,v0,a0
ffffffffa0802218:	000210f8 	dsll	v0,v0,0x3
ffffffffa080221c:	644302b0 	daddiu	v1,v0,688
ffffffffa0802220:	3c020000 	lui	v0,0x0
ffffffffa0802224:	64420000 	daddiu	v0,v0,0
ffffffffa0802228:	00021438 	dsll	v0,v0,0x10
ffffffffa080222c:	6442a081 	daddiu	v0,v0,-24447
ffffffffa0802230:	00021438 	dsll	v0,v0,0x10
ffffffffa0802234:	64429c18 	daddiu	v0,v0,-25576
ffffffffa0802238:	0062102d 	daddu	v0,v1,v0
ffffffffa080223c:	64420008 	daddiu	v0,v0,8
ffffffffa0802240:	0040202d 	move	a0,v0
ffffffffa0802244:	0c200bf0 	jal	ffffffffa0802fc0 <queue_init>
ffffffffa0802248:	00000000 	nop
ffffffffa080224c:	8fc20000 	lw	v0,0(s8)
ffffffffa0802250:	0820089e 	j	ffffffffa0802278 <alloc_stack+0x2b0>
ffffffffa0802254:	00000000 	nop
ffffffffa0802258:	8fc20000 	lw	v0,0(s8)
ffffffffa080225c:	24420001 	addiu	v0,v0,1
ffffffffa0802260:	afc20000 	sw	v0,0(s8)
ffffffffa0802264:	8fc20000 	lw	v0,0(s8)
ffffffffa0802268:	28420020 	slti	v0,v0,32
ffffffffa080226c:	1440ff5e 	bnez	v0,ffffffffa0801fe8 <alloc_stack+0x20>
ffffffffa0802270:	00000000 	nop
ffffffffa0802274:	2402ffff 	li	v0,-1
ffffffffa0802278:	03c0e82d 	move	sp,s8
ffffffffa080227c:	dfbf0018 	ld	ra,24(sp)
ffffffffa0802280:	dfbe0010 	ld	s8,16(sp)
ffffffffa0802284:	67bd0020 	daddiu	sp,sp,32
ffffffffa0802288:	03e00008 	jr	ra
ffffffffa080228c:	00000000 	nop

ffffffffa0802290 <set_pcb>:
ffffffffa0802290:	67bdffc0 	daddiu	sp,sp,-64
ffffffffa0802294:	ffbe0038 	sd	s8,56(sp)
ffffffffa0802298:	03a0f02d 	move	s8,sp
ffffffffa080229c:	0080102d 	move	v0,a0
ffffffffa08022a0:	ffc50018 	sd	a1,24(s8)
ffffffffa08022a4:	ffc60020 	sd	a2,32(s8)
ffffffffa08022a8:	00021000 	sll	v0,v0,0x0
ffffffffa08022ac:	afc20010 	sw	v0,16(s8)
ffffffffa08022b0:	dfc20018 	ld	v0,24(s8)
ffffffffa08022b4:	8fc30010 	lw	v1,16(s8)
ffffffffa08022b8:	ac4302f4 	sw	v1,756(v0)
ffffffffa08022bc:	dfc20018 	ld	v0,24(s8)
ffffffffa08022c0:	dfc30020 	ld	v1,32(s8)
ffffffffa08022c4:	8c630028 	lw	v1,40(v1)
ffffffffa08022c8:	ac4302f8 	sw	v1,760(v0)
ffffffffa08022cc:	dfc20018 	ld	v0,24(s8)
ffffffffa08022d0:	dfc30020 	ld	v1,32(s8)
ffffffffa08022d4:	8c63002c 	lw	v1,44(v1)
ffffffffa08022d8:	ac4302d0 	sw	v1,720(v0)
ffffffffa08022dc:	dfc30018 	ld	v1,24(s8)
ffffffffa08022e0:	dfc20020 	ld	v0,32(s8)
ffffffffa08022e4:	8c440028 	lw	a0,40(v0)
ffffffffa08022e8:	24020002 	li	v0,2
ffffffffa08022ec:	10820006 	beq	a0,v0,ffffffffa0802308 <set_pcb+0x78>
ffffffffa08022f0:	00000000 	nop
ffffffffa08022f4:	dfc20020 	ld	v0,32(s8)
ffffffffa08022f8:	8c440028 	lw	a0,40(v0)
ffffffffa08022fc:	24020003 	li	v0,3
ffffffffa0802300:	14820004 	bne	a0,v0,ffffffffa0802314 <set_pcb+0x84>
ffffffffa0802304:	00000000 	nop
ffffffffa0802308:	24020001 	li	v0,1
ffffffffa080230c:	082008c6 	j	ffffffffa0802318 <set_pcb+0x88>
ffffffffa0802310:	00000000 	nop
ffffffffa0802314:	0000102d 	move	v0,zero
ffffffffa0802318:	ac620290 	sw	v0,656(v1)
ffffffffa080231c:	afc00000 	sw	zero,0(s8)
ffffffffa0802320:	082008d5 	j	ffffffffa0802354 <set_pcb+0xc4>
ffffffffa0802324:	00000000 	nop
ffffffffa0802328:	dfc40018 	ld	a0,24(s8)
ffffffffa080232c:	dfc30020 	ld	v1,32(s8)
ffffffffa0802330:	8fc20000 	lw	v0,0(s8)
ffffffffa0802334:	0062102d 	daddu	v0,v1,v0
ffffffffa0802338:	80430000 	lb	v1,0(v0)
ffffffffa080233c:	8fc20000 	lw	v0,0(s8)
ffffffffa0802340:	0082102d 	daddu	v0,a0,v0
ffffffffa0802344:	a04302d4 	sb	v1,724(v0)
ffffffffa0802348:	8fc20000 	lw	v0,0(s8)
ffffffffa080234c:	24420001 	addiu	v0,v0,1
ffffffffa0802350:	afc20000 	sw	v0,0(s8)
ffffffffa0802354:	8fc20000 	lw	v0,0(s8)
ffffffffa0802358:	28420020 	slti	v0,v0,32
ffffffffa080235c:	1440fff2 	bnez	v0,ffffffffa0802328 <set_pcb+0x98>
ffffffffa0802360:	00000000 	nop
ffffffffa0802364:	8fc20010 	lw	v0,16(s8)
ffffffffa0802368:	28420020 	slti	v0,v0,32
ffffffffa080236c:	10400005 	beqz	v0,ffffffffa0802384 <set_pcb+0xf4>
ffffffffa0802370:	00000000 	nop
ffffffffa0802374:	dfc20018 	ld	v0,24(s8)
ffffffffa0802378:	67c30018 	daddiu	v1,s8,24
ffffffffa080237c:	64631840 	daddiu	v1,v1,6208
ffffffffa0802380:	fc4302a0 	sd	v1,672(v0)
ffffffffa0802384:	dfc20018 	ld	v0,24(s8)
ffffffffa0802388:	dfc30020 	ld	v1,32(s8)
ffffffffa080238c:	dc630020 	ld	v1,32(v1)
ffffffffa0802390:	fc430238 	sd	v1,568(v0)
ffffffffa0802394:	dfc20018 	ld	v0,24(s8)
ffffffffa0802398:	dfc30018 	ld	v1,24(s8)
ffffffffa080239c:	dc630288 	ld	v1,648(v1)
ffffffffa08023a0:	fc430228 	sd	v1,552(v0)
ffffffffa08023a4:	dfc20018 	ld	v0,24(s8)
ffffffffa08023a8:	dfc30018 	ld	v1,24(s8)
ffffffffa08023ac:	dc630280 	ld	v1,640(v1)
ffffffffa08023b0:	fc4300e8 	sd	v1,232(v0)
ffffffffa08023b4:	03c0e82d 	move	sp,s8
ffffffffa08023b8:	dfbe0038 	ld	s8,56(sp)
ffffffffa08023bc:	67bd0040 	daddiu	sp,sp,64
ffffffffa08023c0:	03e00008 	jr	ra
ffffffffa08023c4:	00000000 	nop

ffffffffa08023c8 <check_sleeping>:
ffffffffa08023c8:	67bdfff0 	daddiu	sp,sp,-16
ffffffffa08023cc:	ffbe0008 	sd	s8,8(sp)
ffffffffa08023d0:	03a0f02d 	move	s8,sp
ffffffffa08023d4:	03c0e82d 	move	sp,s8
ffffffffa08023d8:	dfbe0008 	ld	s8,8(sp)
ffffffffa08023dc:	67bd0010 	daddiu	sp,sp,16
ffffffffa08023e0:	03e00008 	jr	ra
ffffffffa08023e4:	00000000 	nop

ffffffffa08023e8 <scheduler>:
ffffffffa08023e8:	67bdfff0 	daddiu	sp,sp,-16
ffffffffa08023ec:	ffbf0008 	sd	ra,8(sp)
ffffffffa08023f0:	ffbe0000 	sd	s8,0(sp)
ffffffffa08023f4:	03a0f02d 	move	s8,sp
ffffffffa08023f8:	3c020000 	lui	v0,0x0
ffffffffa08023fc:	64420000 	daddiu	v0,v0,0
ffffffffa0802400:	00021438 	dsll	v0,v0,0x10
ffffffffa0802404:	6442a081 	daddiu	v0,v0,-24447
ffffffffa0802408:	00021438 	dsll	v0,v0,0x10
ffffffffa080240c:	dc429c10 	ld	v0,-25584(v0)
ffffffffa0802410:	8c4302fc 	lw	v1,764(v0)
ffffffffa0802414:	24020001 	li	v0,1
ffffffffa0802418:	14620010 	bne	v1,v0,ffffffffa080245c <scheduler+0x74>
ffffffffa080241c:	00000000 	nop
ffffffffa0802420:	3c020000 	lui	v0,0x0
ffffffffa0802424:	64420000 	daddiu	v0,v0,0
ffffffffa0802428:	00021438 	dsll	v0,v0,0x10
ffffffffa080242c:	6442a081 	daddiu	v0,v0,-24447
ffffffffa0802430:	00021438 	dsll	v0,v0,0x10
ffffffffa0802434:	dc439c10 	ld	v1,-25584(v0)
ffffffffa0802438:	3c020000 	lui	v0,0x0
ffffffffa080243c:	64420000 	daddiu	v0,v0,0
ffffffffa0802440:	00021438 	dsll	v0,v0,0x10
ffffffffa0802444:	6442a081 	daddiu	v0,v0,-24447
ffffffffa0802448:	00021438 	dsll	v0,v0,0x10
ffffffffa080244c:	64449c00 	daddiu	a0,v0,-25600
ffffffffa0802450:	0060282d 	move	a1,v1
ffffffffa0802454:	0c200c10 	jal	ffffffffa0803040 <queue_push>
ffffffffa0802458:	00000000 	nop
ffffffffa080245c:	3c020000 	lui	v0,0x0
ffffffffa0802460:	64420000 	daddiu	v0,v0,0
ffffffffa0802464:	00021438 	dsll	v0,v0,0x10
ffffffffa0802468:	6442a081 	daddiu	v0,v0,-24447
ffffffffa080246c:	00021438 	dsll	v0,v0,0x10
ffffffffa0802470:	dc429c10 	ld	v0,-25584(v0)
ffffffffa0802474:	3c030000 	lui	v1,0x0
ffffffffa0802478:	64630000 	daddiu	v1,v1,0
ffffffffa080247c:	00031c38 	dsll	v1,v1,0x10
ffffffffa0802480:	6463a081 	daddiu	v1,v1,-24447
ffffffffa0802484:	00031c38 	dsll	v1,v1,0x10
ffffffffa0802488:	8c6398e0 	lw	v1,-26400(v1)
ffffffffa080248c:	ac430300 	sw	v1,768(v0)
ffffffffa0802490:	3c020000 	lui	v0,0x0
ffffffffa0802494:	64420000 	daddiu	v0,v0,0
ffffffffa0802498:	00021438 	dsll	v0,v0,0x10
ffffffffa080249c:	6442a081 	daddiu	v0,v0,-24447
ffffffffa08024a0:	00021438 	dsll	v0,v0,0x10
ffffffffa08024a4:	dc429c10 	ld	v0,-25584(v0)
ffffffffa08024a8:	3c030000 	lui	v1,0x0
ffffffffa08024ac:	64630000 	daddiu	v1,v1,0
ffffffffa08024b0:	00031c38 	dsll	v1,v1,0x10
ffffffffa08024b4:	6463a081 	daddiu	v1,v1,-24447
ffffffffa08024b8:	00031c38 	dsll	v1,v1,0x10
ffffffffa08024bc:	8c6398e4 	lw	v1,-26396(v1)
ffffffffa08024c0:	ac430304 	sw	v1,772(v0)
ffffffffa08024c4:	3c020000 	lui	v0,0x0
ffffffffa08024c8:	64420000 	daddiu	v0,v0,0
ffffffffa08024cc:	00021438 	dsll	v0,v0,0x10
ffffffffa08024d0:	6442a081 	daddiu	v0,v0,-24447
ffffffffa08024d4:	00021438 	dsll	v0,v0,0x10
ffffffffa08024d8:	64449c00 	daddiu	a0,v0,-25600
ffffffffa08024dc:	0c200c39 	jal	ffffffffa08030e4 <queue_dequeue>
ffffffffa08024e0:	00000000 	nop
ffffffffa08024e4:	0040182d 	move	v1,v0
ffffffffa08024e8:	3c020000 	lui	v0,0x0
ffffffffa08024ec:	64420000 	daddiu	v0,v0,0
ffffffffa08024f0:	00021438 	dsll	v0,v0,0x10
ffffffffa08024f4:	6442a081 	daddiu	v0,v0,-24447
ffffffffa08024f8:	00021438 	dsll	v0,v0,0x10
ffffffffa08024fc:	fc439c10 	sd	v1,-25584(v0)
ffffffffa0802500:	3c020000 	lui	v0,0x0
ffffffffa0802504:	64420000 	daddiu	v0,v0,0
ffffffffa0802508:	00021438 	dsll	v0,v0,0x10
ffffffffa080250c:	6442a081 	daddiu	v0,v0,-24447
ffffffffa0802510:	00021438 	dsll	v0,v0,0x10
ffffffffa0802514:	dc429c10 	ld	v0,-25584(v0)
ffffffffa0802518:	24030001 	li	v1,1
ffffffffa080251c:	ac4302fc 	sw	v1,764(v0)
ffffffffa0802520:	3c020000 	lui	v0,0x0
ffffffffa0802524:	64420000 	daddiu	v0,v0,0
ffffffffa0802528:	00021438 	dsll	v0,v0,0x10
ffffffffa080252c:	6442a081 	daddiu	v0,v0,-24447
ffffffffa0802530:	00021438 	dsll	v0,v0,0x10
ffffffffa0802534:	dc429c10 	ld	v0,-25584(v0)
ffffffffa0802538:	8c430300 	lw	v1,768(v0)
ffffffffa080253c:	3c020000 	lui	v0,0x0
ffffffffa0802540:	64420000 	daddiu	v0,v0,0
ffffffffa0802544:	00021438 	dsll	v0,v0,0x10
ffffffffa0802548:	6442a081 	daddiu	v0,v0,-24447
ffffffffa080254c:	00021438 	dsll	v0,v0,0x10
ffffffffa0802550:	ac4398e0 	sw	v1,-26400(v0)
ffffffffa0802554:	3c020000 	lui	v0,0x0
ffffffffa0802558:	64420000 	daddiu	v0,v0,0
ffffffffa080255c:	00021438 	dsll	v0,v0,0x10
ffffffffa0802560:	6442a081 	daddiu	v0,v0,-24447
ffffffffa0802564:	00021438 	dsll	v0,v0,0x10
ffffffffa0802568:	dc429c10 	ld	v0,-25584(v0)
ffffffffa080256c:	8c430304 	lw	v1,772(v0)
ffffffffa0802570:	3c020000 	lui	v0,0x0
ffffffffa0802574:	64420000 	daddiu	v0,v0,0
ffffffffa0802578:	00021438 	dsll	v0,v0,0x10
ffffffffa080257c:	6442a081 	daddiu	v0,v0,-24447
ffffffffa0802580:	00021438 	dsll	v0,v0,0x10
ffffffffa0802584:	ac4398e4 	sw	v1,-26396(v0)
ffffffffa0802588:	03c0e82d 	move	sp,s8
ffffffffa080258c:	dfbf0008 	ld	ra,8(sp)
ffffffffa0802590:	dfbe0000 	ld	s8,0(sp)
ffffffffa0802594:	67bd0010 	daddiu	sp,sp,16
ffffffffa0802598:	03e00008 	jr	ra
ffffffffa080259c:	00000000 	nop

ffffffffa08025a0 <do_sleep>:
ffffffffa08025a0:	67bdffe0 	daddiu	sp,sp,-32
ffffffffa08025a4:	ffbe0018 	sd	s8,24(sp)
ffffffffa08025a8:	03a0f02d 	move	s8,sp
ffffffffa08025ac:	0080102d 	move	v0,a0
ffffffffa08025b0:	00021000 	sll	v0,v0,0x0
ffffffffa08025b4:	afc20000 	sw	v0,0(s8)
ffffffffa08025b8:	03c0e82d 	move	sp,s8
ffffffffa08025bc:	dfbe0018 	ld	s8,24(sp)
ffffffffa08025c0:	67bd0020 	daddiu	sp,sp,32
ffffffffa08025c4:	03e00008 	jr	ra
ffffffffa08025c8:	00000000 	nop

ffffffffa08025cc <do_exit>:
ffffffffa08025cc:	67bdffe0 	daddiu	sp,sp,-32
ffffffffa08025d0:	ffbf0018 	sd	ra,24(sp)
ffffffffa08025d4:	ffbe0010 	sd	s8,16(sp)
ffffffffa08025d8:	03a0f02d 	move	s8,sp
ffffffffa08025dc:	3c020000 	lui	v0,0x0
ffffffffa08025e0:	64420000 	daddiu	v0,v0,0
ffffffffa08025e4:	00021438 	dsll	v0,v0,0x10
ffffffffa08025e8:	6442a081 	daddiu	v0,v0,-24447
ffffffffa08025ec:	00021438 	dsll	v0,v0,0x10
ffffffffa08025f0:	dc429c10 	ld	v0,-25584(v0)
ffffffffa08025f4:	ffc20000 	sd	v0,0(s8)
ffffffffa08025f8:	0820098f 	j	ffffffffa080263c <do_exit+0x70>
ffffffffa08025fc:	00000000 	nop
ffffffffa0802600:	dfc20000 	ld	v0,0(s8)
ffffffffa0802604:	dc4202a8 	ld	v0,680(v0)
ffffffffa0802608:	ffc20008 	sd	v0,8(s8)
ffffffffa080260c:	dfc20008 	ld	v0,8(s8)
ffffffffa0802610:	64420018 	daddiu	v0,v0,24
ffffffffa0802614:	0040202d 	move	a0,v0
ffffffffa0802618:	0c2009e9 	jal	ffffffffa08027a4 <do_unblock_all>
ffffffffa080261c:	00000000 	nop
ffffffffa0802620:	dfc20000 	ld	v0,0(s8)
ffffffffa0802624:	644202a8 	daddiu	v0,v0,680
ffffffffa0802628:	0040202d 	move	a0,v0
ffffffffa080262c:	0c200c39 	jal	ffffffffa08030e4 <queue_dequeue>
ffffffffa0802630:	00000000 	nop
ffffffffa0802634:	dfc20008 	ld	v0,8(s8)
ffffffffa0802638:	ac400000 	sw	zero,0(v0)
ffffffffa080263c:	dfc20000 	ld	v0,0(s8)
ffffffffa0802640:	644202a8 	daddiu	v0,v0,680
ffffffffa0802644:	0040202d 	move	a0,v0
ffffffffa0802648:	0c200bff 	jal	ffffffffa0802ffc <queue_is_empty>
ffffffffa080264c:	00000000 	nop
ffffffffa0802650:	1040ffeb 	beqz	v0,ffffffffa0802600 <do_exit+0x34>
ffffffffa0802654:	00000000 	nop
ffffffffa0802658:	dfc20000 	ld	v0,0(s8)
ffffffffa080265c:	644202b8 	daddiu	v0,v0,696
ffffffffa0802660:	0040202d 	move	a0,v0
ffffffffa0802664:	0c2009e9 	jal	ffffffffa08027a4 <do_unblock_all>
ffffffffa0802668:	00000000 	nop
ffffffffa080266c:	dfc20000 	ld	v0,0(s8)
ffffffffa0802670:	24030003 	li	v1,3
ffffffffa0802674:	ac4302fc 	sw	v1,764(v0)
ffffffffa0802678:	0c2000b2 	jal	ffffffffa08002c8 <do_scheduler>
ffffffffa080267c:	00000000 	nop
ffffffffa0802680:	03c0e82d 	move	sp,s8
ffffffffa0802684:	dfbf0018 	ld	ra,24(sp)
ffffffffa0802688:	dfbe0010 	ld	s8,16(sp)
ffffffffa080268c:	67bd0020 	daddiu	sp,sp,32
ffffffffa0802690:	03e00008 	jr	ra
ffffffffa0802694:	00000000 	nop

ffffffffa0802698 <do_block>:
ffffffffa0802698:	67bdffe0 	daddiu	sp,sp,-32
ffffffffa080269c:	ffbf0018 	sd	ra,24(sp)
ffffffffa08026a0:	ffbe0010 	sd	s8,16(sp)
ffffffffa08026a4:	03a0f02d 	move	s8,sp
ffffffffa08026a8:	ffc40000 	sd	a0,0(s8)
ffffffffa08026ac:	3c020000 	lui	v0,0x0
ffffffffa08026b0:	64420000 	daddiu	v0,v0,0
ffffffffa08026b4:	00021438 	dsll	v0,v0,0x10
ffffffffa08026b8:	6442a081 	daddiu	v0,v0,-24447
ffffffffa08026bc:	00021438 	dsll	v0,v0,0x10
ffffffffa08026c0:	dc429c10 	ld	v0,-25584(v0)
ffffffffa08026c4:	ac4002fc 	sw	zero,764(v0)
ffffffffa08026c8:	3c020000 	lui	v0,0x0
ffffffffa08026cc:	64420000 	daddiu	v0,v0,0
ffffffffa08026d0:	00021438 	dsll	v0,v0,0x10
ffffffffa08026d4:	6442a081 	daddiu	v0,v0,-24447
ffffffffa08026d8:	00021438 	dsll	v0,v0,0x10
ffffffffa08026dc:	dc429c10 	ld	v0,-25584(v0)
ffffffffa08026e0:	dfc40000 	ld	a0,0(s8)
ffffffffa08026e4:	0040282d 	move	a1,v0
ffffffffa08026e8:	0c200c10 	jal	ffffffffa0803040 <queue_push>
ffffffffa08026ec:	00000000 	nop
ffffffffa08026f0:	3c020000 	lui	v0,0x0
ffffffffa08026f4:	64420000 	daddiu	v0,v0,0
ffffffffa08026f8:	00021438 	dsll	v0,v0,0x10
ffffffffa08026fc:	6442a081 	daddiu	v0,v0,-24447
ffffffffa0802700:	00021438 	dsll	v0,v0,0x10
ffffffffa0802704:	dc429c10 	ld	v0,-25584(v0)
ffffffffa0802708:	dfc30000 	ld	v1,0(s8)
ffffffffa080270c:	fc4302c8 	sd	v1,712(v0)
ffffffffa0802710:	0c2000b2 	jal	ffffffffa08002c8 <do_scheduler>
ffffffffa0802714:	00000000 	nop
ffffffffa0802718:	03c0e82d 	move	sp,s8
ffffffffa080271c:	dfbf0018 	ld	ra,24(sp)
ffffffffa0802720:	dfbe0010 	ld	s8,16(sp)
ffffffffa0802724:	67bd0020 	daddiu	sp,sp,32
ffffffffa0802728:	03e00008 	jr	ra
ffffffffa080272c:	00000000 	nop

ffffffffa0802730 <do_unblock_one>:
ffffffffa0802730:	67bdffd0 	daddiu	sp,sp,-48
ffffffffa0802734:	ffbf0028 	sd	ra,40(sp)
ffffffffa0802738:	ffbe0020 	sd	s8,32(sp)
ffffffffa080273c:	03a0f02d 	move	s8,sp
ffffffffa0802740:	ffc40010 	sd	a0,16(s8)
ffffffffa0802744:	dfc40010 	ld	a0,16(s8)
ffffffffa0802748:	0c200c39 	jal	ffffffffa08030e4 <queue_dequeue>
ffffffffa080274c:	00000000 	nop
ffffffffa0802750:	ffc20000 	sd	v0,0(s8)
ffffffffa0802754:	dfc20000 	ld	v0,0(s8)
ffffffffa0802758:	24030002 	li	v1,2
ffffffffa080275c:	ac4302fc 	sw	v1,764(v0)
ffffffffa0802760:	3c020000 	lui	v0,0x0
ffffffffa0802764:	64420000 	daddiu	v0,v0,0
ffffffffa0802768:	00021438 	dsll	v0,v0,0x10
ffffffffa080276c:	6442a081 	daddiu	v0,v0,-24447
ffffffffa0802770:	00021438 	dsll	v0,v0,0x10
ffffffffa0802774:	64449c00 	daddiu	a0,v0,-25600
ffffffffa0802778:	dfc50000 	ld	a1,0(s8)
ffffffffa080277c:	0c200c10 	jal	ffffffffa0803040 <queue_push>
ffffffffa0802780:	00000000 	nop
ffffffffa0802784:	dfc20000 	ld	v0,0(s8)
ffffffffa0802788:	fc4002c8 	sd	zero,712(v0)
ffffffffa080278c:	03c0e82d 	move	sp,s8
ffffffffa0802790:	dfbf0028 	ld	ra,40(sp)
ffffffffa0802794:	dfbe0020 	ld	s8,32(sp)
ffffffffa0802798:	67bd0030 	daddiu	sp,sp,48
ffffffffa080279c:	03e00008 	jr	ra
ffffffffa08027a0:	00000000 	nop

ffffffffa08027a4 <do_unblock_all>:
ffffffffa08027a4:	67bdffe0 	daddiu	sp,sp,-32
ffffffffa08027a8:	ffbf0018 	sd	ra,24(sp)
ffffffffa08027ac:	ffbe0010 	sd	s8,16(sp)
ffffffffa08027b0:	03a0f02d 	move	s8,sp
ffffffffa08027b4:	ffc40000 	sd	a0,0(s8)
ffffffffa08027b8:	082009f3 	j	ffffffffa08027cc <do_unblock_all+0x28>
ffffffffa08027bc:	00000000 	nop
ffffffffa08027c0:	dfc40000 	ld	a0,0(s8)
ffffffffa08027c4:	0c2009cc 	jal	ffffffffa0802730 <do_unblock_one>
ffffffffa08027c8:	00000000 	nop
ffffffffa08027cc:	dfc40000 	ld	a0,0(s8)
ffffffffa08027d0:	0c200bff 	jal	ffffffffa0802ffc <queue_is_empty>
ffffffffa08027d4:	00000000 	nop
ffffffffa08027d8:	1040fff9 	beqz	v0,ffffffffa08027c0 <do_unblock_all+0x1c>
ffffffffa08027dc:	00000000 	nop
ffffffffa08027e0:	03c0e82d 	move	sp,s8
ffffffffa08027e4:	dfbf0018 	ld	ra,24(sp)
ffffffffa08027e8:	dfbe0010 	ld	s8,16(sp)
ffffffffa08027ec:	67bd0020 	daddiu	sp,sp,32
ffffffffa08027f0:	03e00008 	jr	ra
ffffffffa08027f4:	00000000 	nop

ffffffffa08027f8 <do_spawn>:
ffffffffa08027f8:	67bdffd0 	daddiu	sp,sp,-48
ffffffffa08027fc:	ffbf0028 	sd	ra,40(sp)
ffffffffa0802800:	ffbe0020 	sd	s8,32(sp)
ffffffffa0802804:	03a0f02d 	move	s8,sp
ffffffffa0802808:	ffc40010 	sd	a0,16(s8)
ffffffffa080280c:	0c2007f2 	jal	ffffffffa0801fc8 <alloc_stack>
ffffffffa0802810:	00000000 	nop
ffffffffa0802814:	afc20000 	sw	v0,0(s8)
ffffffffa0802818:	8fc40000 	lw	a0,0(s8)
ffffffffa080281c:	0080182d 	move	v1,a0
ffffffffa0802820:	00031178 	dsll	v0,v1,0x5
ffffffffa0802824:	0040182d 	move	v1,v0
ffffffffa0802828:	000310b8 	dsll	v0,v1,0x2
ffffffffa080282c:	0043102f 	dsubu	v0,v0,v1
ffffffffa0802830:	0044102d 	daddu	v0,v0,a0
ffffffffa0802834:	000210f8 	dsll	v0,v0,0x3
ffffffffa0802838:	3c030000 	lui	v1,0x0
ffffffffa080283c:	64630000 	daddiu	v1,v1,0
ffffffffa0802840:	00031c38 	dsll	v1,v1,0x10
ffffffffa0802844:	6463a081 	daddiu	v1,v1,-24447
ffffffffa0802848:	00031c38 	dsll	v1,v1,0x10
ffffffffa080284c:	64639c18 	daddiu	v1,v1,-25576
ffffffffa0802850:	0043102d 	daddu	v0,v0,v1
ffffffffa0802854:	8fc30000 	lw	v1,0(s8)
ffffffffa0802858:	0060202d 	move	a0,v1
ffffffffa080285c:	0040282d 	move	a1,v0
ffffffffa0802860:	dfc60010 	ld	a2,16(s8)
ffffffffa0802864:	0c2008a4 	jal	ffffffffa0802290 <set_pcb>
ffffffffa0802868:	00000000 	nop
ffffffffa080286c:	8fc40000 	lw	a0,0(s8)
ffffffffa0802870:	0080182d 	move	v1,a0
ffffffffa0802874:	00031178 	dsll	v0,v1,0x5
ffffffffa0802878:	0040182d 	move	v1,v0
ffffffffa080287c:	000310b8 	dsll	v0,v1,0x2
ffffffffa0802880:	0043102f 	dsubu	v0,v0,v1
ffffffffa0802884:	0044102d 	daddu	v0,v0,a0
ffffffffa0802888:	000210f8 	dsll	v0,v0,0x3
ffffffffa080288c:	3c030000 	lui	v1,0x0
ffffffffa0802890:	64630000 	daddiu	v1,v1,0
ffffffffa0802894:	00031c38 	dsll	v1,v1,0x10
ffffffffa0802898:	6463a081 	daddiu	v1,v1,-24447
ffffffffa080289c:	00031c38 	dsll	v1,v1,0x10
ffffffffa08028a0:	64639c18 	daddiu	v1,v1,-25576
ffffffffa08028a4:	0043182d 	daddu	v1,v0,v1
ffffffffa08028a8:	3c020000 	lui	v0,0x0
ffffffffa08028ac:	64420000 	daddiu	v0,v0,0
ffffffffa08028b0:	00021438 	dsll	v0,v0,0x10
ffffffffa08028b4:	6442a081 	daddiu	v0,v0,-24447
ffffffffa08028b8:	00021438 	dsll	v0,v0,0x10
ffffffffa08028bc:	64449c00 	daddiu	a0,v0,-25600
ffffffffa08028c0:	0060282d 	move	a1,v1
ffffffffa08028c4:	0c200c10 	jal	ffffffffa0803040 <queue_push>
ffffffffa08028c8:	00000000 	nop
ffffffffa08028cc:	3c050000 	lui	a1,0x0
ffffffffa08028d0:	64a50000 	daddiu	a1,a1,0
ffffffffa08028d4:	00052c38 	dsll	a1,a1,0x10
ffffffffa08028d8:	64a5a081 	daddiu	a1,a1,-24447
ffffffffa08028dc:	00052c38 	dsll	a1,a1,0x10
ffffffffa08028e0:	8fc40000 	lw	a0,0(s8)
ffffffffa08028e4:	0080182d 	move	v1,a0
ffffffffa08028e8:	00031178 	dsll	v0,v1,0x5
ffffffffa08028ec:	0040182d 	move	v1,v0
ffffffffa08028f0:	000310b8 	dsll	v0,v1,0x2
ffffffffa08028f4:	0043102f 	dsubu	v0,v0,v1
ffffffffa08028f8:	0044102d 	daddu	v0,v0,a0
ffffffffa08028fc:	000210f8 	dsll	v0,v0,0x3
ffffffffa0802900:	64a39c18 	daddiu	v1,a1,-25576
ffffffffa0802904:	0043102d 	daddu	v0,v0,v1
ffffffffa0802908:	24030002 	li	v1,2
ffffffffa080290c:	ac4302fc 	sw	v1,764(v0)
ffffffffa0802910:	03c0e82d 	move	sp,s8
ffffffffa0802914:	dfbf0028 	ld	ra,40(sp)
ffffffffa0802918:	dfbe0020 	ld	s8,32(sp)
ffffffffa080291c:	67bd0030 	daddiu	sp,sp,48
ffffffffa0802920:	03e00008 	jr	ra
ffffffffa0802924:	00000000 	nop

ffffffffa0802928 <do_kill>:
ffffffffa0802928:	67bdffc0 	daddiu	sp,sp,-64
ffffffffa080292c:	ffbf0038 	sd	ra,56(sp)
ffffffffa0802930:	ffbe0030 	sd	s8,48(sp)
ffffffffa0802934:	03a0f02d 	move	s8,sp
ffffffffa0802938:	0080102d 	move	v0,a0
ffffffffa080293c:	00021000 	sll	v0,v0,0x0
ffffffffa0802940:	afc20020 	sw	v0,32(s8)
ffffffffa0802944:	afc00004 	sw	zero,4(s8)
ffffffffa0802948:	afc00000 	sw	zero,0(s8)
ffffffffa080294c:	08200a82 	j	ffffffffa0802a08 <do_kill+0xe0>
ffffffffa0802950:	00000000 	nop
ffffffffa0802954:	3c050000 	lui	a1,0x0
ffffffffa0802958:	64a50000 	daddiu	a1,a1,0
ffffffffa080295c:	00052c38 	dsll	a1,a1,0x10
ffffffffa0802960:	64a5a081 	daddiu	a1,a1,-24447
ffffffffa0802964:	00052c38 	dsll	a1,a1,0x10
ffffffffa0802968:	8fc40000 	lw	a0,0(s8)
ffffffffa080296c:	0080182d 	move	v1,a0
ffffffffa0802970:	00031178 	dsll	v0,v1,0x5
ffffffffa0802974:	0040182d 	move	v1,v0
ffffffffa0802978:	000310b8 	dsll	v0,v1,0x2
ffffffffa080297c:	0043102f 	dsubu	v0,v0,v1
ffffffffa0802980:	0044102d 	daddu	v0,v0,a0
ffffffffa0802984:	000210f8 	dsll	v0,v0,0x3
ffffffffa0802988:	64a39c18 	daddiu	v1,a1,-25576
ffffffffa080298c:	0043102d 	daddu	v0,v0,v1
ffffffffa0802990:	8c4302f4 	lw	v1,756(v0)
ffffffffa0802994:	8fc20020 	lw	v0,32(s8)
ffffffffa0802998:	14430018 	bne	v0,v1,ffffffffa08029fc <do_kill+0xd4>
ffffffffa080299c:	00000000 	nop
ffffffffa08029a0:	3c050000 	lui	a1,0x0
ffffffffa08029a4:	64a50000 	daddiu	a1,a1,0
ffffffffa08029a8:	00052c38 	dsll	a1,a1,0x10
ffffffffa08029ac:	64a5a081 	daddiu	a1,a1,-24447
ffffffffa08029b0:	00052c38 	dsll	a1,a1,0x10
ffffffffa08029b4:	8fc40000 	lw	a0,0(s8)
ffffffffa08029b8:	0080182d 	move	v1,a0
ffffffffa08029bc:	00031178 	dsll	v0,v1,0x5
ffffffffa08029c0:	0040182d 	move	v1,v0
ffffffffa08029c4:	000310b8 	dsll	v0,v1,0x2
ffffffffa08029c8:	0043102f 	dsubu	v0,v0,v1
ffffffffa08029cc:	0044102d 	daddu	v0,v0,a0
ffffffffa08029d0:	000210f8 	dsll	v0,v0,0x3
ffffffffa08029d4:	64a39c18 	daddiu	v1,a1,-25576
ffffffffa08029d8:	0043102d 	daddu	v0,v0,v1
ffffffffa08029dc:	8c4302fc 	lw	v1,764(v0)
ffffffffa08029e0:	24020003 	li	v0,3
ffffffffa08029e4:	10620005 	beq	v1,v0,ffffffffa08029fc <do_kill+0xd4>
ffffffffa08029e8:	00000000 	nop
ffffffffa08029ec:	24020001 	li	v0,1
ffffffffa08029f0:	afc20004 	sw	v0,4(s8)
ffffffffa08029f4:	08200a86 	j	ffffffffa0802a18 <do_kill+0xf0>
ffffffffa08029f8:	00000000 	nop
ffffffffa08029fc:	8fc20000 	lw	v0,0(s8)
ffffffffa0802a00:	24420001 	addiu	v0,v0,1
ffffffffa0802a04:	afc20000 	sw	v0,0(s8)
ffffffffa0802a08:	8fc20000 	lw	v0,0(s8)
ffffffffa0802a0c:	28420020 	slti	v0,v0,32
ffffffffa0802a10:	1440ffd0 	bnez	v0,ffffffffa0802954 <do_kill+0x2c>
ffffffffa0802a14:	00000000 	nop
ffffffffa0802a18:	8fc20004 	lw	v0,4(s8)
ffffffffa0802a1c:	14400004 	bnez	v0,ffffffffa0802a30 <do_kill+0x108>
ffffffffa0802a20:	00000000 	nop
ffffffffa0802a24:	2402ffff 	li	v0,-1
ffffffffa0802a28:	08200ae6 	j	ffffffffa0802b98 <do_kill+0x270>
ffffffffa0802a2c:	00000000 	nop
ffffffffa0802a30:	8fc40000 	lw	a0,0(s8)
ffffffffa0802a34:	0080182d 	move	v1,a0
ffffffffa0802a38:	00031178 	dsll	v0,v1,0x5
ffffffffa0802a3c:	0040182d 	move	v1,v0
ffffffffa0802a40:	000310b8 	dsll	v0,v1,0x2
ffffffffa0802a44:	0043102f 	dsubu	v0,v0,v1
ffffffffa0802a48:	0044102d 	daddu	v0,v0,a0
ffffffffa0802a4c:	000210f8 	dsll	v0,v0,0x3
ffffffffa0802a50:	3c030000 	lui	v1,0x0
ffffffffa0802a54:	64630000 	daddiu	v1,v1,0
ffffffffa0802a58:	00031c38 	dsll	v1,v1,0x10
ffffffffa0802a5c:	6463a081 	daddiu	v1,v1,-24447
ffffffffa0802a60:	00031c38 	dsll	v1,v1,0x10
ffffffffa0802a64:	64639c18 	daddiu	v1,v1,-25576
ffffffffa0802a68:	0043102d 	daddu	v0,v0,v1
ffffffffa0802a6c:	ffc20008 	sd	v0,8(s8)
ffffffffa0802a70:	dfc20008 	ld	v0,8(s8)
ffffffffa0802a74:	8c4202fc 	lw	v0,764(v0)
ffffffffa0802a78:	14400009 	bnez	v0,ffffffffa0802aa0 <do_kill+0x178>
ffffffffa0802a7c:	00000000 	nop
ffffffffa0802a80:	dfc20008 	ld	v0,8(s8)
ffffffffa0802a84:	dc4202c8 	ld	v0,712(v0)
ffffffffa0802a88:	0040202d 	move	a0,v0
ffffffffa0802a8c:	dfc50008 	ld	a1,8(s8)
ffffffffa0802a90:	0c200c5c 	jal	ffffffffa0803170 <queue_remove>
ffffffffa0802a94:	00000000 	nop
ffffffffa0802a98:	08200ac3 	j	ffffffffa0802b0c <do_kill+0x1e4>
ffffffffa0802a9c:	00000000 	nop
ffffffffa0802aa0:	dfc20008 	ld	v0,8(s8)
ffffffffa0802aa4:	8c4302fc 	lw	v1,764(v0)
ffffffffa0802aa8:	24020002 	li	v0,2
ffffffffa0802aac:	1462000c 	bne	v1,v0,ffffffffa0802ae0 <do_kill+0x1b8>
ffffffffa0802ab0:	00000000 	nop
ffffffffa0802ab4:	3c020000 	lui	v0,0x0
ffffffffa0802ab8:	64420000 	daddiu	v0,v0,0
ffffffffa0802abc:	00021438 	dsll	v0,v0,0x10
ffffffffa0802ac0:	6442a081 	daddiu	v0,v0,-24447
ffffffffa0802ac4:	00021438 	dsll	v0,v0,0x10
ffffffffa0802ac8:	64449c00 	daddiu	a0,v0,-25600
ffffffffa0802acc:	dfc50008 	ld	a1,8(s8)
ffffffffa0802ad0:	0c200c5c 	jal	ffffffffa0803170 <queue_remove>
ffffffffa0802ad4:	00000000 	nop
ffffffffa0802ad8:	08200ac3 	j	ffffffffa0802b0c <do_kill+0x1e4>
ffffffffa0802adc:	00000000 	nop
ffffffffa0802ae0:	3c020000 	lui	v0,0x0
ffffffffa0802ae4:	64420000 	daddiu	v0,v0,0
ffffffffa0802ae8:	00021438 	dsll	v0,v0,0x10
ffffffffa0802aec:	6442a081 	daddiu	v0,v0,-24447
ffffffffa0802af0:	00021438 	dsll	v0,v0,0x10
ffffffffa0802af4:	64449c00 	daddiu	a0,v0,-25600
ffffffffa0802af8:	dfc50008 	ld	a1,8(s8)
ffffffffa0802afc:	0c200c5c 	jal	ffffffffa0803170 <queue_remove>
ffffffffa0802b00:	00000000 	nop
ffffffffa0802b04:	0c2000b2 	jal	ffffffffa08002c8 <do_scheduler>
ffffffffa0802b08:	00000000 	nop
ffffffffa0802b0c:	08200ad4 	j	ffffffffa0802b50 <do_kill+0x228>
ffffffffa0802b10:	00000000 	nop
ffffffffa0802b14:	dfc20008 	ld	v0,8(s8)
ffffffffa0802b18:	dc4202a8 	ld	v0,680(v0)
ffffffffa0802b1c:	ffc20010 	sd	v0,16(s8)
ffffffffa0802b20:	dfc20010 	ld	v0,16(s8)
ffffffffa0802b24:	64420018 	daddiu	v0,v0,24
ffffffffa0802b28:	0040202d 	move	a0,v0
ffffffffa0802b2c:	0c2009e9 	jal	ffffffffa08027a4 <do_unblock_all>
ffffffffa0802b30:	00000000 	nop
ffffffffa0802b34:	dfc20008 	ld	v0,8(s8)
ffffffffa0802b38:	644202a8 	daddiu	v0,v0,680
ffffffffa0802b3c:	0040202d 	move	a0,v0
ffffffffa0802b40:	0c200c39 	jal	ffffffffa08030e4 <queue_dequeue>
ffffffffa0802b44:	00000000 	nop
ffffffffa0802b48:	dfc20010 	ld	v0,16(s8)
ffffffffa0802b4c:	ac400000 	sw	zero,0(v0)
ffffffffa0802b50:	dfc20008 	ld	v0,8(s8)
ffffffffa0802b54:	644202a8 	daddiu	v0,v0,680
ffffffffa0802b58:	0040202d 	move	a0,v0
ffffffffa0802b5c:	0c200bff 	jal	ffffffffa0802ffc <queue_is_empty>
ffffffffa0802b60:	00000000 	nop
ffffffffa0802b64:	1040ffeb 	beqz	v0,ffffffffa0802b14 <do_kill+0x1ec>
ffffffffa0802b68:	00000000 	nop
ffffffffa0802b6c:	dfc20008 	ld	v0,8(s8)
ffffffffa0802b70:	644202b8 	daddiu	v0,v0,696
ffffffffa0802b74:	0040202d 	move	a0,v0
ffffffffa0802b78:	0c2009e9 	jal	ffffffffa08027a4 <do_unblock_all>
ffffffffa0802b7c:	00000000 	nop
ffffffffa0802b80:	dfc20008 	ld	v0,8(s8)
ffffffffa0802b84:	24030003 	li	v1,3
ffffffffa0802b88:	ac4302fc 	sw	v1,764(v0)
ffffffffa0802b8c:	dfc20008 	ld	v0,8(s8)
ffffffffa0802b90:	fc4002c8 	sd	zero,712(v0)
ffffffffa0802b94:	0000102d 	move	v0,zero
ffffffffa0802b98:	03c0e82d 	move	sp,s8
ffffffffa0802b9c:	dfbf0038 	ld	ra,56(sp)
ffffffffa0802ba0:	dfbe0030 	ld	s8,48(sp)
ffffffffa0802ba4:	67bd0040 	daddiu	sp,sp,64
ffffffffa0802ba8:	03e00008 	jr	ra
ffffffffa0802bac:	00000000 	nop

ffffffffa0802bb0 <do_waitpid>:
ffffffffa0802bb0:	67bdffd0 	daddiu	sp,sp,-48
ffffffffa0802bb4:	ffbf0028 	sd	ra,40(sp)
ffffffffa0802bb8:	ffbe0020 	sd	s8,32(sp)
ffffffffa0802bbc:	03a0f02d 	move	s8,sp
ffffffffa0802bc0:	0080102d 	move	v0,a0
ffffffffa0802bc4:	00021000 	sll	v0,v0,0x0
ffffffffa0802bc8:	afc20010 	sw	v0,16(s8)
ffffffffa0802bcc:	afc00004 	sw	zero,4(s8)
ffffffffa0802bd0:	afc00000 	sw	zero,0(s8)
ffffffffa0802bd4:	08200b11 	j	ffffffffa0802c44 <do_waitpid+0x94>
ffffffffa0802bd8:	00000000 	nop
ffffffffa0802bdc:	3c050000 	lui	a1,0x0
ffffffffa0802be0:	64a50000 	daddiu	a1,a1,0
ffffffffa0802be4:	00052c38 	dsll	a1,a1,0x10
ffffffffa0802be8:	64a5a081 	daddiu	a1,a1,-24447
ffffffffa0802bec:	00052c38 	dsll	a1,a1,0x10
ffffffffa0802bf0:	8fc40000 	lw	a0,0(s8)
ffffffffa0802bf4:	0080182d 	move	v1,a0
ffffffffa0802bf8:	00031178 	dsll	v0,v1,0x5
ffffffffa0802bfc:	0040182d 	move	v1,v0
ffffffffa0802c00:	000310b8 	dsll	v0,v1,0x2
ffffffffa0802c04:	0043102f 	dsubu	v0,v0,v1
ffffffffa0802c08:	0044102d 	daddu	v0,v0,a0
ffffffffa0802c0c:	000210f8 	dsll	v0,v0,0x3
ffffffffa0802c10:	64a39c18 	daddiu	v1,a1,-25576
ffffffffa0802c14:	0043102d 	daddu	v0,v0,v1
ffffffffa0802c18:	8c4302f4 	lw	v1,756(v0)
ffffffffa0802c1c:	8fc20010 	lw	v0,16(s8)
ffffffffa0802c20:	14430005 	bne	v0,v1,ffffffffa0802c38 <do_waitpid+0x88>
ffffffffa0802c24:	00000000 	nop
ffffffffa0802c28:	24020001 	li	v0,1
ffffffffa0802c2c:	afc20004 	sw	v0,4(s8)
ffffffffa0802c30:	08200b15 	j	ffffffffa0802c54 <do_waitpid+0xa4>
ffffffffa0802c34:	00000000 	nop
ffffffffa0802c38:	8fc20000 	lw	v0,0(s8)
ffffffffa0802c3c:	24420001 	addiu	v0,v0,1
ffffffffa0802c40:	afc20000 	sw	v0,0(s8)
ffffffffa0802c44:	8fc20000 	lw	v0,0(s8)
ffffffffa0802c48:	28420020 	slti	v0,v0,32
ffffffffa0802c4c:	1440ffe3 	bnez	v0,ffffffffa0802bdc <do_waitpid+0x2c>
ffffffffa0802c50:	00000000 	nop
ffffffffa0802c54:	8fc20004 	lw	v0,4(s8)
ffffffffa0802c58:	14400008 	bnez	v0,ffffffffa0802c7c <do_waitpid+0xcc>
ffffffffa0802c5c:	00000000 	nop
ffffffffa0802c60:	8fc30000 	lw	v1,0(s8)
ffffffffa0802c64:	2402001f 	li	v0,31
ffffffffa0802c68:	14620004 	bne	v1,v0,ffffffffa0802c7c <do_waitpid+0xcc>
ffffffffa0802c6c:	00000000 	nop
ffffffffa0802c70:	2402ffff 	li	v0,-1
ffffffffa0802c74:	08200b46 	j	ffffffffa0802d18 <do_waitpid+0x168>
ffffffffa0802c78:	00000000 	nop
ffffffffa0802c7c:	3c050000 	lui	a1,0x0
ffffffffa0802c80:	64a50000 	daddiu	a1,a1,0
ffffffffa0802c84:	00052c38 	dsll	a1,a1,0x10
ffffffffa0802c88:	64a5a081 	daddiu	a1,a1,-24447
ffffffffa0802c8c:	00052c38 	dsll	a1,a1,0x10
ffffffffa0802c90:	8fc40000 	lw	a0,0(s8)
ffffffffa0802c94:	0080182d 	move	v1,a0
ffffffffa0802c98:	00031178 	dsll	v0,v1,0x5
ffffffffa0802c9c:	0040182d 	move	v1,v0
ffffffffa0802ca0:	000310b8 	dsll	v0,v1,0x2
ffffffffa0802ca4:	0043102f 	dsubu	v0,v0,v1
ffffffffa0802ca8:	0044102d 	daddu	v0,v0,a0
ffffffffa0802cac:	000210f8 	dsll	v0,v0,0x3
ffffffffa0802cb0:	64a39c18 	daddiu	v1,a1,-25576
ffffffffa0802cb4:	0043102d 	daddu	v0,v0,v1
ffffffffa0802cb8:	8c4302fc 	lw	v1,764(v0)
ffffffffa0802cbc:	24020003 	li	v0,3
ffffffffa0802cc0:	10620015 	beq	v1,v0,ffffffffa0802d18 <do_waitpid+0x168>
ffffffffa0802cc4:	00000000 	nop
ffffffffa0802cc8:	8fc40000 	lw	a0,0(s8)
ffffffffa0802ccc:	0080182d 	move	v1,a0
ffffffffa0802cd0:	00031178 	dsll	v0,v1,0x5
ffffffffa0802cd4:	0040182d 	move	v1,v0
ffffffffa0802cd8:	000310b8 	dsll	v0,v1,0x2
ffffffffa0802cdc:	0043102f 	dsubu	v0,v0,v1
ffffffffa0802ce0:	0044102d 	daddu	v0,v0,a0
ffffffffa0802ce4:	000210f8 	dsll	v0,v0,0x3
ffffffffa0802ce8:	644302b0 	daddiu	v1,v0,688
ffffffffa0802cec:	3c020000 	lui	v0,0x0
ffffffffa0802cf0:	64420000 	daddiu	v0,v0,0
ffffffffa0802cf4:	00021438 	dsll	v0,v0,0x10
ffffffffa0802cf8:	6442a081 	daddiu	v0,v0,-24447
ffffffffa0802cfc:	00021438 	dsll	v0,v0,0x10
ffffffffa0802d00:	64429c18 	daddiu	v0,v0,-25576
ffffffffa0802d04:	0062102d 	daddu	v0,v1,v0
ffffffffa0802d08:	64420008 	daddiu	v0,v0,8
ffffffffa0802d0c:	0040202d 	move	a0,v0
ffffffffa0802d10:	0c2009a6 	jal	ffffffffa0802698 <do_block>
ffffffffa0802d14:	00000000 	nop
ffffffffa0802d18:	03c0e82d 	move	sp,s8
ffffffffa0802d1c:	dfbf0028 	ld	ra,40(sp)
ffffffffa0802d20:	dfbe0020 	ld	s8,32(sp)
ffffffffa0802d24:	67bd0030 	daddiu	sp,sp,48
ffffffffa0802d28:	03e00008 	jr	ra
ffffffffa0802d2c:	00000000 	nop

ffffffffa0802d30 <do_process_show>:
ffffffffa0802d30:	67bdffe0 	daddiu	sp,sp,-32
ffffffffa0802d34:	ffbf0018 	sd	ra,24(sp)
ffffffffa0802d38:	ffbe0010 	sd	s8,16(sp)
ffffffffa0802d3c:	03a0f02d 	move	s8,sp
ffffffffa0802d40:	3c020000 	lui	v0,0x0
ffffffffa0802d44:	64420000 	daddiu	v0,v0,0
ffffffffa0802d48:	00021438 	dsll	v0,v0,0x10
ffffffffa0802d4c:	6442a080 	daddiu	v0,v0,-24448
ffffffffa0802d50:	00021438 	dsll	v0,v0,0x10
ffffffffa0802d54:	644471d0 	daddiu	a0,v0,29136
ffffffffa0802d58:	0c201223 	jal	ffffffffa080488c <kprintf>
ffffffffa0802d5c:	00000000 	nop
ffffffffa0802d60:	afc00004 	sw	zero,4(s8)
ffffffffa0802d64:	afc00000 	sw	zero,0(s8)
ffffffffa0802d68:	08200bd5 	j	ffffffffa0802f54 <do_process_show+0x224>
ffffffffa0802d6c:	00000000 	nop
ffffffffa0802d70:	3c050000 	lui	a1,0x0
ffffffffa0802d74:	64a50000 	daddiu	a1,a1,0
ffffffffa0802d78:	00052c38 	dsll	a1,a1,0x10
ffffffffa0802d7c:	64a5a081 	daddiu	a1,a1,-24447
ffffffffa0802d80:	00052c38 	dsll	a1,a1,0x10
ffffffffa0802d84:	8fc40000 	lw	a0,0(s8)
ffffffffa0802d88:	0080182d 	move	v1,a0
ffffffffa0802d8c:	00031178 	dsll	v0,v1,0x5
ffffffffa0802d90:	0040182d 	move	v1,v0
ffffffffa0802d94:	000310b8 	dsll	v0,v1,0x2
ffffffffa0802d98:	0043102f 	dsubu	v0,v0,v1
ffffffffa0802d9c:	0044102d 	daddu	v0,v0,a0
ffffffffa0802da0:	000210f8 	dsll	v0,v0,0x3
ffffffffa0802da4:	64a39c18 	daddiu	v1,a1,-25576
ffffffffa0802da8:	0043102d 	daddu	v0,v0,v1
ffffffffa0802dac:	8c4202fc 	lw	v0,764(v0)
ffffffffa0802db0:	afc20008 	sw	v0,8(s8)
ffffffffa0802db4:	8fc20008 	lw	v0,8(s8)
ffffffffa0802db8:	24030001 	li	v1,1
ffffffffa0802dbc:	10430009 	beq	v0,v1,ffffffffa0802de4 <do_process_show+0xb4>
ffffffffa0802dc0:	00000000 	nop
ffffffffa0802dc4:	2c430001 	sltiu	v1,v0,1
ffffffffa0802dc8:	14600042 	bnez	v1,ffffffffa0802ed4 <do_process_show+0x1a4>
ffffffffa0802dcc:	00000000 	nop
ffffffffa0802dd0:	24030002 	li	v1,2
ffffffffa0802dd4:	10430021 	beq	v0,v1,ffffffffa0802e5c <do_process_show+0x12c>
ffffffffa0802dd8:	00000000 	nop
ffffffffa0802ddc:	08200bd2 	j	ffffffffa0802f48 <do_process_show+0x218>
ffffffffa0802de0:	00000000 	nop
ffffffffa0802de4:	8fc50004 	lw	a1,4(s8)
ffffffffa0802de8:	24a20001 	addiu	v0,a1,1
ffffffffa0802dec:	afc20004 	sw	v0,4(s8)
ffffffffa0802df0:	3c060000 	lui	a2,0x0
ffffffffa0802df4:	64c60000 	daddiu	a2,a2,0
ffffffffa0802df8:	00063438 	dsll	a2,a2,0x10
ffffffffa0802dfc:	64c6a081 	daddiu	a2,a2,-24447
ffffffffa0802e00:	00063438 	dsll	a2,a2,0x10
ffffffffa0802e04:	8fc40000 	lw	a0,0(s8)
ffffffffa0802e08:	0080182d 	move	v1,a0
ffffffffa0802e0c:	00031178 	dsll	v0,v1,0x5
ffffffffa0802e10:	0040182d 	move	v1,v0
ffffffffa0802e14:	000310b8 	dsll	v0,v1,0x2
ffffffffa0802e18:	0043102f 	dsubu	v0,v0,v1
ffffffffa0802e1c:	0044102d 	daddu	v0,v0,a0
ffffffffa0802e20:	000210f8 	dsll	v0,v0,0x3
ffffffffa0802e24:	64c39c18 	daddiu	v1,a2,-25576
ffffffffa0802e28:	0043102d 	daddu	v0,v0,v1
ffffffffa0802e2c:	8c4302f4 	lw	v1,756(v0)
ffffffffa0802e30:	3c020000 	lui	v0,0x0
ffffffffa0802e34:	64420000 	daddiu	v0,v0,0
ffffffffa0802e38:	00021438 	dsll	v0,v0,0x10
ffffffffa0802e3c:	6442a080 	daddiu	v0,v0,-24448
ffffffffa0802e40:	00021438 	dsll	v0,v0,0x10
ffffffffa0802e44:	644471e8 	daddiu	a0,v0,29160
ffffffffa0802e48:	0060302d 	move	a2,v1
ffffffffa0802e4c:	0c201223 	jal	ffffffffa080488c <kprintf>
ffffffffa0802e50:	00000000 	nop
ffffffffa0802e54:	08200bd2 	j	ffffffffa0802f48 <do_process_show+0x218>
ffffffffa0802e58:	00000000 	nop
ffffffffa0802e5c:	8fc50004 	lw	a1,4(s8)
ffffffffa0802e60:	24a20001 	addiu	v0,a1,1
ffffffffa0802e64:	afc20004 	sw	v0,4(s8)
ffffffffa0802e68:	3c060000 	lui	a2,0x0
ffffffffa0802e6c:	64c60000 	daddiu	a2,a2,0
ffffffffa0802e70:	00063438 	dsll	a2,a2,0x10
ffffffffa0802e74:	64c6a081 	daddiu	a2,a2,-24447
ffffffffa0802e78:	00063438 	dsll	a2,a2,0x10
ffffffffa0802e7c:	8fc40000 	lw	a0,0(s8)
ffffffffa0802e80:	0080182d 	move	v1,a0
ffffffffa0802e84:	00031178 	dsll	v0,v1,0x5
ffffffffa0802e88:	0040182d 	move	v1,v0
ffffffffa0802e8c:	000310b8 	dsll	v0,v1,0x2
ffffffffa0802e90:	0043102f 	dsubu	v0,v0,v1
ffffffffa0802e94:	0044102d 	daddu	v0,v0,a0
ffffffffa0802e98:	000210f8 	dsll	v0,v0,0x3
ffffffffa0802e9c:	64c39c18 	daddiu	v1,a2,-25576
ffffffffa0802ea0:	0043102d 	daddu	v0,v0,v1
ffffffffa0802ea4:	8c4302f4 	lw	v1,756(v0)
ffffffffa0802ea8:	3c020000 	lui	v0,0x0
ffffffffa0802eac:	64420000 	daddiu	v0,v0,0
ffffffffa0802eb0:	00021438 	dsll	v0,v0,0x10
ffffffffa0802eb4:	6442a080 	daddiu	v0,v0,-24448
ffffffffa0802eb8:	00021438 	dsll	v0,v0,0x10
ffffffffa0802ebc:	64447208 	daddiu	a0,v0,29192
ffffffffa0802ec0:	0060302d 	move	a2,v1
ffffffffa0802ec4:	0c201223 	jal	ffffffffa080488c <kprintf>
ffffffffa0802ec8:	00000000 	nop
ffffffffa0802ecc:	08200bd2 	j	ffffffffa0802f48 <do_process_show+0x218>
ffffffffa0802ed0:	00000000 	nop
ffffffffa0802ed4:	8fc50004 	lw	a1,4(s8)
ffffffffa0802ed8:	24a20001 	addiu	v0,a1,1
ffffffffa0802edc:	afc20004 	sw	v0,4(s8)
ffffffffa0802ee0:	3c060000 	lui	a2,0x0
ffffffffa0802ee4:	64c60000 	daddiu	a2,a2,0
ffffffffa0802ee8:	00063438 	dsll	a2,a2,0x10
ffffffffa0802eec:	64c6a081 	daddiu	a2,a2,-24447
ffffffffa0802ef0:	00063438 	dsll	a2,a2,0x10
ffffffffa0802ef4:	8fc40000 	lw	a0,0(s8)
ffffffffa0802ef8:	0080182d 	move	v1,a0
ffffffffa0802efc:	00031178 	dsll	v0,v1,0x5
ffffffffa0802f00:	0040182d 	move	v1,v0
ffffffffa0802f04:	000310b8 	dsll	v0,v1,0x2
ffffffffa0802f08:	0043102f 	dsubu	v0,v0,v1
ffffffffa0802f0c:	0044102d 	daddu	v0,v0,a0
ffffffffa0802f10:	000210f8 	dsll	v0,v0,0x3
ffffffffa0802f14:	64c39c18 	daddiu	v1,a2,-25576
ffffffffa0802f18:	0043102d 	daddu	v0,v0,v1
ffffffffa0802f1c:	8c4302f4 	lw	v1,756(v0)
ffffffffa0802f20:	3c020000 	lui	v0,0x0
ffffffffa0802f24:	64420000 	daddiu	v0,v0,0
ffffffffa0802f28:	00021438 	dsll	v0,v0,0x10
ffffffffa0802f2c:	6442a080 	daddiu	v0,v0,-24448
ffffffffa0802f30:	00021438 	dsll	v0,v0,0x10
ffffffffa0802f34:	64447228 	daddiu	a0,v0,29224
ffffffffa0802f38:	0060302d 	move	a2,v1
ffffffffa0802f3c:	0c201223 	jal	ffffffffa080488c <kprintf>
ffffffffa0802f40:	00000000 	nop
ffffffffa0802f44:	00000000 	nop
ffffffffa0802f48:	8fc20000 	lw	v0,0(s8)
ffffffffa0802f4c:	24420001 	addiu	v0,v0,1
ffffffffa0802f50:	afc20000 	sw	v0,0(s8)
ffffffffa0802f54:	8fc20000 	lw	v0,0(s8)
ffffffffa0802f58:	28420020 	slti	v0,v0,32
ffffffffa0802f5c:	1440ff84 	bnez	v0,ffffffffa0802d70 <do_process_show+0x40>
ffffffffa0802f60:	00000000 	nop
ffffffffa0802f64:	03c0e82d 	move	sp,s8
ffffffffa0802f68:	dfbf0018 	ld	ra,24(sp)
ffffffffa0802f6c:	dfbe0010 	ld	s8,16(sp)
ffffffffa0802f70:	67bd0020 	daddiu	sp,sp,32
ffffffffa0802f74:	03e00008 	jr	ra
ffffffffa0802f78:	00000000 	nop

ffffffffa0802f7c <do_getpid>:
ffffffffa0802f7c:	67bdfff0 	daddiu	sp,sp,-16
ffffffffa0802f80:	ffbe0008 	sd	s8,8(sp)
ffffffffa0802f84:	03a0f02d 	move	s8,sp
ffffffffa0802f88:	3c020000 	lui	v0,0x0
ffffffffa0802f8c:	64420000 	daddiu	v0,v0,0
ffffffffa0802f90:	00021438 	dsll	v0,v0,0x10
ffffffffa0802f94:	6442a081 	daddiu	v0,v0,-24447
ffffffffa0802f98:	00021438 	dsll	v0,v0,0x10
ffffffffa0802f9c:	dc429c10 	ld	v0,-25584(v0)
ffffffffa0802fa0:	8c4202f4 	lw	v0,756(v0)
ffffffffa0802fa4:	03c0e82d 	move	sp,s8
ffffffffa0802fa8:	dfbe0008 	ld	s8,8(sp)
ffffffffa0802fac:	67bd0010 	daddiu	sp,sp,16
ffffffffa0802fb0:	03e00008 	jr	ra
ffffffffa0802fb4:	00000000 	nop
	...

ffffffffa0802fc0 <queue_init>:
ffffffffa0802fc0:	67bdffe0 	daddiu	sp,sp,-32
ffffffffa0802fc4:	ffbe0018 	sd	s8,24(sp)
ffffffffa0802fc8:	03a0f02d 	move	s8,sp
ffffffffa0802fcc:	ffc40000 	sd	a0,0(s8)
ffffffffa0802fd0:	dfc20000 	ld	v0,0(s8)
ffffffffa0802fd4:	fc400008 	sd	zero,8(v0)
ffffffffa0802fd8:	dfc20000 	ld	v0,0(s8)
ffffffffa0802fdc:	dc430008 	ld	v1,8(v0)
ffffffffa0802fe0:	dfc20000 	ld	v0,0(s8)
ffffffffa0802fe4:	fc430000 	sd	v1,0(v0)
ffffffffa0802fe8:	03c0e82d 	move	sp,s8
ffffffffa0802fec:	dfbe0018 	ld	s8,24(sp)
ffffffffa0802ff0:	67bd0020 	daddiu	sp,sp,32
ffffffffa0802ff4:	03e00008 	jr	ra
ffffffffa0802ff8:	00000000 	nop

ffffffffa0802ffc <queue_is_empty>:
ffffffffa0802ffc:	67bdffe0 	daddiu	sp,sp,-32
ffffffffa0803000:	ffbe0018 	sd	s8,24(sp)
ffffffffa0803004:	03a0f02d 	move	s8,sp
ffffffffa0803008:	ffc40000 	sd	a0,0(s8)
ffffffffa080300c:	dfc20000 	ld	v0,0(s8)
ffffffffa0803010:	dc420000 	ld	v0,0(v0)
ffffffffa0803014:	14400004 	bnez	v0,ffffffffa0803028 <queue_is_empty+0x2c>
ffffffffa0803018:	00000000 	nop
ffffffffa080301c:	24020001 	li	v0,1
ffffffffa0803020:	08200c0b 	j	ffffffffa080302c <queue_is_empty+0x30>
ffffffffa0803024:	00000000 	nop
ffffffffa0803028:	0000102d 	move	v0,zero
ffffffffa080302c:	03c0e82d 	move	sp,s8
ffffffffa0803030:	dfbe0018 	ld	s8,24(sp)
ffffffffa0803034:	67bd0020 	daddiu	sp,sp,32
ffffffffa0803038:	03e00008 	jr	ra
ffffffffa080303c:	00000000 	nop

ffffffffa0803040 <queue_push>:
ffffffffa0803040:	67bdffd0 	daddiu	sp,sp,-48
ffffffffa0803044:	ffbe0028 	sd	s8,40(sp)
ffffffffa0803048:	03a0f02d 	move	s8,sp
ffffffffa080304c:	ffc40010 	sd	a0,16(s8)
ffffffffa0803050:	ffc50018 	sd	a1,24(s8)
ffffffffa0803054:	dfc20018 	ld	v0,24(s8)
ffffffffa0803058:	ffc20000 	sd	v0,0(s8)
ffffffffa080305c:	dfc20010 	ld	v0,16(s8)
ffffffffa0803060:	dc420000 	ld	v0,0(v0)
ffffffffa0803064:	1440000d 	bnez	v0,ffffffffa080309c <queue_push+0x5c>
ffffffffa0803068:	00000000 	nop
ffffffffa080306c:	dfc20010 	ld	v0,16(s8)
ffffffffa0803070:	dfc30018 	ld	v1,24(s8)
ffffffffa0803074:	fc430000 	sd	v1,0(v0)
ffffffffa0803078:	dfc20010 	ld	v0,16(s8)
ffffffffa080307c:	dfc30018 	ld	v1,24(s8)
ffffffffa0803080:	fc430008 	sd	v1,8(v0)
ffffffffa0803084:	dfc20000 	ld	v0,0(s8)
ffffffffa0803088:	fc4002a0 	sd	zero,672(v0)
ffffffffa080308c:	dfc20000 	ld	v0,0(s8)
ffffffffa0803090:	fc400298 	sd	zero,664(v0)
ffffffffa0803094:	08200c34 	j	ffffffffa08030d0 <queue_push+0x90>
ffffffffa0803098:	00000000 	nop
ffffffffa080309c:	dfc20010 	ld	v0,16(s8)
ffffffffa08030a0:	dc420008 	ld	v0,8(v0)
ffffffffa08030a4:	dfc30018 	ld	v1,24(s8)
ffffffffa08030a8:	fc4302a0 	sd	v1,672(v0)
ffffffffa08030ac:	dfc20000 	ld	v0,0(s8)
ffffffffa08030b0:	fc4002a0 	sd	zero,672(v0)
ffffffffa08030b4:	dfc20010 	ld	v0,16(s8)
ffffffffa08030b8:	dc430008 	ld	v1,8(v0)
ffffffffa08030bc:	dfc20000 	ld	v0,0(s8)
ffffffffa08030c0:	fc430298 	sd	v1,664(v0)
ffffffffa08030c4:	dfc20010 	ld	v0,16(s8)
ffffffffa08030c8:	dfc30018 	ld	v1,24(s8)
ffffffffa08030cc:	fc430008 	sd	v1,8(v0)
ffffffffa08030d0:	03c0e82d 	move	sp,s8
ffffffffa08030d4:	dfbe0028 	ld	s8,40(sp)
ffffffffa08030d8:	67bd0030 	daddiu	sp,sp,48
ffffffffa08030dc:	03e00008 	jr	ra
ffffffffa08030e0:	00000000 	nop

ffffffffa08030e4 <queue_dequeue>:
ffffffffa08030e4:	67bdffd0 	daddiu	sp,sp,-48
ffffffffa08030e8:	ffbe0028 	sd	s8,40(sp)
ffffffffa08030ec:	03a0f02d 	move	s8,sp
ffffffffa08030f0:	ffc40010 	sd	a0,16(s8)
ffffffffa08030f4:	dfc20010 	ld	v0,16(s8)
ffffffffa08030f8:	dc420000 	ld	v0,0(v0)
ffffffffa08030fc:	ffc20000 	sd	v0,0(s8)
ffffffffa0803100:	dfc20000 	ld	v0,0(s8)
ffffffffa0803104:	dc4202a0 	ld	v0,672(v0)
ffffffffa0803108:	14400007 	bnez	v0,ffffffffa0803128 <queue_dequeue+0x44>
ffffffffa080310c:	00000000 	nop
ffffffffa0803110:	dfc20010 	ld	v0,16(s8)
ffffffffa0803114:	fc400000 	sd	zero,0(v0)
ffffffffa0803118:	dfc20010 	ld	v0,16(s8)
ffffffffa080311c:	fc400008 	sd	zero,8(v0)
ffffffffa0803120:	08200c52 	j	ffffffffa0803148 <queue_dequeue+0x64>
ffffffffa0803124:	00000000 	nop
ffffffffa0803128:	dfc20010 	ld	v0,16(s8)
ffffffffa080312c:	dc420000 	ld	v0,0(v0)
ffffffffa0803130:	dc4302a0 	ld	v1,672(v0)
ffffffffa0803134:	dfc20010 	ld	v0,16(s8)
ffffffffa0803138:	fc430000 	sd	v1,0(v0)
ffffffffa080313c:	dfc20010 	ld	v0,16(s8)
ffffffffa0803140:	dc420000 	ld	v0,0(v0)
ffffffffa0803144:	fc400298 	sd	zero,664(v0)
ffffffffa0803148:	dfc20000 	ld	v0,0(s8)
ffffffffa080314c:	fc400298 	sd	zero,664(v0)
ffffffffa0803150:	dfc20000 	ld	v0,0(s8)
ffffffffa0803154:	fc4002a0 	sd	zero,672(v0)
ffffffffa0803158:	dfc20000 	ld	v0,0(s8)
ffffffffa080315c:	03c0e82d 	move	sp,s8
ffffffffa0803160:	dfbe0028 	ld	s8,40(sp)
ffffffffa0803164:	67bd0030 	daddiu	sp,sp,48
ffffffffa0803168:	03e00008 	jr	ra
ffffffffa080316c:	00000000 	nop

ffffffffa0803170 <queue_remove>:
ffffffffa0803170:	67bdffd0 	daddiu	sp,sp,-48
ffffffffa0803174:	ffbe0028 	sd	s8,40(sp)
ffffffffa0803178:	03a0f02d 	move	s8,sp
ffffffffa080317c:	ffc40010 	sd	a0,16(s8)
ffffffffa0803180:	ffc50018 	sd	a1,24(s8)
ffffffffa0803184:	dfc20018 	ld	v0,24(s8)
ffffffffa0803188:	ffc20000 	sd	v0,0(s8)
ffffffffa080318c:	dfc20000 	ld	v0,0(s8)
ffffffffa0803190:	dc4202a0 	ld	v0,672(v0)
ffffffffa0803194:	ffc20008 	sd	v0,8(s8)
ffffffffa0803198:	dfc20010 	ld	v0,16(s8)
ffffffffa080319c:	dc430000 	ld	v1,0(v0)
ffffffffa08031a0:	dfc20018 	ld	v0,24(s8)
ffffffffa08031a4:	1462000c 	bne	v1,v0,ffffffffa08031d8 <queue_remove+0x68>
ffffffffa08031a8:	00000000 	nop
ffffffffa08031ac:	dfc20010 	ld	v0,16(s8)
ffffffffa08031b0:	dc430008 	ld	v1,8(v0)
ffffffffa08031b4:	dfc20018 	ld	v0,24(s8)
ffffffffa08031b8:	14620007 	bne	v1,v0,ffffffffa08031d8 <queue_remove+0x68>
ffffffffa08031bc:	00000000 	nop
ffffffffa08031c0:	dfc20010 	ld	v0,16(s8)
ffffffffa08031c4:	fc400000 	sd	zero,0(v0)
ffffffffa08031c8:	dfc20010 	ld	v0,16(s8)
ffffffffa08031cc:	fc400008 	sd	zero,8(v0)
ffffffffa08031d0:	08200c9c 	j	ffffffffa0803270 <queue_remove+0x100>
ffffffffa08031d4:	00000000 	nop
ffffffffa08031d8:	dfc20010 	ld	v0,16(s8)
ffffffffa08031dc:	dc430000 	ld	v1,0(v0)
ffffffffa08031e0:	dfc20018 	ld	v0,24(s8)
ffffffffa08031e4:	1462000a 	bne	v1,v0,ffffffffa0803210 <queue_remove+0xa0>
ffffffffa08031e8:	00000000 	nop
ffffffffa08031ec:	dfc20000 	ld	v0,0(s8)
ffffffffa08031f0:	dc4302a0 	ld	v1,672(v0)
ffffffffa08031f4:	dfc20010 	ld	v0,16(s8)
ffffffffa08031f8:	fc430000 	sd	v1,0(v0)
ffffffffa08031fc:	dfc20010 	ld	v0,16(s8)
ffffffffa0803200:	dc420000 	ld	v0,0(v0)
ffffffffa0803204:	fc400298 	sd	zero,664(v0)
ffffffffa0803208:	08200c9c 	j	ffffffffa0803270 <queue_remove+0x100>
ffffffffa080320c:	00000000 	nop
ffffffffa0803210:	dfc20010 	ld	v0,16(s8)
ffffffffa0803214:	dc430008 	ld	v1,8(v0)
ffffffffa0803218:	dfc20018 	ld	v0,24(s8)
ffffffffa080321c:	1462000a 	bne	v1,v0,ffffffffa0803248 <queue_remove+0xd8>
ffffffffa0803220:	00000000 	nop
ffffffffa0803224:	dfc20000 	ld	v0,0(s8)
ffffffffa0803228:	dc430298 	ld	v1,664(v0)
ffffffffa080322c:	dfc20010 	ld	v0,16(s8)
ffffffffa0803230:	fc430008 	sd	v1,8(v0)
ffffffffa0803234:	dfc20010 	ld	v0,16(s8)
ffffffffa0803238:	dc420008 	ld	v0,8(v0)
ffffffffa080323c:	fc4002a0 	sd	zero,672(v0)
ffffffffa0803240:	08200c9c 	j	ffffffffa0803270 <queue_remove+0x100>
ffffffffa0803244:	00000000 	nop
ffffffffa0803248:	dfc20000 	ld	v0,0(s8)
ffffffffa080324c:	dc420298 	ld	v0,664(v0)
ffffffffa0803250:	dfc30000 	ld	v1,0(s8)
ffffffffa0803254:	dc6302a0 	ld	v1,672(v1)
ffffffffa0803258:	fc4302a0 	sd	v1,672(v0)
ffffffffa080325c:	dfc20000 	ld	v0,0(s8)
ffffffffa0803260:	dc4202a0 	ld	v0,672(v0)
ffffffffa0803264:	dfc30000 	ld	v1,0(s8)
ffffffffa0803268:	dc630298 	ld	v1,664(v1)
ffffffffa080326c:	fc430298 	sd	v1,664(v0)
ffffffffa0803270:	dfc20000 	ld	v0,0(s8)
ffffffffa0803274:	fc400298 	sd	zero,664(v0)
ffffffffa0803278:	dfc20000 	ld	v0,0(s8)
ffffffffa080327c:	fc4002a0 	sd	zero,672(v0)
ffffffffa0803280:	dfc20008 	ld	v0,8(s8)
ffffffffa0803284:	03c0e82d 	move	sp,s8
ffffffffa0803288:	dfbe0028 	ld	s8,40(sp)
ffffffffa080328c:	67bd0030 	daddiu	sp,sp,48
ffffffffa0803290:	03e00008 	jr	ra
ffffffffa0803294:	00000000 	nop
	...

ffffffffa08032a0 <get_ticks>:
ffffffffa08032a0:	67bdfff0 	daddiu	sp,sp,-16
ffffffffa08032a4:	ffbe0008 	sd	s8,8(sp)
ffffffffa08032a8:	03a0f02d 	move	s8,sp
ffffffffa08032ac:	3c020000 	lui	v0,0x0
ffffffffa08032b0:	64420000 	daddiu	v0,v0,0
ffffffffa08032b4:	00021438 	dsll	v0,v0,0x10
ffffffffa08032b8:	6442a081 	daddiu	v0,v0,-24447
ffffffffa08032bc:	00021438 	dsll	v0,v0,0x10
ffffffffa08032c0:	8c4298a0 	lw	v0,-26464(v0)
ffffffffa08032c4:	03c0e82d 	move	sp,s8
ffffffffa08032c8:	dfbe0008 	ld	s8,8(sp)
ffffffffa08032cc:	67bd0010 	daddiu	sp,sp,16
ffffffffa08032d0:	03e00008 	jr	ra
ffffffffa08032d4:	00000000 	nop

ffffffffa08032d8 <get_timer>:
ffffffffa08032d8:	67bdfff0 	daddiu	sp,sp,-16
ffffffffa08032dc:	ffbe0008 	sd	s8,8(sp)
ffffffffa08032e0:	03a0f02d 	move	s8,sp
ffffffffa08032e4:	3c020000 	lui	v0,0x0
ffffffffa08032e8:	64420000 	daddiu	v0,v0,0
ffffffffa08032ec:	00021438 	dsll	v0,v0,0x10
ffffffffa08032f0:	6442a081 	daddiu	v0,v0,-24447
ffffffffa08032f4:	00021438 	dsll	v0,v0,0x10
ffffffffa08032f8:	8c4298a0 	lw	v0,-26464(v0)
ffffffffa08032fc:	0040182d 	move	v1,v0
ffffffffa0803300:	3c026b5f 	lui	v0,0x6b5f
ffffffffa0803304:	3442ca6b 	ori	v0,v0,0xca6b
ffffffffa0803308:	00620019 	multu	v1,v0
ffffffffa080330c:	00001010 	mfhi	v0
ffffffffa0803310:	00021582 	srl	v0,v0,0x16
ffffffffa0803314:	03c0e82d 	move	sp,s8
ffffffffa0803318:	dfbe0008 	ld	s8,8(sp)
ffffffffa080331c:	67bd0010 	daddiu	sp,sp,16
ffffffffa0803320:	03e00008 	jr	ra
ffffffffa0803324:	00000000 	nop

ffffffffa0803328 <latency>:
ffffffffa0803328:	67bdffd0 	daddiu	sp,sp,-48
ffffffffa080332c:	ffbf0028 	sd	ra,40(sp)
ffffffffa0803330:	ffbe0020 	sd	s8,32(sp)
ffffffffa0803334:	03a0f02d 	move	s8,sp
ffffffffa0803338:	0080102d 	move	v0,a0
ffffffffa080333c:	00021000 	sll	v0,v0,0x0
ffffffffa0803340:	afc20010 	sw	v0,16(s8)
ffffffffa0803344:	0c200cb6 	jal	ffffffffa08032d8 <get_timer>
ffffffffa0803348:	00000000 	nop
ffffffffa080334c:	afc20000 	sw	v0,0(s8)
ffffffffa0803350:	00000000 	nop
ffffffffa0803354:	0c200cb6 	jal	ffffffffa08032d8 <get_timer>
ffffffffa0803358:	00000000 	nop
ffffffffa080335c:	0040182d 	move	v1,v0
ffffffffa0803360:	8fc20000 	lw	v0,0(s8)
ffffffffa0803364:	00621023 	subu	v0,v1,v0
ffffffffa0803368:	8fc30010 	lw	v1,16(s8)
ffffffffa080336c:	0043102b 	sltu	v0,v0,v1
ffffffffa0803370:	1440fff8 	bnez	v0,ffffffffa0803354 <latency+0x2c>
ffffffffa0803374:	00000000 	nop
ffffffffa0803378:	00000000 	nop
ffffffffa080337c:	03c0e82d 	move	sp,s8
ffffffffa0803380:	dfbf0028 	ld	ra,40(sp)
ffffffffa0803384:	dfbe0020 	ld	s8,32(sp)
ffffffffa0803388:	67bd0030 	daddiu	sp,sp,48
ffffffffa080338c:	03e00008 	jr	ra
ffffffffa0803390:	00000000 	nop
	...

ffffffffa08033a0 <system_call_helper>:
ffffffffa08033a0:	67bdffd0 	daddiu	sp,sp,-48
ffffffffa08033a4:	ffbe0028 	sd	s8,40(sp)
ffffffffa08033a8:	03a0f02d 	move	s8,sp
ffffffffa08033ac:	ffc40000 	sd	a0,0(s8)
ffffffffa08033b0:	ffc50008 	sd	a1,8(s8)
ffffffffa08033b4:	ffc60010 	sd	a2,16(s8)
ffffffffa08033b8:	ffc70018 	sd	a3,24(s8)
ffffffffa08033bc:	03c0e82d 	move	sp,s8
ffffffffa08033c0:	dfbe0028 	ld	s8,40(sp)
ffffffffa08033c4:	67bd0030 	daddiu	sp,sp,48
ffffffffa08033c8:	03e00008 	jr	ra
ffffffffa08033cc:	00000000 	nop

ffffffffa08033d0 <sys_spawn>:
ffffffffa08033d0:	67bdffe0 	daddiu	sp,sp,-32
ffffffffa08033d4:	ffbe0018 	sd	s8,24(sp)
ffffffffa08033d8:	03a0f02d 	move	s8,sp
ffffffffa08033dc:	ffc40000 	sd	a0,0(s8)
ffffffffa08033e0:	03c0e82d 	move	sp,s8
ffffffffa08033e4:	dfbe0018 	ld	s8,24(sp)
ffffffffa08033e8:	67bd0020 	daddiu	sp,sp,32
ffffffffa08033ec:	03e00008 	jr	ra
ffffffffa08033f0:	00000000 	nop

ffffffffa08033f4 <sys_exit>:
ffffffffa08033f4:	67bdfff0 	daddiu	sp,sp,-16
ffffffffa08033f8:	ffbe0008 	sd	s8,8(sp)
ffffffffa08033fc:	03a0f02d 	move	s8,sp
ffffffffa0803400:	03c0e82d 	move	sp,s8
ffffffffa0803404:	dfbe0008 	ld	s8,8(sp)
ffffffffa0803408:	67bd0010 	daddiu	sp,sp,16
ffffffffa080340c:	03e00008 	jr	ra
ffffffffa0803410:	00000000 	nop

ffffffffa0803414 <sys_sleep>:
ffffffffa0803414:	67bdffe0 	daddiu	sp,sp,-32
ffffffffa0803418:	ffbe0018 	sd	s8,24(sp)
ffffffffa080341c:	03a0f02d 	move	s8,sp
ffffffffa0803420:	0080102d 	move	v0,a0
ffffffffa0803424:	00021000 	sll	v0,v0,0x0
ffffffffa0803428:	afc20000 	sw	v0,0(s8)
ffffffffa080342c:	03c0e82d 	move	sp,s8
ffffffffa0803430:	dfbe0018 	ld	s8,24(sp)
ffffffffa0803434:	67bd0020 	daddiu	sp,sp,32
ffffffffa0803438:	03e00008 	jr	ra
ffffffffa080343c:	00000000 	nop

ffffffffa0803440 <sys_kill>:
ffffffffa0803440:	67bdffe0 	daddiu	sp,sp,-32
ffffffffa0803444:	ffbe0018 	sd	s8,24(sp)
ffffffffa0803448:	03a0f02d 	move	s8,sp
ffffffffa080344c:	0080102d 	move	v0,a0
ffffffffa0803450:	00021000 	sll	v0,v0,0x0
ffffffffa0803454:	afc20000 	sw	v0,0(s8)
ffffffffa0803458:	03c0e82d 	move	sp,s8
ffffffffa080345c:	dfbe0018 	ld	s8,24(sp)
ffffffffa0803460:	67bd0020 	daddiu	sp,sp,32
ffffffffa0803464:	03e00008 	jr	ra
ffffffffa0803468:	00000000 	nop

ffffffffa080346c <sys_waitpid>:
ffffffffa080346c:	67bdffe0 	daddiu	sp,sp,-32
ffffffffa0803470:	ffbe0018 	sd	s8,24(sp)
ffffffffa0803474:	03a0f02d 	move	s8,sp
ffffffffa0803478:	0080102d 	move	v0,a0
ffffffffa080347c:	00021000 	sll	v0,v0,0x0
ffffffffa0803480:	afc20000 	sw	v0,0(s8)
ffffffffa0803484:	03c0e82d 	move	sp,s8
ffffffffa0803488:	dfbe0018 	ld	s8,24(sp)
ffffffffa080348c:	67bd0020 	daddiu	sp,sp,32
ffffffffa0803490:	03e00008 	jr	ra
ffffffffa0803494:	00000000 	nop

ffffffffa0803498 <sys_write>:
ffffffffa0803498:	67bdffe0 	daddiu	sp,sp,-32
ffffffffa080349c:	ffbe0018 	sd	s8,24(sp)
ffffffffa08034a0:	03a0f02d 	move	s8,sp
ffffffffa08034a4:	ffc40000 	sd	a0,0(s8)
ffffffffa08034a8:	03c0e82d 	move	sp,s8
ffffffffa08034ac:	dfbe0018 	ld	s8,24(sp)
ffffffffa08034b0:	67bd0020 	daddiu	sp,sp,32
ffffffffa08034b4:	03e00008 	jr	ra
ffffffffa08034b8:	00000000 	nop

ffffffffa08034bc <sys_reflush>:
ffffffffa08034bc:	67bdfff0 	daddiu	sp,sp,-16
ffffffffa08034c0:	ffbe0008 	sd	s8,8(sp)
ffffffffa08034c4:	03a0f02d 	move	s8,sp
ffffffffa08034c8:	03c0e82d 	move	sp,s8
ffffffffa08034cc:	dfbe0008 	ld	s8,8(sp)
ffffffffa08034d0:	67bd0010 	daddiu	sp,sp,16
ffffffffa08034d4:	03e00008 	jr	ra
ffffffffa08034d8:	00000000 	nop

ffffffffa08034dc <sys_move_cursor>:
ffffffffa08034dc:	67bdffe0 	daddiu	sp,sp,-32
ffffffffa08034e0:	ffbe0018 	sd	s8,24(sp)
ffffffffa08034e4:	03a0f02d 	move	s8,sp
ffffffffa08034e8:	0080182d 	move	v1,a0
ffffffffa08034ec:	00a0102d 	move	v0,a1
ffffffffa08034f0:	00031800 	sll	v1,v1,0x0
ffffffffa08034f4:	afc30000 	sw	v1,0(s8)
ffffffffa08034f8:	00021000 	sll	v0,v0,0x0
ffffffffa08034fc:	afc20004 	sw	v0,4(s8)
ffffffffa0803500:	03c0e82d 	move	sp,s8
ffffffffa0803504:	dfbe0018 	ld	s8,24(sp)
ffffffffa0803508:	67bd0020 	daddiu	sp,sp,32
ffffffffa080350c:	03e00008 	jr	ra
ffffffffa0803510:	00000000 	nop

ffffffffa0803514 <mutex_lock_init>:
ffffffffa0803514:	67bdffe0 	daddiu	sp,sp,-32
ffffffffa0803518:	ffbe0018 	sd	s8,24(sp)
ffffffffa080351c:	03a0f02d 	move	s8,sp
ffffffffa0803520:	ffc40000 	sd	a0,0(s8)
ffffffffa0803524:	03c0e82d 	move	sp,s8
ffffffffa0803528:	dfbe0018 	ld	s8,24(sp)
ffffffffa080352c:	67bd0020 	daddiu	sp,sp,32
ffffffffa0803530:	03e00008 	jr	ra
ffffffffa0803534:	00000000 	nop

ffffffffa0803538 <mutex_lock_acquire>:
ffffffffa0803538:	67bdffe0 	daddiu	sp,sp,-32
ffffffffa080353c:	ffbe0018 	sd	s8,24(sp)
ffffffffa0803540:	03a0f02d 	move	s8,sp
ffffffffa0803544:	ffc40000 	sd	a0,0(s8)
ffffffffa0803548:	03c0e82d 	move	sp,s8
ffffffffa080354c:	dfbe0018 	ld	s8,24(sp)
ffffffffa0803550:	67bd0020 	daddiu	sp,sp,32
ffffffffa0803554:	03e00008 	jr	ra
ffffffffa0803558:	00000000 	nop

ffffffffa080355c <mutex_lock_release>:
ffffffffa080355c:	67bdffe0 	daddiu	sp,sp,-32
ffffffffa0803560:	ffbe0018 	sd	s8,24(sp)
ffffffffa0803564:	03a0f02d 	move	s8,sp
ffffffffa0803568:	ffc40000 	sd	a0,0(s8)
ffffffffa080356c:	03c0e82d 	move	sp,s8
ffffffffa0803570:	dfbe0018 	ld	s8,24(sp)
ffffffffa0803574:	67bd0020 	daddiu	sp,sp,32
ffffffffa0803578:	03e00008 	jr	ra
ffffffffa080357c:	00000000 	nop

ffffffffa0803580 <condition_init>:
ffffffffa0803580:	67bdffe0 	daddiu	sp,sp,-32
ffffffffa0803584:	ffbe0018 	sd	s8,24(sp)
ffffffffa0803588:	03a0f02d 	move	s8,sp
ffffffffa080358c:	ffc40000 	sd	a0,0(s8)
ffffffffa0803590:	03c0e82d 	move	sp,s8
ffffffffa0803594:	dfbe0018 	ld	s8,24(sp)
ffffffffa0803598:	67bd0020 	daddiu	sp,sp,32
ffffffffa080359c:	03e00008 	jr	ra
ffffffffa08035a0:	00000000 	nop

ffffffffa08035a4 <condition_wait>:
ffffffffa08035a4:	67bdffe0 	daddiu	sp,sp,-32
ffffffffa08035a8:	ffbe0018 	sd	s8,24(sp)
ffffffffa08035ac:	03a0f02d 	move	s8,sp
ffffffffa08035b0:	ffc40000 	sd	a0,0(s8)
ffffffffa08035b4:	ffc50008 	sd	a1,8(s8)
ffffffffa08035b8:	03c0e82d 	move	sp,s8
ffffffffa08035bc:	dfbe0018 	ld	s8,24(sp)
ffffffffa08035c0:	67bd0020 	daddiu	sp,sp,32
ffffffffa08035c4:	03e00008 	jr	ra
ffffffffa08035c8:	00000000 	nop

ffffffffa08035cc <condition_signal>:
ffffffffa08035cc:	67bdffe0 	daddiu	sp,sp,-32
ffffffffa08035d0:	ffbe0018 	sd	s8,24(sp)
ffffffffa08035d4:	03a0f02d 	move	s8,sp
ffffffffa08035d8:	ffc40000 	sd	a0,0(s8)
ffffffffa08035dc:	03c0e82d 	move	sp,s8
ffffffffa08035e0:	dfbe0018 	ld	s8,24(sp)
ffffffffa08035e4:	67bd0020 	daddiu	sp,sp,32
ffffffffa08035e8:	03e00008 	jr	ra
ffffffffa08035ec:	00000000 	nop

ffffffffa08035f0 <condition_broadcast>:
ffffffffa08035f0:	67bdffe0 	daddiu	sp,sp,-32
ffffffffa08035f4:	ffbe0018 	sd	s8,24(sp)
ffffffffa08035f8:	03a0f02d 	move	s8,sp
ffffffffa08035fc:	ffc40000 	sd	a0,0(s8)
ffffffffa0803600:	03c0e82d 	move	sp,s8
ffffffffa0803604:	dfbe0018 	ld	s8,24(sp)
ffffffffa0803608:	67bd0020 	daddiu	sp,sp,32
ffffffffa080360c:	03e00008 	jr	ra
ffffffffa0803610:	00000000 	nop

ffffffffa0803614 <semaphore_init>:
ffffffffa0803614:	67bdffe0 	daddiu	sp,sp,-32
ffffffffa0803618:	ffbe0018 	sd	s8,24(sp)
ffffffffa080361c:	03a0f02d 	move	s8,sp
ffffffffa0803620:	ffc40000 	sd	a0,0(s8)
ffffffffa0803624:	00a0102d 	move	v0,a1
ffffffffa0803628:	00021000 	sll	v0,v0,0x0
ffffffffa080362c:	afc20008 	sw	v0,8(s8)
ffffffffa0803630:	03c0e82d 	move	sp,s8
ffffffffa0803634:	dfbe0018 	ld	s8,24(sp)
ffffffffa0803638:	67bd0020 	daddiu	sp,sp,32
ffffffffa080363c:	03e00008 	jr	ra
ffffffffa0803640:	00000000 	nop

ffffffffa0803644 <semaphore_up>:
ffffffffa0803644:	67bdffe0 	daddiu	sp,sp,-32
ffffffffa0803648:	ffbe0018 	sd	s8,24(sp)
ffffffffa080364c:	03a0f02d 	move	s8,sp
ffffffffa0803650:	ffc40000 	sd	a0,0(s8)
ffffffffa0803654:	03c0e82d 	move	sp,s8
ffffffffa0803658:	dfbe0018 	ld	s8,24(sp)
ffffffffa080365c:	67bd0020 	daddiu	sp,sp,32
ffffffffa0803660:	03e00008 	jr	ra
ffffffffa0803664:	00000000 	nop

ffffffffa0803668 <semaphore_down>:
ffffffffa0803668:	67bdffe0 	daddiu	sp,sp,-32
ffffffffa080366c:	ffbe0018 	sd	s8,24(sp)
ffffffffa0803670:	03a0f02d 	move	s8,sp
ffffffffa0803674:	ffc40000 	sd	a0,0(s8)
ffffffffa0803678:	03c0e82d 	move	sp,s8
ffffffffa080367c:	dfbe0018 	ld	s8,24(sp)
ffffffffa0803680:	67bd0020 	daddiu	sp,sp,32
ffffffffa0803684:	03e00008 	jr	ra
ffffffffa0803688:	00000000 	nop

ffffffffa080368c <barrier_init>:
ffffffffa080368c:	67bdffe0 	daddiu	sp,sp,-32
ffffffffa0803690:	ffbe0018 	sd	s8,24(sp)
ffffffffa0803694:	03a0f02d 	move	s8,sp
ffffffffa0803698:	ffc40000 	sd	a0,0(s8)
ffffffffa080369c:	00a0102d 	move	v0,a1
ffffffffa08036a0:	00021000 	sll	v0,v0,0x0
ffffffffa08036a4:	afc20008 	sw	v0,8(s8)
ffffffffa08036a8:	03c0e82d 	move	sp,s8
ffffffffa08036ac:	dfbe0018 	ld	s8,24(sp)
ffffffffa08036b0:	67bd0020 	daddiu	sp,sp,32
ffffffffa08036b4:	03e00008 	jr	ra
ffffffffa08036b8:	00000000 	nop

ffffffffa08036bc <barrier_wait>:
ffffffffa08036bc:	67bdffe0 	daddiu	sp,sp,-32
ffffffffa08036c0:	ffbe0018 	sd	s8,24(sp)
ffffffffa08036c4:	03a0f02d 	move	s8,sp
ffffffffa08036c8:	ffc40000 	sd	a0,0(s8)
ffffffffa08036cc:	03c0e82d 	move	sp,s8
ffffffffa08036d0:	dfbe0018 	ld	s8,24(sp)
ffffffffa08036d4:	67bd0020 	daddiu	sp,sp,32
ffffffffa08036d8:	03e00008 	jr	ra
ffffffffa08036dc:	00000000 	nop

ffffffffa08036e0 <sys_read_shell_buff>:
ffffffffa08036e0:	67bdffe0 	daddiu	sp,sp,-32
ffffffffa08036e4:	ffbe0018 	sd	s8,24(sp)
ffffffffa08036e8:	03a0f02d 	move	s8,sp
ffffffffa08036ec:	ffc40000 	sd	a0,0(s8)
ffffffffa08036f0:	03c0e82d 	move	sp,s8
ffffffffa08036f4:	dfbe0018 	ld	s8,24(sp)
ffffffffa08036f8:	67bd0020 	daddiu	sp,sp,32
ffffffffa08036fc:	03e00008 	jr	ra
ffffffffa0803700:	00000000 	nop

ffffffffa0803704 <sys_process_show>:
ffffffffa0803704:	67bdfff0 	daddiu	sp,sp,-16
ffffffffa0803708:	ffbe0008 	sd	s8,8(sp)
ffffffffa080370c:	03a0f02d 	move	s8,sp
ffffffffa0803710:	03c0e82d 	move	sp,s8
ffffffffa0803714:	dfbe0008 	ld	s8,8(sp)
ffffffffa0803718:	67bd0010 	daddiu	sp,sp,16
ffffffffa080371c:	03e00008 	jr	ra
ffffffffa0803720:	00000000 	nop

ffffffffa0803724 <sys_screen_clear>:
ffffffffa0803724:	67bdffe0 	daddiu	sp,sp,-32
ffffffffa0803728:	ffbe0018 	sd	s8,24(sp)
ffffffffa080372c:	03a0f02d 	move	s8,sp
ffffffffa0803730:	0080182d 	move	v1,a0
ffffffffa0803734:	00a0102d 	move	v0,a1
ffffffffa0803738:	00031800 	sll	v1,v1,0x0
ffffffffa080373c:	afc30000 	sw	v1,0(s8)
ffffffffa0803740:	00021000 	sll	v0,v0,0x0
ffffffffa0803744:	afc20004 	sw	v0,4(s8)
ffffffffa0803748:	03c0e82d 	move	sp,s8
ffffffffa080374c:	dfbe0018 	ld	s8,24(sp)
ffffffffa0803750:	67bd0020 	daddiu	sp,sp,32
ffffffffa0803754:	03e00008 	jr	ra
ffffffffa0803758:	00000000 	nop

ffffffffa080375c <sys_getpid>:
ffffffffa080375c:	67bdfff0 	daddiu	sp,sp,-16
ffffffffa0803760:	ffbe0008 	sd	s8,8(sp)
ffffffffa0803764:	03a0f02d 	move	s8,sp
ffffffffa0803768:	03c0e82d 	move	sp,s8
ffffffffa080376c:	dfbe0008 	ld	s8,8(sp)
ffffffffa0803770:	67bd0010 	daddiu	sp,sp,16
ffffffffa0803774:	03e00008 	jr	ra
ffffffffa0803778:	00000000 	nop

ffffffffa080377c <sys_mkfs>:
ffffffffa080377c:	67bdfff0 	daddiu	sp,sp,-16
ffffffffa0803780:	ffbe0008 	sd	s8,8(sp)
ffffffffa0803784:	03a0f02d 	move	s8,sp
ffffffffa0803788:	03c0e82d 	move	sp,s8
ffffffffa080378c:	dfbe0008 	ld	s8,8(sp)
ffffffffa0803790:	67bd0010 	daddiu	sp,sp,16
ffffffffa0803794:	03e00008 	jr	ra
ffffffffa0803798:	00000000 	nop

ffffffffa080379c <sys_mkdir>:
ffffffffa080379c:	67bdffe0 	daddiu	sp,sp,-32
ffffffffa08037a0:	ffbe0018 	sd	s8,24(sp)
ffffffffa08037a4:	03a0f02d 	move	s8,sp
ffffffffa08037a8:	ffc40000 	sd	a0,0(s8)
ffffffffa08037ac:	03c0e82d 	move	sp,s8
ffffffffa08037b0:	dfbe0018 	ld	s8,24(sp)
ffffffffa08037b4:	67bd0020 	daddiu	sp,sp,32
ffffffffa08037b8:	03e00008 	jr	ra
ffffffffa08037bc:	00000000 	nop

ffffffffa08037c0 <sys_readdir>:
ffffffffa08037c0:	67bdffe0 	daddiu	sp,sp,-32
ffffffffa08037c4:	ffbe0018 	sd	s8,24(sp)
ffffffffa08037c8:	03a0f02d 	move	s8,sp
ffffffffa08037cc:	ffc40000 	sd	a0,0(s8)
ffffffffa08037d0:	03c0e82d 	move	sp,s8
ffffffffa08037d4:	dfbe0018 	ld	s8,24(sp)
ffffffffa08037d8:	67bd0020 	daddiu	sp,sp,32
ffffffffa08037dc:	03e00008 	jr	ra
ffffffffa08037e0:	00000000 	nop

ffffffffa08037e4 <sys_enterdir>:
ffffffffa08037e4:	67bdffe0 	daddiu	sp,sp,-32
ffffffffa08037e8:	ffbe0018 	sd	s8,24(sp)
ffffffffa08037ec:	03a0f02d 	move	s8,sp
ffffffffa08037f0:	ffc40000 	sd	a0,0(s8)
ffffffffa08037f4:	03c0e82d 	move	sp,s8
ffffffffa08037f8:	dfbe0018 	ld	s8,24(sp)
ffffffffa08037fc:	67bd0020 	daddiu	sp,sp,32
ffffffffa0803800:	03e00008 	jr	ra
ffffffffa0803804:	00000000 	nop

ffffffffa0803808 <sys_rmdir>:
ffffffffa0803808:	67bdffe0 	daddiu	sp,sp,-32
ffffffffa080380c:	ffbe0018 	sd	s8,24(sp)
ffffffffa0803810:	03a0f02d 	move	s8,sp
ffffffffa0803814:	ffc40000 	sd	a0,0(s8)
ffffffffa0803818:	03c0e82d 	move	sp,s8
ffffffffa080381c:	dfbe0018 	ld	s8,24(sp)
ffffffffa0803820:	67bd0020 	daddiu	sp,sp,32
ffffffffa0803824:	03e00008 	jr	ra
ffffffffa0803828:	00000000 	nop

ffffffffa080382c <sys_print_fs>:
ffffffffa080382c:	67bdffe0 	daddiu	sp,sp,-32
ffffffffa0803830:	ffbe0018 	sd	s8,24(sp)
ffffffffa0803834:	03a0f02d 	move	s8,sp
ffffffffa0803838:	ffc40000 	sd	a0,0(s8)
ffffffffa080383c:	03c0e82d 	move	sp,s8
ffffffffa0803840:	dfbe0018 	ld	s8,24(sp)
ffffffffa0803844:	67bd0020 	daddiu	sp,sp,32
ffffffffa0803848:	03e00008 	jr	ra
ffffffffa080384c:	00000000 	nop

ffffffffa0803850 <sys_mknod>:
ffffffffa0803850:	67bdffe0 	daddiu	sp,sp,-32
ffffffffa0803854:	ffbe0018 	sd	s8,24(sp)
ffffffffa0803858:	03a0f02d 	move	s8,sp
ffffffffa080385c:	ffc40000 	sd	a0,0(s8)
ffffffffa0803860:	03c0e82d 	move	sp,s8
ffffffffa0803864:	dfbe0018 	ld	s8,24(sp)
ffffffffa0803868:	67bd0020 	daddiu	sp,sp,32
ffffffffa080386c:	03e00008 	jr	ra
ffffffffa0803870:	00000000 	nop

ffffffffa0803874 <sys_fopen>:
ffffffffa0803874:	67bdffe0 	daddiu	sp,sp,-32
ffffffffa0803878:	ffbe0018 	sd	s8,24(sp)
ffffffffa080387c:	03a0f02d 	move	s8,sp
ffffffffa0803880:	ffc40000 	sd	a0,0(s8)
ffffffffa0803884:	00a0102d 	move	v0,a1
ffffffffa0803888:	00021000 	sll	v0,v0,0x0
ffffffffa080388c:	afc20008 	sw	v0,8(s8)
ffffffffa0803890:	03c0e82d 	move	sp,s8
ffffffffa0803894:	dfbe0018 	ld	s8,24(sp)
ffffffffa0803898:	67bd0020 	daddiu	sp,sp,32
ffffffffa080389c:	03e00008 	jr	ra
ffffffffa08038a0:	00000000 	nop

ffffffffa08038a4 <sys_fwrite>:
ffffffffa08038a4:	67bdffe0 	daddiu	sp,sp,-32
ffffffffa08038a8:	ffbe0018 	sd	s8,24(sp)
ffffffffa08038ac:	03a0f02d 	move	s8,sp
ffffffffa08038b0:	0080182d 	move	v1,a0
ffffffffa08038b4:	ffc50008 	sd	a1,8(s8)
ffffffffa08038b8:	00c0102d 	move	v0,a2
ffffffffa08038bc:	00031800 	sll	v1,v1,0x0
ffffffffa08038c0:	afc30000 	sw	v1,0(s8)
ffffffffa08038c4:	00021000 	sll	v0,v0,0x0
ffffffffa08038c8:	afc20004 	sw	v0,4(s8)
ffffffffa08038cc:	03c0e82d 	move	sp,s8
ffffffffa08038d0:	dfbe0018 	ld	s8,24(sp)
ffffffffa08038d4:	67bd0020 	daddiu	sp,sp,32
ffffffffa08038d8:	03e00008 	jr	ra
ffffffffa08038dc:	00000000 	nop

ffffffffa08038e0 <sys_cat>:
ffffffffa08038e0:	67bdffe0 	daddiu	sp,sp,-32
ffffffffa08038e4:	ffbe0018 	sd	s8,24(sp)
ffffffffa08038e8:	03a0f02d 	move	s8,sp
ffffffffa08038ec:	ffc40000 	sd	a0,0(s8)
ffffffffa08038f0:	03c0e82d 	move	sp,s8
ffffffffa08038f4:	dfbe0018 	ld	s8,24(sp)
ffffffffa08038f8:	67bd0020 	daddiu	sp,sp,32
ffffffffa08038fc:	03e00008 	jr	ra
ffffffffa0803900:	00000000 	nop

ffffffffa0803904 <sys_fread>:
ffffffffa0803904:	67bdffe0 	daddiu	sp,sp,-32
ffffffffa0803908:	ffbe0018 	sd	s8,24(sp)
ffffffffa080390c:	03a0f02d 	move	s8,sp
ffffffffa0803910:	0080182d 	move	v1,a0
ffffffffa0803914:	ffc50008 	sd	a1,8(s8)
ffffffffa0803918:	00c0102d 	move	v0,a2
ffffffffa080391c:	00031800 	sll	v1,v1,0x0
ffffffffa0803920:	afc30000 	sw	v1,0(s8)
ffffffffa0803924:	00021000 	sll	v0,v0,0x0
ffffffffa0803928:	afc20004 	sw	v0,4(s8)
ffffffffa080392c:	03c0e82d 	move	sp,s8
ffffffffa0803930:	dfbe0018 	ld	s8,24(sp)
ffffffffa0803934:	67bd0020 	daddiu	sp,sp,32
ffffffffa0803938:	03e00008 	jr	ra
ffffffffa080393c:	00000000 	nop

ffffffffa0803940 <sys_close>:
ffffffffa0803940:	67bdffe0 	daddiu	sp,sp,-32
ffffffffa0803944:	ffbe0018 	sd	s8,24(sp)
ffffffffa0803948:	03a0f02d 	move	s8,sp
ffffffffa080394c:	0080102d 	move	v0,a0
ffffffffa0803950:	00021000 	sll	v0,v0,0x0
ffffffffa0803954:	afc20000 	sw	v0,0(s8)
ffffffffa0803958:	03c0e82d 	move	sp,s8
ffffffffa080395c:	dfbe0018 	ld	s8,24(sp)
ffffffffa0803960:	67bd0020 	daddiu	sp,sp,32
ffffffffa0803964:	03e00008 	jr	ra
ffffffffa0803968:	00000000 	nop

ffffffffa080396c <sys_net_recv>:
ffffffffa080396c:	67bdffd0 	daddiu	sp,sp,-48
ffffffffa0803970:	ffbe0028 	sd	s8,40(sp)
ffffffffa0803974:	03a0f02d 	move	s8,sp
ffffffffa0803978:	ffc40000 	sd	a0,0(s8)
ffffffffa080397c:	ffc50008 	sd	a1,8(s8)
ffffffffa0803980:	ffc60010 	sd	a2,16(s8)
ffffffffa0803984:	03c0e82d 	move	sp,s8
ffffffffa0803988:	dfbe0028 	ld	s8,40(sp)
ffffffffa080398c:	67bd0030 	daddiu	sp,sp,48
ffffffffa0803990:	03e00008 	jr	ra
ffffffffa0803994:	00000000 	nop

ffffffffa0803998 <sys_net_send>:
ffffffffa0803998:	67bdffe0 	daddiu	sp,sp,-32
ffffffffa080399c:	ffbe0018 	sd	s8,24(sp)
ffffffffa08039a0:	03a0f02d 	move	s8,sp
ffffffffa08039a4:	ffc40000 	sd	a0,0(s8)
ffffffffa08039a8:	ffc50008 	sd	a1,8(s8)
ffffffffa08039ac:	03c0e82d 	move	sp,s8
ffffffffa08039b0:	dfbe0018 	ld	s8,24(sp)
ffffffffa08039b4:	67bd0020 	daddiu	sp,sp,32
ffffffffa08039b8:	03e00008 	jr	ra
ffffffffa08039bc:	00000000 	nop

ffffffffa08039c0 <sys_init_mac>:
ffffffffa08039c0:	67bdfff0 	daddiu	sp,sp,-16
ffffffffa08039c4:	ffbe0008 	sd	s8,8(sp)
ffffffffa08039c8:	03a0f02d 	move	s8,sp
ffffffffa08039cc:	03c0e82d 	move	sp,s8
ffffffffa08039d0:	dfbe0008 	ld	s8,8(sp)
ffffffffa08039d4:	67bd0010 	daddiu	sp,sp,16
ffffffffa08039d8:	03e00008 	jr	ra
ffffffffa08039dc:	00000000 	nop

ffffffffa08039e0 <mbox_is_full>:
ffffffffa08039e0:	67bdffe0 	daddiu	sp,sp,-32
ffffffffa08039e4:	ffbe0018 	sd	s8,24(sp)
ffffffffa08039e8:	03a0f02d 	move	s8,sp
ffffffffa08039ec:	ffc40000 	sd	a0,0(s8)
ffffffffa08039f0:	03c0e82d 	move	sp,s8
ffffffffa08039f4:	dfbe0018 	ld	s8,24(sp)
ffffffffa08039f8:	67bd0020 	daddiu	sp,sp,32
ffffffffa08039fc:	03e00008 	jr	ra
ffffffffa0803a00:	00000000 	nop

ffffffffa0803a04 <mbox_is_empty>:
ffffffffa0803a04:	67bdffe0 	daddiu	sp,sp,-32
ffffffffa0803a08:	ffbe0018 	sd	s8,24(sp)
ffffffffa0803a0c:	03a0f02d 	move	s8,sp
ffffffffa0803a10:	ffc40000 	sd	a0,0(s8)
ffffffffa0803a14:	03c0e82d 	move	sp,s8
ffffffffa0803a18:	dfbe0018 	ld	s8,24(sp)
ffffffffa0803a1c:	67bd0020 	daddiu	sp,sp,32
ffffffffa0803a20:	03e00008 	jr	ra
ffffffffa0803a24:	00000000 	nop

ffffffffa0803a28 <init_mbox>:
ffffffffa0803a28:	67bdffe0 	daddiu	sp,sp,-32
ffffffffa0803a2c:	ffbe0018 	sd	s8,24(sp)
ffffffffa0803a30:	03a0f02d 	move	s8,sp
ffffffffa0803a34:	ffc40000 	sd	a0,0(s8)
ffffffffa0803a38:	03c0e82d 	move	sp,s8
ffffffffa0803a3c:	dfbe0018 	ld	s8,24(sp)
ffffffffa0803a40:	67bd0020 	daddiu	sp,sp,32
ffffffffa0803a44:	03e00008 	jr	ra
ffffffffa0803a48:	00000000 	nop

ffffffffa0803a4c <mbox_init>:
ffffffffa0803a4c:	67bdfff0 	daddiu	sp,sp,-16
ffffffffa0803a50:	ffbe0008 	sd	s8,8(sp)
ffffffffa0803a54:	03a0f02d 	move	s8,sp
ffffffffa0803a58:	03c0e82d 	move	sp,s8
ffffffffa0803a5c:	dfbe0008 	ld	s8,8(sp)
ffffffffa0803a60:	67bd0010 	daddiu	sp,sp,16
ffffffffa0803a64:	03e00008 	jr	ra
ffffffffa0803a68:	00000000 	nop

ffffffffa0803a6c <mbox_open>:
ffffffffa0803a6c:	67bdffe0 	daddiu	sp,sp,-32
ffffffffa0803a70:	ffbe0018 	sd	s8,24(sp)
ffffffffa0803a74:	03a0f02d 	move	s8,sp
ffffffffa0803a78:	ffc40000 	sd	a0,0(s8)
ffffffffa0803a7c:	03c0e82d 	move	sp,s8
ffffffffa0803a80:	dfbe0018 	ld	s8,24(sp)
ffffffffa0803a84:	67bd0020 	daddiu	sp,sp,32
ffffffffa0803a88:	03e00008 	jr	ra
ffffffffa0803a8c:	00000000 	nop

ffffffffa0803a90 <mbox_close>:
ffffffffa0803a90:	67bdffe0 	daddiu	sp,sp,-32
ffffffffa0803a94:	ffbe0018 	sd	s8,24(sp)
ffffffffa0803a98:	03a0f02d 	move	s8,sp
ffffffffa0803a9c:	ffc40000 	sd	a0,0(s8)
ffffffffa0803aa0:	03c0e82d 	move	sp,s8
ffffffffa0803aa4:	dfbe0018 	ld	s8,24(sp)
ffffffffa0803aa8:	67bd0020 	daddiu	sp,sp,32
ffffffffa0803aac:	03e00008 	jr	ra
ffffffffa0803ab0:	00000000 	nop

ffffffffa0803ab4 <mbox_send>:
ffffffffa0803ab4:	67bdffd0 	daddiu	sp,sp,-48
ffffffffa0803ab8:	ffbe0028 	sd	s8,40(sp)
ffffffffa0803abc:	03a0f02d 	move	s8,sp
ffffffffa0803ac0:	ffc40000 	sd	a0,0(s8)
ffffffffa0803ac4:	ffc50008 	sd	a1,8(s8)
ffffffffa0803ac8:	00c0102d 	move	v0,a2
ffffffffa0803acc:	00021000 	sll	v0,v0,0x0
ffffffffa0803ad0:	afc20010 	sw	v0,16(s8)
ffffffffa0803ad4:	03c0e82d 	move	sp,s8
ffffffffa0803ad8:	dfbe0028 	ld	s8,40(sp)
ffffffffa0803adc:	67bd0030 	daddiu	sp,sp,48
ffffffffa0803ae0:	03e00008 	jr	ra
ffffffffa0803ae4:	00000000 	nop

ffffffffa0803ae8 <mbox_recv>:
ffffffffa0803ae8:	67bdffd0 	daddiu	sp,sp,-48
ffffffffa0803aec:	ffbe0028 	sd	s8,40(sp)
ffffffffa0803af0:	03a0f02d 	move	s8,sp
ffffffffa0803af4:	ffc40000 	sd	a0,0(s8)
ffffffffa0803af8:	ffc50008 	sd	a1,8(s8)
ffffffffa0803afc:	00c0102d 	move	v0,a2
ffffffffa0803b00:	00021000 	sll	v0,v0,0x0
ffffffffa0803b04:	afc20010 	sw	v0,16(s8)
ffffffffa0803b08:	03c0e82d 	move	sp,s8
ffffffffa0803b0c:	dfbe0028 	ld	s8,40(sp)
ffffffffa0803b10:	67bd0030 	daddiu	sp,sp,48
ffffffffa0803b14:	03e00008 	jr	ra
ffffffffa0803b18:	00000000 	nop
ffffffffa0803b1c:	00000000 	nop

ffffffffa0803b20 <strlen>:
ffffffffa0803b20:	67bdffd0 	daddiu	sp,sp,-48
ffffffffa0803b24:	ffbe0028 	sd	s8,40(sp)
ffffffffa0803b28:	03a0f02d 	move	s8,sp
ffffffffa0803b2c:	ffc40010 	sd	a0,16(s8)
ffffffffa0803b30:	afc00000 	sw	zero,0(s8)
ffffffffa0803b34:	08200ed2 	j	ffffffffa0803b48 <strlen+0x28>
ffffffffa0803b38:	00000000 	nop
ffffffffa0803b3c:	8fc20000 	lw	v0,0(s8)
ffffffffa0803b40:	24420001 	addiu	v0,v0,1
ffffffffa0803b44:	afc20000 	sw	v0,0(s8)
ffffffffa0803b48:	8fc20000 	lw	v0,0(s8)
ffffffffa0803b4c:	dfc30010 	ld	v1,16(s8)
ffffffffa0803b50:	0062102d 	daddu	v0,v1,v0
ffffffffa0803b54:	80420000 	lb	v0,0(v0)
ffffffffa0803b58:	1440fff8 	bnez	v0,ffffffffa0803b3c <strlen+0x1c>
ffffffffa0803b5c:	00000000 	nop
ffffffffa0803b60:	8fc20000 	lw	v0,0(s8)
ffffffffa0803b64:	03c0e82d 	move	sp,s8
ffffffffa0803b68:	dfbe0028 	ld	s8,40(sp)
ffffffffa0803b6c:	67bd0030 	daddiu	sp,sp,48
ffffffffa0803b70:	03e00008 	jr	ra
ffffffffa0803b74:	00000000 	nop

ffffffffa0803b78 <memcpy>:
ffffffffa0803b78:	67bdffd0 	daddiu	sp,sp,-48
ffffffffa0803b7c:	ffbe0028 	sd	s8,40(sp)
ffffffffa0803b80:	03a0f02d 	move	s8,sp
ffffffffa0803b84:	ffc40000 	sd	a0,0(s8)
ffffffffa0803b88:	ffc50008 	sd	a1,8(s8)
ffffffffa0803b8c:	00c0102d 	move	v0,a2
ffffffffa0803b90:	00021000 	sll	v0,v0,0x0
ffffffffa0803b94:	afc20010 	sw	v0,16(s8)
ffffffffa0803b98:	08200ef3 	j	ffffffffa0803bcc <memcpy+0x54>
ffffffffa0803b9c:	00000000 	nop
ffffffffa0803ba0:	dfc20000 	ld	v0,0(s8)
ffffffffa0803ba4:	64430001 	daddiu	v1,v0,1
ffffffffa0803ba8:	ffc30000 	sd	v1,0(s8)
ffffffffa0803bac:	dfc30008 	ld	v1,8(s8)
ffffffffa0803bb0:	64640001 	daddiu	a0,v1,1
ffffffffa0803bb4:	ffc40008 	sd	a0,8(s8)
ffffffffa0803bb8:	90630000 	lbu	v1,0(v1)
ffffffffa0803bbc:	a0430000 	sb	v1,0(v0)
ffffffffa0803bc0:	8fc20010 	lw	v0,16(s8)
ffffffffa0803bc4:	2442ffff 	addiu	v0,v0,-1
ffffffffa0803bc8:	afc20010 	sw	v0,16(s8)
ffffffffa0803bcc:	8fc20010 	lw	v0,16(s8)
ffffffffa0803bd0:	1440fff3 	bnez	v0,ffffffffa0803ba0 <memcpy+0x28>
ffffffffa0803bd4:	00000000 	nop
ffffffffa0803bd8:	03c0e82d 	move	sp,s8
ffffffffa0803bdc:	dfbe0028 	ld	s8,40(sp)
ffffffffa0803be0:	67bd0030 	daddiu	sp,sp,48
ffffffffa0803be4:	03e00008 	jr	ra
ffffffffa0803be8:	00000000 	nop

ffffffffa0803bec <memset>:
ffffffffa0803bec:	67bdffd0 	daddiu	sp,sp,-48
ffffffffa0803bf0:	ffbe0028 	sd	s8,40(sp)
ffffffffa0803bf4:	03a0f02d 	move	s8,sp
ffffffffa0803bf8:	ffc40010 	sd	a0,16(s8)
ffffffffa0803bfc:	00a0182d 	move	v1,a1
ffffffffa0803c00:	00c0102d 	move	v0,a2
ffffffffa0803c04:	00031800 	sll	v1,v1,0x0
ffffffffa0803c08:	a3c30018 	sb	v1,24(s8)
ffffffffa0803c0c:	00021000 	sll	v0,v0,0x0
ffffffffa0803c10:	afc2001c 	sw	v0,28(s8)
ffffffffa0803c14:	dfc20010 	ld	v0,16(s8)
ffffffffa0803c18:	ffc20000 	sd	v0,0(s8)
ffffffffa0803c1c:	08200f11 	j	ffffffffa0803c44 <memset+0x58>
ffffffffa0803c20:	00000000 	nop
ffffffffa0803c24:	dfc20000 	ld	v0,0(s8)
ffffffffa0803c28:	64430001 	daddiu	v1,v0,1
ffffffffa0803c2c:	ffc30000 	sd	v1,0(s8)
ffffffffa0803c30:	93c30018 	lbu	v1,24(s8)
ffffffffa0803c34:	a0430000 	sb	v1,0(v0)
ffffffffa0803c38:	8fc2001c 	lw	v0,28(s8)
ffffffffa0803c3c:	2442ffff 	addiu	v0,v0,-1
ffffffffa0803c40:	afc2001c 	sw	v0,28(s8)
ffffffffa0803c44:	8fc2001c 	lw	v0,28(s8)
ffffffffa0803c48:	1440fff6 	bnez	v0,ffffffffa0803c24 <memset+0x38>
ffffffffa0803c4c:	00000000 	nop
ffffffffa0803c50:	03c0e82d 	move	sp,s8
ffffffffa0803c54:	dfbe0028 	ld	s8,40(sp)
ffffffffa0803c58:	67bd0030 	daddiu	sp,sp,48
ffffffffa0803c5c:	03e00008 	jr	ra
ffffffffa0803c60:	00000000 	nop

ffffffffa0803c64 <bzero>:
ffffffffa0803c64:	67bdffe0 	daddiu	sp,sp,-32
ffffffffa0803c68:	ffbf0018 	sd	ra,24(sp)
ffffffffa0803c6c:	ffbe0010 	sd	s8,16(sp)
ffffffffa0803c70:	03a0f02d 	move	s8,sp
ffffffffa0803c74:	ffc40000 	sd	a0,0(s8)
ffffffffa0803c78:	00a0102d 	move	v0,a1
ffffffffa0803c7c:	00021000 	sll	v0,v0,0x0
ffffffffa0803c80:	afc20008 	sw	v0,8(s8)
ffffffffa0803c84:	8fc20008 	lw	v0,8(s8)
ffffffffa0803c88:	dfc40000 	ld	a0,0(s8)
ffffffffa0803c8c:	0000282d 	move	a1,zero
ffffffffa0803c90:	0040302d 	move	a2,v0
ffffffffa0803c94:	0c200efb 	jal	ffffffffa0803bec <memset>
ffffffffa0803c98:	00000000 	nop
ffffffffa0803c9c:	03c0e82d 	move	sp,s8
ffffffffa0803ca0:	dfbf0018 	ld	ra,24(sp)
ffffffffa0803ca4:	dfbe0010 	ld	s8,16(sp)
ffffffffa0803ca8:	67bd0020 	daddiu	sp,sp,32
ffffffffa0803cac:	03e00008 	jr	ra
ffffffffa0803cb0:	00000000 	nop

ffffffffa0803cb4 <strcmp>:
ffffffffa0803cb4:	67bdffd0 	daddiu	sp,sp,-48
ffffffffa0803cb8:	ffbf0028 	sd	ra,40(sp)
ffffffffa0803cbc:	ffbe0020 	sd	s8,32(sp)
ffffffffa0803cc0:	03a0f02d 	move	s8,sp
ffffffffa0803cc4:	ffc40010 	sd	a0,16(s8)
ffffffffa0803cc8:	ffc50018 	sd	a1,24(s8)
ffffffffa0803ccc:	dfc40010 	ld	a0,16(s8)
ffffffffa0803cd0:	0c200ec8 	jal	ffffffffa0803b20 <strlen>
ffffffffa0803cd4:	00000000 	nop
ffffffffa0803cd8:	afc20004 	sw	v0,4(s8)
ffffffffa0803cdc:	dfc40018 	ld	a0,24(s8)
ffffffffa0803ce0:	0c200ec8 	jal	ffffffffa0803b20 <strlen>
ffffffffa0803ce4:	00000000 	nop
ffffffffa0803ce8:	afc20008 	sw	v0,8(s8)
ffffffffa0803cec:	afc00000 	sw	zero,0(s8)
ffffffffa0803cf0:	08200f5d 	j	ffffffffa0803d74 <strcmp+0xc0>
ffffffffa0803cf4:	00000000 	nop
ffffffffa0803cf8:	8fc20000 	lw	v0,0(s8)
ffffffffa0803cfc:	dfc30010 	ld	v1,16(s8)
ffffffffa0803d00:	0062102d 	daddu	v0,v1,v0
ffffffffa0803d04:	80430000 	lb	v1,0(v0)
ffffffffa0803d08:	8fc20000 	lw	v0,0(s8)
ffffffffa0803d0c:	dfc40018 	ld	a0,24(s8)
ffffffffa0803d10:	0082102d 	daddu	v0,a0,v0
ffffffffa0803d14:	80420000 	lb	v0,0(v0)
ffffffffa0803d18:	0043102a 	slt	v0,v0,v1
ffffffffa0803d1c:	10400004 	beqz	v0,ffffffffa0803d30 <strcmp+0x7c>
ffffffffa0803d20:	00000000 	nop
ffffffffa0803d24:	24020001 	li	v0,1
ffffffffa0803d28:	08200f68 	j	ffffffffa0803da0 <strcmp+0xec>
ffffffffa0803d2c:	00000000 	nop
ffffffffa0803d30:	8fc20000 	lw	v0,0(s8)
ffffffffa0803d34:	dfc30010 	ld	v1,16(s8)
ffffffffa0803d38:	0062102d 	daddu	v0,v1,v0
ffffffffa0803d3c:	80430000 	lb	v1,0(v0)
ffffffffa0803d40:	8fc20000 	lw	v0,0(s8)
ffffffffa0803d44:	dfc40018 	ld	a0,24(s8)
ffffffffa0803d48:	0082102d 	daddu	v0,a0,v0
ffffffffa0803d4c:	80420000 	lb	v0,0(v0)
ffffffffa0803d50:	0062102a 	slt	v0,v1,v0
ffffffffa0803d54:	10400004 	beqz	v0,ffffffffa0803d68 <strcmp+0xb4>
ffffffffa0803d58:	00000000 	nop
ffffffffa0803d5c:	2402ffff 	li	v0,-1
ffffffffa0803d60:	08200f68 	j	ffffffffa0803da0 <strcmp+0xec>
ffffffffa0803d64:	00000000 	nop
ffffffffa0803d68:	8fc20000 	lw	v0,0(s8)
ffffffffa0803d6c:	24420001 	addiu	v0,v0,1
ffffffffa0803d70:	afc20000 	sw	v0,0(s8)
ffffffffa0803d74:	8fc30000 	lw	v1,0(s8)
ffffffffa0803d78:	8fc20004 	lw	v0,4(s8)
ffffffffa0803d7c:	0062102a 	slt	v0,v1,v0
ffffffffa0803d80:	1440ffdd 	bnez	v0,ffffffffa0803cf8 <strcmp+0x44>
ffffffffa0803d84:	00000000 	nop
ffffffffa0803d88:	8fc30000 	lw	v1,0(s8)
ffffffffa0803d8c:	8fc20008 	lw	v0,8(s8)
ffffffffa0803d90:	0062102a 	slt	v0,v1,v0
ffffffffa0803d94:	1440ffd8 	bnez	v0,ffffffffa0803cf8 <strcmp+0x44>
ffffffffa0803d98:	00000000 	nop
ffffffffa0803d9c:	0000102d 	move	v0,zero
ffffffffa0803da0:	03c0e82d 	move	sp,s8
ffffffffa0803da4:	dfbf0028 	ld	ra,40(sp)
ffffffffa0803da8:	dfbe0020 	ld	s8,32(sp)
ffffffffa0803dac:	67bd0030 	daddiu	sp,sp,48
ffffffffa0803db0:	03e00008 	jr	ra
ffffffffa0803db4:	00000000 	nop

ffffffffa0803db8 <memcmp>:
ffffffffa0803db8:	67bdffc0 	daddiu	sp,sp,-64
ffffffffa0803dbc:	ffbe0038 	sd	s8,56(sp)
ffffffffa0803dc0:	03a0f02d 	move	s8,sp
ffffffffa0803dc4:	ffc40010 	sd	a0,16(s8)
ffffffffa0803dc8:	ffc50018 	sd	a1,24(s8)
ffffffffa0803dcc:	00c0102d 	move	v0,a2
ffffffffa0803dd0:	00021000 	sll	v0,v0,0x0
ffffffffa0803dd4:	afc20020 	sw	v0,32(s8)
ffffffffa0803dd8:	afc00000 	sw	zero,0(s8)
ffffffffa0803ddc:	08200f98 	j	ffffffffa0803e60 <memcmp+0xa8>
ffffffffa0803de0:	00000000 	nop
ffffffffa0803de4:	8fc20000 	lw	v0,0(s8)
ffffffffa0803de8:	dfc30010 	ld	v1,16(s8)
ffffffffa0803dec:	0062102d 	daddu	v0,v1,v0
ffffffffa0803df0:	80430000 	lb	v1,0(v0)
ffffffffa0803df4:	8fc20000 	lw	v0,0(s8)
ffffffffa0803df8:	dfc40018 	ld	a0,24(s8)
ffffffffa0803dfc:	0082102d 	daddu	v0,a0,v0
ffffffffa0803e00:	80420000 	lb	v0,0(v0)
ffffffffa0803e04:	0043102a 	slt	v0,v0,v1
ffffffffa0803e08:	10400004 	beqz	v0,ffffffffa0803e1c <memcmp+0x64>
ffffffffa0803e0c:	00000000 	nop
ffffffffa0803e10:	24020001 	li	v0,1
ffffffffa0803e14:	08200f9e 	j	ffffffffa0803e78 <memcmp+0xc0>
ffffffffa0803e18:	00000000 	nop
ffffffffa0803e1c:	8fc20000 	lw	v0,0(s8)
ffffffffa0803e20:	dfc30010 	ld	v1,16(s8)
ffffffffa0803e24:	0062102d 	daddu	v0,v1,v0
ffffffffa0803e28:	80430000 	lb	v1,0(v0)
ffffffffa0803e2c:	8fc20000 	lw	v0,0(s8)
ffffffffa0803e30:	dfc40018 	ld	a0,24(s8)
ffffffffa0803e34:	0082102d 	daddu	v0,a0,v0
ffffffffa0803e38:	80420000 	lb	v0,0(v0)
ffffffffa0803e3c:	0062102a 	slt	v0,v1,v0
ffffffffa0803e40:	10400004 	beqz	v0,ffffffffa0803e54 <memcmp+0x9c>
ffffffffa0803e44:	00000000 	nop
ffffffffa0803e48:	2402ffff 	li	v0,-1
ffffffffa0803e4c:	08200f9e 	j	ffffffffa0803e78 <memcmp+0xc0>
ffffffffa0803e50:	00000000 	nop
ffffffffa0803e54:	8fc20000 	lw	v0,0(s8)
ffffffffa0803e58:	24420001 	addiu	v0,v0,1
ffffffffa0803e5c:	afc20000 	sw	v0,0(s8)
ffffffffa0803e60:	8fc20000 	lw	v0,0(s8)
ffffffffa0803e64:	8fc30020 	lw	v1,32(s8)
ffffffffa0803e68:	0043102b 	sltu	v0,v0,v1
ffffffffa0803e6c:	1440ffdd 	bnez	v0,ffffffffa0803de4 <memcmp+0x2c>
ffffffffa0803e70:	00000000 	nop
ffffffffa0803e74:	0000102d 	move	v0,zero
ffffffffa0803e78:	03c0e82d 	move	sp,s8
ffffffffa0803e7c:	dfbe0038 	ld	s8,56(sp)
ffffffffa0803e80:	67bd0040 	daddiu	sp,sp,64
ffffffffa0803e84:	03e00008 	jr	ra
ffffffffa0803e88:	00000000 	nop

ffffffffa0803e8c <strcpy>:
ffffffffa0803e8c:	67bdffd0 	daddiu	sp,sp,-48
ffffffffa0803e90:	ffbf0028 	sd	ra,40(sp)
ffffffffa0803e94:	ffbe0020 	sd	s8,32(sp)
ffffffffa0803e98:	03a0f02d 	move	s8,sp
ffffffffa0803e9c:	ffc40010 	sd	a0,16(s8)
ffffffffa0803ea0:	ffc50018 	sd	a1,24(s8)
ffffffffa0803ea4:	dfc40018 	ld	a0,24(s8)
ffffffffa0803ea8:	0c200ec8 	jal	ffffffffa0803b20 <strlen>
ffffffffa0803eac:	00000000 	nop
ffffffffa0803eb0:	afc20004 	sw	v0,4(s8)
ffffffffa0803eb4:	afc00000 	sw	zero,0(s8)
ffffffffa0803eb8:	08200fbb 	j	ffffffffa0803eec <strcpy+0x60>
ffffffffa0803ebc:	00000000 	nop
ffffffffa0803ec0:	8fc20000 	lw	v0,0(s8)
ffffffffa0803ec4:	dfc30010 	ld	v1,16(s8)
ffffffffa0803ec8:	0062102d 	daddu	v0,v1,v0
ffffffffa0803ecc:	8fc30000 	lw	v1,0(s8)
ffffffffa0803ed0:	dfc40018 	ld	a0,24(s8)
ffffffffa0803ed4:	0083182d 	daddu	v1,a0,v1
ffffffffa0803ed8:	80630000 	lb	v1,0(v1)
ffffffffa0803edc:	a0430000 	sb	v1,0(v0)
ffffffffa0803ee0:	8fc20000 	lw	v0,0(s8)
ffffffffa0803ee4:	24420001 	addiu	v0,v0,1
ffffffffa0803ee8:	afc20000 	sw	v0,0(s8)
ffffffffa0803eec:	8fc30000 	lw	v1,0(s8)
ffffffffa0803ef0:	8fc20004 	lw	v0,4(s8)
ffffffffa0803ef4:	0062102a 	slt	v0,v1,v0
ffffffffa0803ef8:	1440fff1 	bnez	v0,ffffffffa0803ec0 <strcpy+0x34>
ffffffffa0803efc:	00000000 	nop
ffffffffa0803f00:	8fc20000 	lw	v0,0(s8)
ffffffffa0803f04:	dfc30010 	ld	v1,16(s8)
ffffffffa0803f08:	0062102d 	daddu	v0,v1,v0
ffffffffa0803f0c:	a0400000 	sb	zero,0(v0)
ffffffffa0803f10:	03c0e82d 	move	sp,s8
ffffffffa0803f14:	dfbf0028 	ld	ra,40(sp)
ffffffffa0803f18:	dfbe0020 	ld	s8,32(sp)
ffffffffa0803f1c:	67bd0030 	daddiu	sp,sp,48
ffffffffa0803f20:	03e00008 	jr	ra
ffffffffa0803f24:	00000000 	nop
	...

ffffffffa0803f30 <mini_strlen>:
ffffffffa0803f30:	67bdffd0 	daddiu	sp,sp,-48
ffffffffa0803f34:	ffbe0028 	sd	s8,40(sp)
ffffffffa0803f38:	03a0f02d 	move	s8,sp
ffffffffa0803f3c:	ffc40010 	sd	a0,16(s8)
ffffffffa0803f40:	afc00000 	sw	zero,0(s8)
ffffffffa0803f44:	08200fd6 	j	ffffffffa0803f58 <mini_strlen+0x28>
ffffffffa0803f48:	00000000 	nop
ffffffffa0803f4c:	8fc20000 	lw	v0,0(s8)
ffffffffa0803f50:	24420001 	addiu	v0,v0,1
ffffffffa0803f54:	afc20000 	sw	v0,0(s8)
ffffffffa0803f58:	9fc20000 	lwu	v0,0(s8)
ffffffffa0803f5c:	dfc30010 	ld	v1,16(s8)
ffffffffa0803f60:	0062102d 	daddu	v0,v1,v0
ffffffffa0803f64:	80420000 	lb	v0,0(v0)
ffffffffa0803f68:	1440fff8 	bnez	v0,ffffffffa0803f4c <mini_strlen+0x1c>
ffffffffa0803f6c:	00000000 	nop
ffffffffa0803f70:	8fc20000 	lw	v0,0(s8)
ffffffffa0803f74:	03c0e82d 	move	sp,s8
ffffffffa0803f78:	dfbe0028 	ld	s8,40(sp)
ffffffffa0803f7c:	67bd0030 	daddiu	sp,sp,48
ffffffffa0803f80:	03e00008 	jr	ra
ffffffffa0803f84:	00000000 	nop

ffffffffa0803f88 <mini_itoa>:
ffffffffa0803f88:	67bdffb0 	daddiu	sp,sp,-80
ffffffffa0803f8c:	ffbe0048 	sd	s8,72(sp)
ffffffffa0803f90:	03a0f02d 	move	s8,sp
ffffffffa0803f94:	0080502d 	move	a6,a0
ffffffffa0803f98:	00c0202d 	move	a0,a2
ffffffffa0803f9c:	00e0182d 	move	v1,a3
ffffffffa0803fa0:	ffc80030 	sd	a4,48(s8)
ffffffffa0803fa4:	0120102d 	move	v0,a5
ffffffffa0803fa8:	000a3000 	sll	a2,a6,0x0
ffffffffa0803fac:	afc60020 	sw	a2,32(s8)
ffffffffa0803fb0:	00052800 	sll	a1,a1,0x0
ffffffffa0803fb4:	afc50024 	sw	a1,36(s8)
ffffffffa0803fb8:	00042000 	sll	a0,a0,0x0
ffffffffa0803fbc:	afc40028 	sw	a0,40(s8)
ffffffffa0803fc0:	00031800 	sll	v1,v1,0x0
ffffffffa0803fc4:	afc3002c 	sw	v1,44(s8)
ffffffffa0803fc8:	00021000 	sll	v0,v0,0x0
ffffffffa0803fcc:	afc20038 	sw	v0,56(s8)
ffffffffa0803fd0:	dfc20030 	ld	v0,48(s8)
ffffffffa0803fd4:	ffc20000 	sd	v0,0(s8)
ffffffffa0803fd8:	afc00008 	sw	zero,8(s8)
ffffffffa0803fdc:	8fc20024 	lw	v0,36(s8)
ffffffffa0803fe0:	2c420011 	sltiu	v0,v0,17
ffffffffa0803fe4:	14400004 	bnez	v0,ffffffffa0803ff8 <mini_itoa+0x70>
ffffffffa0803fe8:	00000000 	nop
ffffffffa0803fec:	0000102d 	move	v0,zero
ffffffffa0803ff0:	08201083 	j	ffffffffa080420c <mini_itoa+0x284>
ffffffffa0803ff4:	00000000 	nop
ffffffffa0803ff8:	8fc20020 	lw	v0,32(s8)
ffffffffa0803ffc:	04410009 	bgez	v0,ffffffffa0804024 <mini_itoa+0x9c>
ffffffffa0804000:	00000000 	nop
ffffffffa0804004:	8fc2002c 	lw	v0,44(s8)
ffffffffa0804008:	14400006 	bnez	v0,ffffffffa0804024 <mini_itoa+0x9c>
ffffffffa080400c:	00000000 	nop
ffffffffa0804010:	24020001 	li	v0,1
ffffffffa0804014:	afc20008 	sw	v0,8(s8)
ffffffffa0804018:	8fc20020 	lw	v0,32(s8)
ffffffffa080401c:	00021023 	negu	v0,v0
ffffffffa0804020:	afc20020 	sw	v0,32(s8)
ffffffffa0804024:	8fc20020 	lw	v0,32(s8)
ffffffffa0804028:	0040182d 	move	v1,v0
ffffffffa080402c:	8fc20024 	lw	v0,36(s8)
ffffffffa0804030:	0062001b 	divu	zero,v1,v0
ffffffffa0804034:	004001f4 	teq	v0,zero,0x7
ffffffffa0804038:	00001010 	mfhi	v0
ffffffffa080403c:	afc20010 	sw	v0,16(s8)
ffffffffa0804040:	dfc20000 	ld	v0,0(s8)
ffffffffa0804044:	64430001 	daddiu	v1,v0,1
ffffffffa0804048:	ffc30000 	sd	v1,0(s8)
ffffffffa080404c:	8fc30010 	lw	v1,16(s8)
ffffffffa0804050:	2863000a 	slti	v1,v1,10
ffffffffa0804054:	10600009 	beqz	v1,ffffffffa080407c <mini_itoa+0xf4>
ffffffffa0804058:	00000000 	nop
ffffffffa080405c:	8fc30010 	lw	v1,16(s8)
ffffffffa0804060:	306300ff 	andi	v1,v1,0xff
ffffffffa0804064:	24630030 	addiu	v1,v1,48
ffffffffa0804068:	306300ff 	andi	v1,v1,0xff
ffffffffa080406c:	00031e3c 	dsll32	v1,v1,0x18
ffffffffa0804070:	00031e3f 	dsra32	v1,v1,0x18
ffffffffa0804074:	0820102e 	j	ffffffffa08040b8 <mini_itoa+0x130>
ffffffffa0804078:	00000000 	nop
ffffffffa080407c:	8fc30028 	lw	v1,40(s8)
ffffffffa0804080:	10600004 	beqz	v1,ffffffffa0804094 <mini_itoa+0x10c>
ffffffffa0804084:	00000000 	nop
ffffffffa0804088:	24030041 	li	v1,65
ffffffffa080408c:	08201026 	j	ffffffffa0804098 <mini_itoa+0x110>
ffffffffa0804090:	00000000 	nop
ffffffffa0804094:	24030061 	li	v1,97
ffffffffa0804098:	8fc40010 	lw	a0,16(s8)
ffffffffa080409c:	308400ff 	andi	a0,a0,0xff
ffffffffa08040a0:	00641821 	addu	v1,v1,a0
ffffffffa08040a4:	306300ff 	andi	v1,v1,0xff
ffffffffa08040a8:	2463fff6 	addiu	v1,v1,-10
ffffffffa08040ac:	306300ff 	andi	v1,v1,0xff
ffffffffa08040b0:	00031e3c 	dsll32	v1,v1,0x18
ffffffffa08040b4:	00031e3f 	dsra32	v1,v1,0x18
ffffffffa08040b8:	a0430000 	sb	v1,0(v0)
ffffffffa08040bc:	8fc30020 	lw	v1,32(s8)
ffffffffa08040c0:	8fc20024 	lw	v0,36(s8)
ffffffffa08040c4:	0062001b 	divu	zero,v1,v0
ffffffffa08040c8:	004001f4 	teq	v0,zero,0x7
ffffffffa08040cc:	00001810 	mfhi	v1
ffffffffa08040d0:	00001012 	mflo	v0
ffffffffa08040d4:	afc20020 	sw	v0,32(s8)
ffffffffa08040d8:	8fc20020 	lw	v0,32(s8)
ffffffffa08040dc:	1c40ffd1 	bgtz	v0,ffffffffa0804024 <mini_itoa+0x9c>
ffffffffa08040e0:	00000000 	nop
ffffffffa08040e4:	dfc30000 	ld	v1,0(s8)
ffffffffa08040e8:	dfc20030 	ld	v0,48(s8)
ffffffffa08040ec:	0062102f 	dsubu	v0,v1,v0
ffffffffa08040f0:	afc2000c 	sw	v0,12(s8)
ffffffffa08040f4:	08201047 	j	ffffffffa080411c <mini_itoa+0x194>
ffffffffa08040f8:	00000000 	nop
ffffffffa08040fc:	dfc20000 	ld	v0,0(s8)
ffffffffa0804100:	64430001 	daddiu	v1,v0,1
ffffffffa0804104:	ffc30000 	sd	v1,0(s8)
ffffffffa0804108:	24030030 	li	v1,48
ffffffffa080410c:	a0430000 	sb	v1,0(v0)
ffffffffa0804110:	8fc2000c 	lw	v0,12(s8)
ffffffffa0804114:	24420001 	addiu	v0,v0,1
ffffffffa0804118:	afc2000c 	sw	v0,12(s8)
ffffffffa080411c:	8fc3000c 	lw	v1,12(s8)
ffffffffa0804120:	8fc20038 	lw	v0,56(s8)
ffffffffa0804124:	0062102b 	sltu	v0,v1,v0
ffffffffa0804128:	1440fff4 	bnez	v0,ffffffffa08040fc <mini_itoa+0x174>
ffffffffa080412c:	00000000 	nop
ffffffffa0804130:	8fc20008 	lw	v0,8(s8)
ffffffffa0804134:	10400006 	beqz	v0,ffffffffa0804150 <mini_itoa+0x1c8>
ffffffffa0804138:	00000000 	nop
ffffffffa080413c:	dfc20000 	ld	v0,0(s8)
ffffffffa0804140:	64430001 	daddiu	v1,v0,1
ffffffffa0804144:	ffc30000 	sd	v1,0(s8)
ffffffffa0804148:	2403002d 	li	v1,45
ffffffffa080414c:	a0430000 	sb	v1,0(v0)
ffffffffa0804150:	dfc20000 	ld	v0,0(s8)
ffffffffa0804154:	a0400000 	sb	zero,0(v0)
ffffffffa0804158:	dfc30000 	ld	v1,0(s8)
ffffffffa080415c:	dfc20030 	ld	v0,48(s8)
ffffffffa0804160:	0062102f 	dsubu	v0,v1,v0
ffffffffa0804164:	afc20014 	sw	v0,20(s8)
ffffffffa0804168:	afc0000c 	sw	zero,12(s8)
ffffffffa080416c:	0820107c 	j	ffffffffa08041f0 <mini_itoa+0x268>
ffffffffa0804170:	00000000 	nop
ffffffffa0804174:	9fc2000c 	lwu	v0,12(s8)
ffffffffa0804178:	dfc30030 	ld	v1,48(s8)
ffffffffa080417c:	0062102d 	daddu	v0,v1,v0
ffffffffa0804180:	90420000 	lbu	v0,0(v0)
ffffffffa0804184:	a3c20018 	sb	v0,24(s8)
ffffffffa0804188:	9fc2000c 	lwu	v0,12(s8)
ffffffffa080418c:	dfc30030 	ld	v1,48(s8)
ffffffffa0804190:	0062102d 	daddu	v0,v1,v0
ffffffffa0804194:	8fc40014 	lw	a0,20(s8)
ffffffffa0804198:	8fc3000c 	lw	v1,12(s8)
ffffffffa080419c:	00831823 	subu	v1,a0,v1
ffffffffa08041a0:	2463ffff 	addiu	v1,v1,-1
ffffffffa08041a4:	0003183c 	dsll32	v1,v1,0x0
ffffffffa08041a8:	0003183e 	dsrl32	v1,v1,0x0
ffffffffa08041ac:	dfc40030 	ld	a0,48(s8)
ffffffffa08041b0:	0083182d 	daddu	v1,a0,v1
ffffffffa08041b4:	80630000 	lb	v1,0(v1)
ffffffffa08041b8:	a0430000 	sb	v1,0(v0)
ffffffffa08041bc:	8fc30014 	lw	v1,20(s8)
ffffffffa08041c0:	8fc2000c 	lw	v0,12(s8)
ffffffffa08041c4:	00621023 	subu	v0,v1,v0
ffffffffa08041c8:	2442ffff 	addiu	v0,v0,-1
ffffffffa08041cc:	0002103c 	dsll32	v0,v0,0x0
ffffffffa08041d0:	0002103e 	dsrl32	v0,v0,0x0
ffffffffa08041d4:	dfc30030 	ld	v1,48(s8)
ffffffffa08041d8:	0062102d 	daddu	v0,v1,v0
ffffffffa08041dc:	93c30018 	lbu	v1,24(s8)
ffffffffa08041e0:	a0430000 	sb	v1,0(v0)
ffffffffa08041e4:	8fc2000c 	lw	v0,12(s8)
ffffffffa08041e8:	24420001 	addiu	v0,v0,1
ffffffffa08041ec:	afc2000c 	sw	v0,12(s8)
ffffffffa08041f0:	8fc20014 	lw	v0,20(s8)
ffffffffa08041f4:	00021042 	srl	v0,v0,0x1
ffffffffa08041f8:	8fc3000c 	lw	v1,12(s8)
ffffffffa08041fc:	0062102b 	sltu	v0,v1,v0
ffffffffa0804200:	1440ffdc 	bnez	v0,ffffffffa0804174 <mini_itoa+0x1ec>
ffffffffa0804204:	00000000 	nop
ffffffffa0804208:	8fc20014 	lw	v0,20(s8)
ffffffffa080420c:	03c0e82d 	move	sp,s8
ffffffffa0804210:	dfbe0048 	ld	s8,72(sp)
ffffffffa0804214:	67bd0050 	daddiu	sp,sp,80
ffffffffa0804218:	03e00008 	jr	ra
ffffffffa080421c:	00000000 	nop

ffffffffa0804220 <_putc>:
ffffffffa0804220:	67bdffe0 	daddiu	sp,sp,-32
ffffffffa0804224:	ffbe0018 	sd	s8,24(sp)
ffffffffa0804228:	03a0f02d 	move	s8,sp
ffffffffa080422c:	0080102d 	move	v0,a0
ffffffffa0804230:	ffc50008 	sd	a1,8(s8)
ffffffffa0804234:	00021000 	sll	v0,v0,0x0
ffffffffa0804238:	afc20000 	sw	v0,0(s8)
ffffffffa080423c:	dfc20008 	ld	v0,8(s8)
ffffffffa0804240:	dc420008 	ld	v0,8(v0)
ffffffffa0804244:	0040182d 	move	v1,v0
ffffffffa0804248:	dfc20008 	ld	v0,8(s8)
ffffffffa080424c:	dc420000 	ld	v0,0(v0)
ffffffffa0804250:	0062102f 	dsubu	v0,v1,v0
ffffffffa0804254:	00021000 	sll	v0,v0,0x0
ffffffffa0804258:	24420001 	addiu	v0,v0,1
ffffffffa080425c:	0040182d 	move	v1,v0
ffffffffa0804260:	dfc20008 	ld	v0,8(s8)
ffffffffa0804264:	8c420010 	lw	v0,16(v0)
ffffffffa0804268:	0062102b 	sltu	v0,v1,v0
ffffffffa080426c:	14400004 	bnez	v0,ffffffffa0804280 <_putc+0x60>
ffffffffa0804270:	00000000 	nop
ffffffffa0804274:	0000102d 	move	v0,zero
ffffffffa0804278:	082010ad 	j	ffffffffa08042b4 <_putc+0x94>
ffffffffa080427c:	00000000 	nop
ffffffffa0804280:	dfc20008 	ld	v0,8(s8)
ffffffffa0804284:	dc420008 	ld	v0,8(v0)
ffffffffa0804288:	64440001 	daddiu	a0,v0,1
ffffffffa080428c:	dfc30008 	ld	v1,8(s8)
ffffffffa0804290:	fc640008 	sd	a0,8(v1)
ffffffffa0804294:	8fc30000 	lw	v1,0(s8)
ffffffffa0804298:	00031e3c 	dsll32	v1,v1,0x18
ffffffffa080429c:	00031e3f 	dsra32	v1,v1,0x18
ffffffffa08042a0:	a0430000 	sb	v1,0(v0)
ffffffffa08042a4:	dfc20008 	ld	v0,8(s8)
ffffffffa08042a8:	dc420008 	ld	v0,8(v0)
ffffffffa08042ac:	a0400000 	sb	zero,0(v0)
ffffffffa08042b0:	24020001 	li	v0,1
ffffffffa08042b4:	03c0e82d 	move	sp,s8
ffffffffa08042b8:	dfbe0018 	ld	s8,24(sp)
ffffffffa08042bc:	67bd0020 	daddiu	sp,sp,32
ffffffffa08042c0:	03e00008 	jr	ra
ffffffffa08042c4:	00000000 	nop

ffffffffa08042c8 <_puts>:
ffffffffa08042c8:	67bdffc0 	daddiu	sp,sp,-64
ffffffffa08042cc:	ffbe0038 	sd	s8,56(sp)
ffffffffa08042d0:	03a0f02d 	move	s8,sp
ffffffffa08042d4:	ffc40010 	sd	a0,16(s8)
ffffffffa08042d8:	00a0102d 	move	v0,a1
ffffffffa08042dc:	ffc60020 	sd	a2,32(s8)
ffffffffa08042e0:	00021000 	sll	v0,v0,0x0
ffffffffa08042e4:	afc20018 	sw	v0,24(s8)
ffffffffa08042e8:	dfc20020 	ld	v0,32(s8)
ffffffffa08042ec:	8c420010 	lw	v0,16(v0)
ffffffffa08042f0:	0002183c 	dsll32	v1,v0,0x0
ffffffffa08042f4:	0003183e 	dsrl32	v1,v1,0x0
ffffffffa08042f8:	dfc20020 	ld	v0,32(s8)
ffffffffa08042fc:	dc420000 	ld	v0,0(v0)
ffffffffa0804300:	0040202d 	move	a0,v0
ffffffffa0804304:	dfc20020 	ld	v0,32(s8)
ffffffffa0804308:	dc420008 	ld	v0,8(v0)
ffffffffa080430c:	0082102f 	dsubu	v0,a0,v0
ffffffffa0804310:	0062102d 	daddu	v0,v1,v0
ffffffffa0804314:	6443ffff 	daddiu	v1,v0,-1
ffffffffa0804318:	9fc20018 	lwu	v0,24(s8)
ffffffffa080431c:	0062102a 	slt	v0,v1,v0
ffffffffa0804320:	1040000e 	beqz	v0,ffffffffa080435c <_puts+0x94>
ffffffffa0804324:	00000000 	nop
ffffffffa0804328:	dfc20020 	ld	v0,32(s8)
ffffffffa080432c:	8c420010 	lw	v0,16(v0)
ffffffffa0804330:	0002183c 	dsll32	v1,v0,0x0
ffffffffa0804334:	0003183e 	dsrl32	v1,v1,0x0
ffffffffa0804338:	dfc20020 	ld	v0,32(s8)
ffffffffa080433c:	dc420000 	ld	v0,0(v0)
ffffffffa0804340:	0040202d 	move	a0,v0
ffffffffa0804344:	dfc20020 	ld	v0,32(s8)
ffffffffa0804348:	dc420008 	ld	v0,8(v0)
ffffffffa080434c:	0082102f 	dsubu	v0,a0,v0
ffffffffa0804350:	0062102d 	daddu	v0,v1,v0
ffffffffa0804354:	6442ffff 	daddiu	v0,v0,-1
ffffffffa0804358:	afc20018 	sw	v0,24(s8)
ffffffffa080435c:	afc00000 	sw	zero,0(s8)
ffffffffa0804360:	082010e7 	j	ffffffffa080439c <_puts+0xd4>
ffffffffa0804364:	00000000 	nop
ffffffffa0804368:	dfc20020 	ld	v0,32(s8)
ffffffffa080436c:	dc420008 	ld	v0,8(v0)
ffffffffa0804370:	64440001 	daddiu	a0,v0,1
ffffffffa0804374:	dfc30020 	ld	v1,32(s8)
ffffffffa0804378:	fc640008 	sd	a0,8(v1)
ffffffffa080437c:	9fc30000 	lwu	v1,0(s8)
ffffffffa0804380:	dfc40010 	ld	a0,16(s8)
ffffffffa0804384:	0083182d 	daddu	v1,a0,v1
ffffffffa0804388:	80630000 	lb	v1,0(v1)
ffffffffa080438c:	a0430000 	sb	v1,0(v0)
ffffffffa0804390:	8fc20000 	lw	v0,0(s8)
ffffffffa0804394:	24420001 	addiu	v0,v0,1
ffffffffa0804398:	afc20000 	sw	v0,0(s8)
ffffffffa080439c:	8fc30000 	lw	v1,0(s8)
ffffffffa08043a0:	8fc20018 	lw	v0,24(s8)
ffffffffa08043a4:	0062102b 	sltu	v0,v1,v0
ffffffffa08043a8:	1440ffef 	bnez	v0,ffffffffa0804368 <_puts+0xa0>
ffffffffa08043ac:	00000000 	nop
ffffffffa08043b0:	dfc20020 	ld	v0,32(s8)
ffffffffa08043b4:	dc420008 	ld	v0,8(v0)
ffffffffa08043b8:	a0400000 	sb	zero,0(v0)
ffffffffa08043bc:	8fc20018 	lw	v0,24(s8)
ffffffffa08043c0:	03c0e82d 	move	sp,s8
ffffffffa08043c4:	dfbe0038 	ld	s8,56(sp)
ffffffffa08043c8:	67bd0040 	daddiu	sp,sp,64
ffffffffa08043cc:	03e00008 	jr	ra
ffffffffa08043d0:	00000000 	nop

ffffffffa08043d4 <mini_vsnprintf>:
ffffffffa08043d4:	67bdff90 	daddiu	sp,sp,-112
ffffffffa08043d8:	ffbf0068 	sd	ra,104(sp)
ffffffffa08043dc:	ffbe0060 	sd	s8,96(sp)
ffffffffa08043e0:	03a0f02d 	move	s8,sp
ffffffffa08043e4:	ffc40040 	sd	a0,64(s8)
ffffffffa08043e8:	00a0102d 	move	v0,a1
ffffffffa08043ec:	ffc60050 	sd	a2,80(s8)
ffffffffa08043f0:	ffc70058 	sd	a3,88(s8)
ffffffffa08043f4:	00021000 	sll	v0,v0,0x0
ffffffffa08043f8:	afc20048 	sw	v0,72(s8)
ffffffffa08043fc:	dfc20040 	ld	v0,64(s8)
ffffffffa0804400:	ffc20010 	sd	v0,16(s8)
ffffffffa0804404:	dfc20040 	ld	v0,64(s8)
ffffffffa0804408:	ffc20018 	sd	v0,24(s8)
ffffffffa080440c:	8fc20048 	lw	v0,72(s8)
ffffffffa0804410:	afc20020 	sw	v0,32(s8)
ffffffffa0804414:	082011c1 	j	ffffffffa0804704 <mini_vsnprintf+0x330>
ffffffffa0804418:	00000000 	nop
ffffffffa080441c:	dfc20018 	ld	v0,24(s8)
ffffffffa0804420:	0040182d 	move	v1,v0
ffffffffa0804424:	dfc20010 	ld	v0,16(s8)
ffffffffa0804428:	0062102f 	dsubu	v0,v1,v0
ffffffffa080442c:	00021000 	sll	v0,v0,0x0
ffffffffa0804430:	24420001 	addiu	v0,v0,1
ffffffffa0804434:	0040182d 	move	v1,v0
ffffffffa0804438:	8fc20020 	lw	v0,32(s8)
ffffffffa080443c:	0062102b 	sltu	v0,v1,v0
ffffffffa0804440:	14400003 	bnez	v0,ffffffffa0804450 <mini_vsnprintf+0x7c>
ffffffffa0804444:	00000000 	nop
ffffffffa0804448:	082011cc 	j	ffffffffa0804730 <mini_vsnprintf+0x35c>
ffffffffa080444c:	00000000 	nop
ffffffffa0804450:	83c30000 	lb	v1,0(s8)
ffffffffa0804454:	24020025 	li	v0,37
ffffffffa0804458:	1062000a 	beq	v1,v0,ffffffffa0804484 <mini_vsnprintf+0xb0>
ffffffffa080445c:	00000000 	nop
ffffffffa0804460:	83c20000 	lb	v0,0(s8)
ffffffffa0804464:	0040182d 	move	v1,v0
ffffffffa0804468:	67c20010 	daddiu	v0,s8,16
ffffffffa080446c:	0060202d 	move	a0,v1
ffffffffa0804470:	0040282d 	move	a1,v0
ffffffffa0804474:	0c201088 	jal	ffffffffa0804220 <_putc>
ffffffffa0804478:	00000000 	nop
ffffffffa080447c:	082011c1 	j	ffffffffa0804704 <mini_vsnprintf+0x330>
ffffffffa0804480:	00000000 	nop
ffffffffa0804484:	a3c00001 	sb	zero,1(s8)
ffffffffa0804488:	dfc20050 	ld	v0,80(s8)
ffffffffa080448c:	64430001 	daddiu	v1,v0,1
ffffffffa0804490:	ffc30050 	sd	v1,80(s8)
ffffffffa0804494:	90420000 	lbu	v0,0(v0)
ffffffffa0804498:	a3c20000 	sb	v0,0(s8)
ffffffffa080449c:	83c30000 	lb	v1,0(s8)
ffffffffa08044a0:	24020030 	li	v0,48
ffffffffa08044a4:	1462001c 	bne	v1,v0,ffffffffa0804518 <mini_vsnprintf+0x144>
ffffffffa08044a8:	00000000 	nop
ffffffffa08044ac:	dfc20050 	ld	v0,80(s8)
ffffffffa08044b0:	64430001 	daddiu	v1,v0,1
ffffffffa08044b4:	ffc30050 	sd	v1,80(s8)
ffffffffa08044b8:	90420000 	lbu	v0,0(v0)
ffffffffa08044bc:	a3c20000 	sb	v0,0(s8)
ffffffffa08044c0:	83c20000 	lb	v0,0(s8)
ffffffffa08044c4:	14400003 	bnez	v0,ffffffffa08044d4 <mini_vsnprintf+0x100>
ffffffffa08044c8:	00000000 	nop
ffffffffa08044cc:	082011cc 	j	ffffffffa0804730 <mini_vsnprintf+0x35c>
ffffffffa08044d0:	00000000 	nop
ffffffffa08044d4:	83c20000 	lb	v0,0(s8)
ffffffffa08044d8:	28420030 	slti	v0,v0,48
ffffffffa08044dc:	14400009 	bnez	v0,ffffffffa0804504 <mini_vsnprintf+0x130>
ffffffffa08044e0:	00000000 	nop
ffffffffa08044e4:	83c20000 	lb	v0,0(s8)
ffffffffa08044e8:	2842003a 	slti	v0,v0,58
ffffffffa08044ec:	10400005 	beqz	v0,ffffffffa0804504 <mini_vsnprintf+0x130>
ffffffffa08044f0:	00000000 	nop
ffffffffa08044f4:	93c20000 	lbu	v0,0(s8)
ffffffffa08044f8:	2442ffd0 	addiu	v0,v0,-48
ffffffffa08044fc:	304200ff 	andi	v0,v0,0xff
ffffffffa0804500:	a3c20001 	sb	v0,1(s8)
ffffffffa0804504:	dfc20050 	ld	v0,80(s8)
ffffffffa0804508:	64430001 	daddiu	v1,v0,1
ffffffffa080450c:	ffc30050 	sd	v1,80(s8)
ffffffffa0804510:	90420000 	lbu	v0,0(v0)
ffffffffa0804514:	a3c20000 	sb	v0,0(s8)
ffffffffa0804518:	83c20000 	lb	v0,0(s8)
ffffffffa080451c:	24030064 	li	v1,100
ffffffffa0804520:	10430019 	beq	v0,v1,ffffffffa0804588 <mini_vsnprintf+0x1b4>
ffffffffa0804524:	00000000 	nop
ffffffffa0804528:	28430065 	slti	v1,v0,101
ffffffffa080452c:	1060000b 	beqz	v1,ffffffffa080455c <mini_vsnprintf+0x188>
ffffffffa0804530:	00000000 	nop
ffffffffa0804534:	24030058 	li	v1,88
ffffffffa0804538:	1043002f 	beq	v0,v1,ffffffffa08045f8 <mini_vsnprintf+0x224>
ffffffffa080453c:	00000000 	nop
ffffffffa0804540:	24030063 	li	v1,99
ffffffffa0804544:	10430048 	beq	v0,v1,ffffffffa0804668 <mini_vsnprintf+0x294>
ffffffffa0804548:	00000000 	nop
ffffffffa080454c:	10400077 	beqz	v0,ffffffffa080472c <mini_vsnprintf+0x358>
ffffffffa0804550:	00000000 	nop
ffffffffa0804554:	082011b9 	j	ffffffffa08046e4 <mini_vsnprintf+0x310>
ffffffffa0804558:	00000000 	nop
ffffffffa080455c:	24030075 	li	v1,117
ffffffffa0804560:	10430009 	beq	v0,v1,ffffffffa0804588 <mini_vsnprintf+0x1b4>
ffffffffa0804564:	00000000 	nop
ffffffffa0804568:	24030078 	li	v1,120
ffffffffa080456c:	10430022 	beq	v0,v1,ffffffffa08045f8 <mini_vsnprintf+0x224>
ffffffffa0804570:	00000000 	nop
ffffffffa0804574:	24030073 	li	v1,115
ffffffffa0804578:	10430049 	beq	v0,v1,ffffffffa08046a0 <mini_vsnprintf+0x2cc>
ffffffffa080457c:	00000000 	nop
ffffffffa0804580:	082011b9 	j	ffffffffa08046e4 <mini_vsnprintf+0x310>
ffffffffa0804584:	00000000 	nop
ffffffffa0804588:	dfc20058 	ld	v0,88(s8)
ffffffffa080458c:	64430008 	daddiu	v1,v0,8
ffffffffa0804590:	ffc30058 	sd	v1,88(s8)
ffffffffa0804594:	8c420000 	lw	v0,0(v0)
ffffffffa0804598:	0040202d 	move	a0,v0
ffffffffa080459c:	83c20000 	lb	v0,0(s8)
ffffffffa08045a0:	38420075 	xori	v0,v0,0x75
ffffffffa08045a4:	2c420001 	sltiu	v0,v0,1
ffffffffa08045a8:	304200ff 	andi	v0,v0,0xff
ffffffffa08045ac:	0040382d 	move	a3,v0
ffffffffa08045b0:	83c20001 	lb	v0,1(s8)
ffffffffa08045b4:	67c30028 	daddiu	v1,s8,40
ffffffffa08045b8:	2405000a 	li	a1,10
ffffffffa08045bc:	0000302d 	move	a2,zero
ffffffffa08045c0:	0060402d 	move	a4,v1
ffffffffa08045c4:	0040482d 	move	a5,v0
ffffffffa08045c8:	0c200fe2 	jal	ffffffffa0803f88 <mini_itoa>
ffffffffa08045cc:	00000000 	nop
ffffffffa08045d0:	afc20004 	sw	v0,4(s8)
ffffffffa08045d4:	67c40028 	daddiu	a0,s8,40
ffffffffa08045d8:	8fc30004 	lw	v1,4(s8)
ffffffffa08045dc:	67c20010 	daddiu	v0,s8,16
ffffffffa08045e0:	0060282d 	move	a1,v1
ffffffffa08045e4:	0040302d 	move	a2,v0
ffffffffa08045e8:	0c2010b2 	jal	ffffffffa08042c8 <_puts>
ffffffffa08045ec:	00000000 	nop
ffffffffa08045f0:	082011c1 	j	ffffffffa0804704 <mini_vsnprintf+0x330>
ffffffffa08045f4:	00000000 	nop
ffffffffa08045f8:	dfc20058 	ld	v0,88(s8)
ffffffffa08045fc:	64430008 	daddiu	v1,v0,8
ffffffffa0804600:	ffc30058 	sd	v1,88(s8)
ffffffffa0804604:	8c420000 	lw	v0,0(v0)
ffffffffa0804608:	0040202d 	move	a0,v0
ffffffffa080460c:	83c20000 	lb	v0,0(s8)
ffffffffa0804610:	38420058 	xori	v0,v0,0x58
ffffffffa0804614:	2c420001 	sltiu	v0,v0,1
ffffffffa0804618:	304200ff 	andi	v0,v0,0xff
ffffffffa080461c:	0040302d 	move	a2,v0
ffffffffa0804620:	83c20001 	lb	v0,1(s8)
ffffffffa0804624:	67c30028 	daddiu	v1,s8,40
ffffffffa0804628:	24050010 	li	a1,16
ffffffffa080462c:	24070001 	li	a3,1
ffffffffa0804630:	0060402d 	move	a4,v1
ffffffffa0804634:	0040482d 	move	a5,v0
ffffffffa0804638:	0c200fe2 	jal	ffffffffa0803f88 <mini_itoa>
ffffffffa080463c:	00000000 	nop
ffffffffa0804640:	afc20004 	sw	v0,4(s8)
ffffffffa0804644:	67c40028 	daddiu	a0,s8,40
ffffffffa0804648:	8fc30004 	lw	v1,4(s8)
ffffffffa080464c:	67c20010 	daddiu	v0,s8,16
ffffffffa0804650:	0060282d 	move	a1,v1
ffffffffa0804654:	0040302d 	move	a2,v0
ffffffffa0804658:	0c2010b2 	jal	ffffffffa08042c8 <_puts>
ffffffffa080465c:	00000000 	nop
ffffffffa0804660:	082011c1 	j	ffffffffa0804704 <mini_vsnprintf+0x330>
ffffffffa0804664:	00000000 	nop
ffffffffa0804668:	dfc20058 	ld	v0,88(s8)
ffffffffa080466c:	64430008 	daddiu	v1,v0,8
ffffffffa0804670:	ffc30058 	sd	v1,88(s8)
ffffffffa0804674:	8c420000 	lw	v0,0(v0)
ffffffffa0804678:	0002163c 	dsll32	v0,v0,0x18
ffffffffa080467c:	0002163f 	dsra32	v0,v0,0x18
ffffffffa0804680:	0040182d 	move	v1,v0
ffffffffa0804684:	67c20010 	daddiu	v0,s8,16
ffffffffa0804688:	0060202d 	move	a0,v1
ffffffffa080468c:	0040282d 	move	a1,v0
ffffffffa0804690:	0c201088 	jal	ffffffffa0804220 <_putc>
ffffffffa0804694:	00000000 	nop
ffffffffa0804698:	082011c1 	j	ffffffffa0804704 <mini_vsnprintf+0x330>
ffffffffa080469c:	00000000 	nop
ffffffffa08046a0:	dfc20058 	ld	v0,88(s8)
ffffffffa08046a4:	64430008 	daddiu	v1,v0,8
ffffffffa08046a8:	ffc30058 	sd	v1,88(s8)
ffffffffa08046ac:	dc420000 	ld	v0,0(v0)
ffffffffa08046b0:	ffc20008 	sd	v0,8(s8)
ffffffffa08046b4:	dfc40008 	ld	a0,8(s8)
ffffffffa08046b8:	0c200fcc 	jal	ffffffffa0803f30 <mini_strlen>
ffffffffa08046bc:	00000000 	nop
ffffffffa08046c0:	0040182d 	move	v1,v0
ffffffffa08046c4:	67c20010 	daddiu	v0,s8,16
ffffffffa08046c8:	dfc40008 	ld	a0,8(s8)
ffffffffa08046cc:	0060282d 	move	a1,v1
ffffffffa08046d0:	0040302d 	move	a2,v0
ffffffffa08046d4:	0c2010b2 	jal	ffffffffa08042c8 <_puts>
ffffffffa08046d8:	00000000 	nop
ffffffffa08046dc:	082011c1 	j	ffffffffa0804704 <mini_vsnprintf+0x330>
ffffffffa08046e0:	00000000 	nop
ffffffffa08046e4:	83c20000 	lb	v0,0(s8)
ffffffffa08046e8:	0040182d 	move	v1,v0
ffffffffa08046ec:	67c20010 	daddiu	v0,s8,16
ffffffffa08046f0:	0060202d 	move	a0,v1
ffffffffa08046f4:	0040282d 	move	a1,v0
ffffffffa08046f8:	0c201088 	jal	ffffffffa0804220 <_putc>
ffffffffa08046fc:	00000000 	nop
ffffffffa0804700:	00000000 	nop
ffffffffa0804704:	dfc20050 	ld	v0,80(s8)
ffffffffa0804708:	64430001 	daddiu	v1,v0,1
ffffffffa080470c:	ffc30050 	sd	v1,80(s8)
ffffffffa0804710:	90420000 	lbu	v0,0(v0)
ffffffffa0804714:	a3c20000 	sb	v0,0(s8)
ffffffffa0804718:	83c20000 	lb	v0,0(s8)
ffffffffa080471c:	1440ff3f 	bnez	v0,ffffffffa080441c <mini_vsnprintf+0x48>
ffffffffa0804720:	00000000 	nop
ffffffffa0804724:	082011cc 	j	ffffffffa0804730 <mini_vsnprintf+0x35c>
ffffffffa0804728:	00000000 	nop
ffffffffa080472c:	00000000 	nop
ffffffffa0804730:	dfc20018 	ld	v0,24(s8)
ffffffffa0804734:	0040182d 	move	v1,v0
ffffffffa0804738:	dfc20010 	ld	v0,16(s8)
ffffffffa080473c:	0062102f 	dsubu	v0,v1,v0
ffffffffa0804740:	00021000 	sll	v0,v0,0x0
ffffffffa0804744:	03c0e82d 	move	sp,s8
ffffffffa0804748:	dfbf0068 	ld	ra,104(sp)
ffffffffa080474c:	dfbe0060 	ld	s8,96(sp)
ffffffffa0804750:	67bd0070 	daddiu	sp,sp,112
ffffffffa0804754:	03e00008 	jr	ra
ffffffffa0804758:	00000000 	nop

ffffffffa080475c <printk>:
ffffffffa080475c:	67bdfe90 	daddiu	sp,sp,-368
ffffffffa0804760:	ffbf0128 	sd	ra,296(sp)
ffffffffa0804764:	ffbe0120 	sd	s8,288(sp)
ffffffffa0804768:	03a0f02d 	move	s8,sp
ffffffffa080476c:	ffc50138 	sd	a1,312(s8)
ffffffffa0804770:	ffc60140 	sd	a2,320(s8)
ffffffffa0804774:	ffc70148 	sd	a3,328(s8)
ffffffffa0804778:	ffc80150 	sd	a4,336(s8)
ffffffffa080477c:	ffc90158 	sd	a5,344(s8)
ffffffffa0804780:	ffca0160 	sd	a6,352(s8)
ffffffffa0804784:	ffcb0168 	sd	a7,360(s8)
ffffffffa0804788:	ffc40110 	sd	a0,272(s8)
ffffffffa080478c:	67c20170 	daddiu	v0,s8,368
ffffffffa0804790:	6442ffc8 	daddiu	v0,v0,-56
ffffffffa0804794:	ffc20008 	sd	v0,8(s8)
ffffffffa0804798:	dfc20008 	ld	v0,8(s8)
ffffffffa080479c:	67c30010 	daddiu	v1,s8,16
ffffffffa08047a0:	0060202d 	move	a0,v1
ffffffffa08047a4:	24050100 	li	a1,256
ffffffffa08047a8:	dfc60110 	ld	a2,272(s8)
ffffffffa08047ac:	0040382d 	move	a3,v0
ffffffffa08047b0:	0c2010f5 	jal	ffffffffa08043d4 <mini_vsnprintf>
ffffffffa08047b4:	00000000 	nop
ffffffffa08047b8:	afc20000 	sw	v0,0(s8)
ffffffffa08047bc:	8fc20000 	lw	v0,0(s8)
ffffffffa08047c0:	03c2102d 	daddu	v0,s8,v0
ffffffffa08047c4:	a0400010 	sb	zero,16(v0)
ffffffffa08047c8:	67c20010 	daddiu	v0,s8,16
ffffffffa08047cc:	0040202d 	move	a0,v0
ffffffffa08047d0:	0c200116 	jal	ffffffffa0800458 <port_write>
ffffffffa08047d4:	00000000 	nop
ffffffffa08047d8:	8fc20000 	lw	v0,0(s8)
ffffffffa08047dc:	03c0e82d 	move	sp,s8
ffffffffa08047e0:	dfbf0128 	ld	ra,296(sp)
ffffffffa08047e4:	dfbe0120 	ld	s8,288(sp)
ffffffffa08047e8:	67bd0170 	daddiu	sp,sp,368
ffffffffa08047ec:	03e00008 	jr	ra
ffffffffa08047f0:	00000000 	nop

ffffffffa08047f4 <printf>:
ffffffffa08047f4:	67bdfe90 	daddiu	sp,sp,-368
ffffffffa08047f8:	ffbf0128 	sd	ra,296(sp)
ffffffffa08047fc:	ffbe0120 	sd	s8,288(sp)
ffffffffa0804800:	03a0f02d 	move	s8,sp
ffffffffa0804804:	ffc50138 	sd	a1,312(s8)
ffffffffa0804808:	ffc60140 	sd	a2,320(s8)
ffffffffa080480c:	ffc70148 	sd	a3,328(s8)
ffffffffa0804810:	ffc80150 	sd	a4,336(s8)
ffffffffa0804814:	ffc90158 	sd	a5,344(s8)
ffffffffa0804818:	ffca0160 	sd	a6,352(s8)
ffffffffa080481c:	ffcb0168 	sd	a7,360(s8)
ffffffffa0804820:	ffc40110 	sd	a0,272(s8)
ffffffffa0804824:	67c20170 	daddiu	v0,s8,368
ffffffffa0804828:	6442ffc8 	daddiu	v0,v0,-56
ffffffffa080482c:	ffc20008 	sd	v0,8(s8)
ffffffffa0804830:	dfc20008 	ld	v0,8(s8)
ffffffffa0804834:	67c30010 	daddiu	v1,s8,16
ffffffffa0804838:	0060202d 	move	a0,v1
ffffffffa080483c:	24050100 	li	a1,256
ffffffffa0804840:	dfc60110 	ld	a2,272(s8)
ffffffffa0804844:	0040382d 	move	a3,v0
ffffffffa0804848:	0c2010f5 	jal	ffffffffa08043d4 <mini_vsnprintf>
ffffffffa080484c:	00000000 	nop
ffffffffa0804850:	afc20000 	sw	v0,0(s8)
ffffffffa0804854:	8fc20000 	lw	v0,0(s8)
ffffffffa0804858:	03c2102d 	daddu	v0,s8,v0
ffffffffa080485c:	a0400010 	sb	zero,16(v0)
ffffffffa0804860:	67c20010 	daddiu	v0,s8,16
ffffffffa0804864:	0040202d 	move	a0,v0
ffffffffa0804868:	0c200d26 	jal	ffffffffa0803498 <sys_write>
ffffffffa080486c:	00000000 	nop
ffffffffa0804870:	8fc20000 	lw	v0,0(s8)
ffffffffa0804874:	03c0e82d 	move	sp,s8
ffffffffa0804878:	dfbf0128 	ld	ra,296(sp)
ffffffffa080487c:	dfbe0120 	ld	s8,288(sp)
ffffffffa0804880:	67bd0170 	daddiu	sp,sp,368
ffffffffa0804884:	03e00008 	jr	ra
ffffffffa0804888:	00000000 	nop

ffffffffa080488c <kprintf>:
ffffffffa080488c:	67bdfe90 	daddiu	sp,sp,-368
ffffffffa0804890:	ffbf0128 	sd	ra,296(sp)
ffffffffa0804894:	ffbe0120 	sd	s8,288(sp)
ffffffffa0804898:	03a0f02d 	move	s8,sp
ffffffffa080489c:	ffc50138 	sd	a1,312(s8)
ffffffffa08048a0:	ffc60140 	sd	a2,320(s8)
ffffffffa08048a4:	ffc70148 	sd	a3,328(s8)
ffffffffa08048a8:	ffc80150 	sd	a4,336(s8)
ffffffffa08048ac:	ffc90158 	sd	a5,344(s8)
ffffffffa08048b0:	ffca0160 	sd	a6,352(s8)
ffffffffa08048b4:	ffcb0168 	sd	a7,360(s8)
ffffffffa08048b8:	ffc40110 	sd	a0,272(s8)
ffffffffa08048bc:	67c20170 	daddiu	v0,s8,368
ffffffffa08048c0:	6442ffc8 	daddiu	v0,v0,-56
ffffffffa08048c4:	ffc20008 	sd	v0,8(s8)
ffffffffa08048c8:	dfc20008 	ld	v0,8(s8)
ffffffffa08048cc:	67c30010 	daddiu	v1,s8,16
ffffffffa08048d0:	0060202d 	move	a0,v1
ffffffffa08048d4:	24050100 	li	a1,256
ffffffffa08048d8:	dfc60110 	ld	a2,272(s8)
ffffffffa08048dc:	0040382d 	move	a3,v0
ffffffffa08048e0:	0c2010f5 	jal	ffffffffa08043d4 <mini_vsnprintf>
ffffffffa08048e4:	00000000 	nop
ffffffffa08048e8:	afc20000 	sw	v0,0(s8)
ffffffffa08048ec:	8fc20000 	lw	v0,0(s8)
ffffffffa08048f0:	03c2102d 	daddu	v0,s8,v0
ffffffffa08048f4:	a0400010 	sb	zero,16(v0)
ffffffffa08048f8:	67c20010 	daddiu	v0,s8,16
ffffffffa08048fc:	0040202d 	move	a0,v0
ffffffffa0804900:	0c2003fc 	jal	ffffffffa0800ff0 <screen_write>
ffffffffa0804904:	00000000 	nop
ffffffffa0804908:	0c2004a5 	jal	ffffffffa0801294 <screen_reflush_shell>
ffffffffa080490c:	00000000 	nop
ffffffffa0804910:	8fc20000 	lw	v0,0(s8)
ffffffffa0804914:	03c0e82d 	move	sp,s8
ffffffffa0804918:	dfbf0128 	ld	ra,296(sp)
ffffffffa080491c:	dfbe0120 	ld	s8,288(sp)
ffffffffa0804920:	67bd0170 	daddiu	sp,sp,368
ffffffffa0804924:	03e00008 	jr	ra
ffffffffa0804928:	00000000 	nop
ffffffffa080492c:	00000000 	nop

ffffffffa0804930 <read_uart_ch>:
ffffffffa0804930:	67bdffd0 	daddiu	sp,sp,-48
ffffffffa0804934:	ffbe0028 	sd	s8,40(sp)
ffffffffa0804938:	03a0f02d 	move	s8,sp
ffffffffa080493c:	a3c00000 	sb	zero,0(s8)
ffffffffa0804940:	3c02bfe0 	lui	v0,0xbfe0
ffffffffa0804944:	ffc20008 	sd	v0,8(s8)
ffffffffa0804948:	3c02bfe0 	lui	v0,0xbfe0
ffffffffa080494c:	34420005 	ori	v0,v0,0x5
ffffffffa0804950:	ffc20010 	sd	v0,16(s8)
ffffffffa0804954:	dfc20010 	ld	v0,16(s8)
ffffffffa0804958:	90420000 	lbu	v0,0(v0)
ffffffffa080495c:	30420001 	andi	v0,v0,0x1
ffffffffa0804960:	10400004 	beqz	v0,ffffffffa0804974 <read_uart_ch+0x44>
ffffffffa0804964:	00000000 	nop
ffffffffa0804968:	dfc20008 	ld	v0,8(s8)
ffffffffa080496c:	90420000 	lbu	v0,0(v0)
ffffffffa0804970:	a3c20000 	sb	v0,0(s8)
ffffffffa0804974:	83c20000 	lb	v0,0(s8)
ffffffffa0804978:	14400004 	bnez	v0,ffffffffa080498c <read_uart_ch+0x5c>
ffffffffa080497c:	00000000 	nop
ffffffffa0804980:	00000000 	nop
ffffffffa0804984:	08201264 	j	ffffffffa0804990 <read_uart_ch+0x60>
ffffffffa0804988:	00000000 	nop
ffffffffa080498c:	83c20000 	lb	v0,0(s8)
ffffffffa0804990:	03c0e82d 	move	sp,s8
ffffffffa0804994:	dfbe0028 	ld	s8,40(sp)
ffffffffa0804998:	67bd0030 	daddiu	sp,sp,48
ffffffffa080499c:	03e00008 	jr	ra
ffffffffa08049a0:	00000000 	nop

ffffffffa08049a4 <test_shell>:
ffffffffa08049a4:	67bdff90 	daddiu	sp,sp,-112
ffffffffa08049a8:	ffbf0068 	sd	ra,104(sp)
ffffffffa08049ac:	ffbe0060 	sd	s8,96(sp)
ffffffffa08049b0:	03a0f02d 	move	s8,sp
ffffffffa08049b4:	3c020000 	lui	v0,0x0
ffffffffa08049b8:	64420000 	daddiu	v0,v0,0
ffffffffa08049bc:	00021438 	dsll	v0,v0,0x10
ffffffffa08049c0:	6442a081 	daddiu	v0,v0,-24447
ffffffffa08049c4:	00021438 	dsll	v0,v0,0x10
ffffffffa08049c8:	dc438380 	ld	v1,-31872(v0)
ffffffffa08049cc:	3c020000 	lui	v0,0x0
ffffffffa08049d0:	64420000 	daddiu	v0,v0,0
ffffffffa08049d4:	00021438 	dsll	v0,v0,0x10
ffffffffa08049d8:	6442a080 	daddiu	v0,v0,-24448
ffffffffa08049dc:	00021438 	dsll	v0,v0,0x10
ffffffffa08049e0:	64447290 	daddiu	a0,v0,29328
ffffffffa08049e4:	0060282d 	move	a1,v1
ffffffffa08049e8:	0c201223 	jal	ffffffffa080488c <kprintf>
ffffffffa08049ec:	00000000 	nop
ffffffffa08049f0:	3c020000 	lui	v0,0x0
ffffffffa08049f4:	64420000 	daddiu	v0,v0,0
ffffffffa08049f8:	00021438 	dsll	v0,v0,0x10
ffffffffa08049fc:	6442a081 	daddiu	v0,v0,-24447
ffffffffa0804a00:	00021438 	dsll	v0,v0,0x10
ffffffffa0804a04:	dc438388 	ld	v1,-31864(v0)
ffffffffa0804a08:	3c020000 	lui	v0,0x0
ffffffffa0804a0c:	64420000 	daddiu	v0,v0,0
ffffffffa0804a10:	00021438 	dsll	v0,v0,0x10
ffffffffa0804a14:	6442a080 	daddiu	v0,v0,-24448
ffffffffa0804a18:	00021438 	dsll	v0,v0,0x10
ffffffffa0804a1c:	64447298 	daddiu	a0,v0,29336
ffffffffa0804a20:	0060282d 	move	a1,v1
ffffffffa0804a24:	0c201223 	jal	ffffffffa080488c <kprintf>
ffffffffa0804a28:	00000000 	nop
ffffffffa0804a2c:	ffc00030 	sd	zero,48(s8)
ffffffffa0804a30:	ffc00038 	sd	zero,56(s8)
ffffffffa0804a34:	ffc00040 	sd	zero,64(s8)
ffffffffa0804a38:	ffc00048 	sd	zero,72(s8)
ffffffffa0804a3c:	ffc00050 	sd	zero,80(s8)
ffffffffa0804a40:	afc00008 	sw	zero,8(s8)
ffffffffa0804a44:	0c20124c 	jal	ffffffffa0804930 <read_uart_ch>
ffffffffa0804a48:	00000000 	nop
ffffffffa0804a4c:	a3c2001c 	sb	v0,28(s8)
ffffffffa0804a50:	83c3001c 	lb	v1,28(s8)
ffffffffa0804a54:	2402000d 	li	v0,13
ffffffffa0804a58:	10620031 	beq	v1,v0,ffffffffa0804b20 <test_shell+0x17c>
ffffffffa0804a5c:	00000000 	nop
ffffffffa0804a60:	83c3001c 	lb	v1,28(s8)
ffffffffa0804a64:	24020008 	li	v0,8
ffffffffa0804a68:	14620016 	bne	v1,v0,ffffffffa0804ac4 <test_shell+0x120>
ffffffffa0804a6c:	00000000 	nop
ffffffffa0804a70:	8fc20008 	lw	v0,8(s8)
ffffffffa0804a74:	1840023e 	blez	v0,ffffffffa0805370 <test_shell+0x9cc>
ffffffffa0804a78:	00000000 	nop
ffffffffa0804a7c:	83c2001c 	lb	v0,28(s8)
ffffffffa0804a80:	0040182d 	move	v1,v0
ffffffffa0804a84:	3c020000 	lui	v0,0x0
ffffffffa0804a88:	64420000 	daddiu	v0,v0,0
ffffffffa0804a8c:	00021438 	dsll	v0,v0,0x10
ffffffffa0804a90:	6442a080 	daddiu	v0,v0,-24448
ffffffffa0804a94:	00021438 	dsll	v0,v0,0x10
ffffffffa0804a98:	644472a0 	daddiu	a0,v0,29344
ffffffffa0804a9c:	0060282d 	move	a1,v1
ffffffffa0804aa0:	0c201223 	jal	ffffffffa080488c <kprintf>
ffffffffa0804aa4:	00000000 	nop
ffffffffa0804aa8:	8fc20008 	lw	v0,8(s8)
ffffffffa0804aac:	2443ffff 	addiu	v1,v0,-1
ffffffffa0804ab0:	afc30008 	sw	v1,8(s8)
ffffffffa0804ab4:	03c2102d 	daddu	v0,s8,v0
ffffffffa0804ab8:	a0400030 	sb	zero,48(v0)
ffffffffa0804abc:	082014dc 	j	ffffffffa0805370 <test_shell+0x9cc>
ffffffffa0804ac0:	00000000 	nop
ffffffffa0804ac4:	8fc20008 	lw	v0,8(s8)
ffffffffa0804ac8:	28420028 	slti	v0,v0,40
ffffffffa0804acc:	10400228 	beqz	v0,ffffffffa0805370 <test_shell+0x9cc>
ffffffffa0804ad0:	00000000 	nop
ffffffffa0804ad4:	83c2001c 	lb	v0,28(s8)
ffffffffa0804ad8:	0040182d 	move	v1,v0
ffffffffa0804adc:	3c020000 	lui	v0,0x0
ffffffffa0804ae0:	64420000 	daddiu	v0,v0,0
ffffffffa0804ae4:	00021438 	dsll	v0,v0,0x10
ffffffffa0804ae8:	6442a080 	daddiu	v0,v0,-24448
ffffffffa0804aec:	00021438 	dsll	v0,v0,0x10
ffffffffa0804af0:	644472a0 	daddiu	a0,v0,29344
ffffffffa0804af4:	0060282d 	move	a1,v1
ffffffffa0804af8:	0c201223 	jal	ffffffffa080488c <kprintf>
ffffffffa0804afc:	00000000 	nop
ffffffffa0804b00:	8fc20008 	lw	v0,8(s8)
ffffffffa0804b04:	24430001 	addiu	v1,v0,1
ffffffffa0804b08:	afc30008 	sw	v1,8(s8)
ffffffffa0804b0c:	03c2102d 	daddu	v0,s8,v0
ffffffffa0804b10:	93c3001c 	lbu	v1,28(s8)
ffffffffa0804b14:	a0430030 	sb	v1,48(v0)
ffffffffa0804b18:	082014dc 	j	ffffffffa0805370 <test_shell+0x9cc>
ffffffffa0804b1c:	00000000 	nop
ffffffffa0804b20:	83c2001c 	lb	v0,28(s8)
ffffffffa0804b24:	0040182d 	move	v1,v0
ffffffffa0804b28:	3c020000 	lui	v0,0x0
ffffffffa0804b2c:	64420000 	daddiu	v0,v0,0
ffffffffa0804b30:	00021438 	dsll	v0,v0,0x10
ffffffffa0804b34:	6442a080 	daddiu	v0,v0,-24448
ffffffffa0804b38:	00021438 	dsll	v0,v0,0x10
ffffffffa0804b3c:	644472a0 	daddiu	a0,v0,29344
ffffffffa0804b40:	0060282d 	move	a1,v1
ffffffffa0804b44:	0c201223 	jal	ffffffffa080488c <kprintf>
ffffffffa0804b48:	00000000 	nop
ffffffffa0804b4c:	8fc20008 	lw	v0,8(s8)
ffffffffa0804b50:	03c2102d 	daddu	v0,s8,v0
ffffffffa0804b54:	a0400030 	sb	zero,48(v0)
ffffffffa0804b58:	67c20030 	daddiu	v0,s8,48
ffffffffa0804b5c:	0040202d 	move	a0,v0
ffffffffa0804b60:	3c020000 	lui	v0,0x0
ffffffffa0804b64:	64420000 	daddiu	v0,v0,0
ffffffffa0804b68:	00021438 	dsll	v0,v0,0x10
ffffffffa0804b6c:	6442a080 	daddiu	v0,v0,-24448
ffffffffa0804b70:	00021438 	dsll	v0,v0,0x10
ffffffffa0804b74:	644572a8 	daddiu	a1,v0,29352
ffffffffa0804b78:	24060002 	li	a2,2
ffffffffa0804b7c:	0c200f6e 	jal	ffffffffa0803db8 <memcmp>
ffffffffa0804b80:	00000000 	nop
ffffffffa0804b84:	14400017 	bnez	v0,ffffffffa0804be4 <test_shell+0x240>
ffffffffa0804b88:	00000000 	nop
ffffffffa0804b8c:	83c20032 	lb	v0,50(s8)
ffffffffa0804b90:	14400014 	bnez	v0,ffffffffa0804be4 <test_shell+0x240>
ffffffffa0804b94:	00000000 	nop
ffffffffa0804b98:	0c200b4c 	jal	ffffffffa0802d30 <do_process_show>
ffffffffa0804b9c:	00000000 	nop
ffffffffa0804ba0:	3c020000 	lui	v0,0x0
ffffffffa0804ba4:	64420000 	daddiu	v0,v0,0
ffffffffa0804ba8:	00021438 	dsll	v0,v0,0x10
ffffffffa0804bac:	6442a081 	daddiu	v0,v0,-24447
ffffffffa0804bb0:	00021438 	dsll	v0,v0,0x10
ffffffffa0804bb4:	dc438388 	ld	v1,-31864(v0)
ffffffffa0804bb8:	3c020000 	lui	v0,0x0
ffffffffa0804bbc:	64420000 	daddiu	v0,v0,0
ffffffffa0804bc0:	00021438 	dsll	v0,v0,0x10
ffffffffa0804bc4:	6442a080 	daddiu	v0,v0,-24448
ffffffffa0804bc8:	00021438 	dsll	v0,v0,0x10
ffffffffa0804bcc:	64447298 	daddiu	a0,v0,29336
ffffffffa0804bd0:	0060282d 	move	a1,v1
ffffffffa0804bd4:	0c201223 	jal	ffffffffa080488c <kprintf>
ffffffffa0804bd8:	00000000 	nop
ffffffffa0804bdc:	082014db 	j	ffffffffa080536c <test_shell+0x9c8>
ffffffffa0804be0:	00000000 	nop
ffffffffa0804be4:	67c20030 	daddiu	v0,s8,48
ffffffffa0804be8:	0040202d 	move	a0,v0
ffffffffa0804bec:	3c020000 	lui	v0,0x0
ffffffffa0804bf0:	64420000 	daddiu	v0,v0,0
ffffffffa0804bf4:	00021438 	dsll	v0,v0,0x10
ffffffffa0804bf8:	6442a080 	daddiu	v0,v0,-24448
ffffffffa0804bfc:	00021438 	dsll	v0,v0,0x10
ffffffffa0804c00:	644572b0 	daddiu	a1,v0,29360
ffffffffa0804c04:	24060005 	li	a2,5
ffffffffa0804c08:	0c200f6e 	jal	ffffffffa0803db8 <memcmp>
ffffffffa0804c0c:	00000000 	nop
ffffffffa0804c10:	1440002c 	bnez	v0,ffffffffa0804cc4 <test_shell+0x320>
ffffffffa0804c14:	00000000 	nop
ffffffffa0804c18:	83c20035 	lb	v0,53(s8)
ffffffffa0804c1c:	14400029 	bnez	v0,ffffffffa0804cc4 <test_shell+0x320>
ffffffffa0804c20:	00000000 	nop
ffffffffa0804c24:	24040012 	li	a0,18
ffffffffa0804c28:	2405001e 	li	a1,30
ffffffffa0804c2c:	0c20039b 	jal	ffffffffa0800e6c <screen_clear_shell>
ffffffffa0804c30:	00000000 	nop
ffffffffa0804c34:	0000202d 	move	a0,zero
ffffffffa0804c38:	24050012 	li	a1,18
ffffffffa0804c3c:	0c2003e0 	jal	ffffffffa0800f80 <screen_move_cursor>
ffffffffa0804c40:	00000000 	nop
ffffffffa0804c44:	3c020000 	lui	v0,0x0
ffffffffa0804c48:	64420000 	daddiu	v0,v0,0
ffffffffa0804c4c:	00021438 	dsll	v0,v0,0x10
ffffffffa0804c50:	6442a081 	daddiu	v0,v0,-24447
ffffffffa0804c54:	00021438 	dsll	v0,v0,0x10
ffffffffa0804c58:	dc438380 	ld	v1,-31872(v0)
ffffffffa0804c5c:	3c020000 	lui	v0,0x0
ffffffffa0804c60:	64420000 	daddiu	v0,v0,0
ffffffffa0804c64:	00021438 	dsll	v0,v0,0x10
ffffffffa0804c68:	6442a080 	daddiu	v0,v0,-24448
ffffffffa0804c6c:	00021438 	dsll	v0,v0,0x10
ffffffffa0804c70:	64447290 	daddiu	a0,v0,29328
ffffffffa0804c74:	0060282d 	move	a1,v1
ffffffffa0804c78:	0c201223 	jal	ffffffffa080488c <kprintf>
ffffffffa0804c7c:	00000000 	nop
ffffffffa0804c80:	3c020000 	lui	v0,0x0
ffffffffa0804c84:	64420000 	daddiu	v0,v0,0
ffffffffa0804c88:	00021438 	dsll	v0,v0,0x10
ffffffffa0804c8c:	6442a081 	daddiu	v0,v0,-24447
ffffffffa0804c90:	00021438 	dsll	v0,v0,0x10
ffffffffa0804c94:	dc438388 	ld	v1,-31864(v0)
ffffffffa0804c98:	3c020000 	lui	v0,0x0
ffffffffa0804c9c:	64420000 	daddiu	v0,v0,0
ffffffffa0804ca0:	00021438 	dsll	v0,v0,0x10
ffffffffa0804ca4:	6442a080 	daddiu	v0,v0,-24448
ffffffffa0804ca8:	00021438 	dsll	v0,v0,0x10
ffffffffa0804cac:	64447298 	daddiu	a0,v0,29336
ffffffffa0804cb0:	0060282d 	move	a1,v1
ffffffffa0804cb4:	0c201223 	jal	ffffffffa080488c <kprintf>
ffffffffa0804cb8:	00000000 	nop
ffffffffa0804cbc:	082014db 	j	ffffffffa080536c <test_shell+0x9c8>
ffffffffa0804cc0:	00000000 	nop
ffffffffa0804cc4:	67c20030 	daddiu	v0,s8,48
ffffffffa0804cc8:	0040202d 	move	a0,v0
ffffffffa0804ccc:	3c020000 	lui	v0,0x0
ffffffffa0804cd0:	64420000 	daddiu	v0,v0,0
ffffffffa0804cd4:	00021438 	dsll	v0,v0,0x10
ffffffffa0804cd8:	6442a080 	daddiu	v0,v0,-24448
ffffffffa0804cdc:	00021438 	dsll	v0,v0,0x10
ffffffffa0804ce0:	644572b8 	daddiu	a1,v0,29368
ffffffffa0804ce4:	24060009 	li	a2,9
ffffffffa0804ce8:	0c200f6e 	jal	ffffffffa0803db8 <memcmp>
ffffffffa0804cec:	00000000 	nop
ffffffffa0804cf0:	1440002c 	bnez	v0,ffffffffa0804da4 <test_shell+0x400>
ffffffffa0804cf4:	00000000 	nop
ffffffffa0804cf8:	83c20039 	lb	v0,57(s8)
ffffffffa0804cfc:	14400029 	bnez	v0,ffffffffa0804da4 <test_shell+0x400>
ffffffffa0804d00:	00000000 	nop
ffffffffa0804d04:	24040001 	li	a0,1
ffffffffa0804d08:	2405001e 	li	a1,30
ffffffffa0804d0c:	0c200356 	jal	ffffffffa0800d58 <screen_clear>
ffffffffa0804d10:	00000000 	nop
ffffffffa0804d14:	0000202d 	move	a0,zero
ffffffffa0804d18:	24050012 	li	a1,18
ffffffffa0804d1c:	0c2003e0 	jal	ffffffffa0800f80 <screen_move_cursor>
ffffffffa0804d20:	00000000 	nop
ffffffffa0804d24:	3c020000 	lui	v0,0x0
ffffffffa0804d28:	64420000 	daddiu	v0,v0,0
ffffffffa0804d2c:	00021438 	dsll	v0,v0,0x10
ffffffffa0804d30:	6442a081 	daddiu	v0,v0,-24447
ffffffffa0804d34:	00021438 	dsll	v0,v0,0x10
ffffffffa0804d38:	dc438380 	ld	v1,-31872(v0)
ffffffffa0804d3c:	3c020000 	lui	v0,0x0
ffffffffa0804d40:	64420000 	daddiu	v0,v0,0
ffffffffa0804d44:	00021438 	dsll	v0,v0,0x10
ffffffffa0804d48:	6442a080 	daddiu	v0,v0,-24448
ffffffffa0804d4c:	00021438 	dsll	v0,v0,0x10
ffffffffa0804d50:	64447290 	daddiu	a0,v0,29328
ffffffffa0804d54:	0060282d 	move	a1,v1
ffffffffa0804d58:	0c201223 	jal	ffffffffa080488c <kprintf>
ffffffffa0804d5c:	00000000 	nop
ffffffffa0804d60:	3c020000 	lui	v0,0x0
ffffffffa0804d64:	64420000 	daddiu	v0,v0,0
ffffffffa0804d68:	00021438 	dsll	v0,v0,0x10
ffffffffa0804d6c:	6442a081 	daddiu	v0,v0,-24447
ffffffffa0804d70:	00021438 	dsll	v0,v0,0x10
ffffffffa0804d74:	dc438388 	ld	v1,-31864(v0)
ffffffffa0804d78:	3c020000 	lui	v0,0x0
ffffffffa0804d7c:	64420000 	daddiu	v0,v0,0
ffffffffa0804d80:	00021438 	dsll	v0,v0,0x10
ffffffffa0804d84:	6442a080 	daddiu	v0,v0,-24448
ffffffffa0804d88:	00021438 	dsll	v0,v0,0x10
ffffffffa0804d8c:	64447298 	daddiu	a0,v0,29336
ffffffffa0804d90:	0060282d 	move	a1,v1
ffffffffa0804d94:	0c201223 	jal	ffffffffa080488c <kprintf>
ffffffffa0804d98:	00000000 	nop
ffffffffa0804d9c:	082014db 	j	ffffffffa080536c <test_shell+0x9c8>
ffffffffa0804da0:	00000000 	nop
ffffffffa0804da4:	67c20030 	daddiu	v0,s8,48
ffffffffa0804da8:	0040202d 	move	a0,v0
ffffffffa0804dac:	3c020000 	lui	v0,0x0
ffffffffa0804db0:	64420000 	daddiu	v0,v0,0
ffffffffa0804db4:	00021438 	dsll	v0,v0,0x10
ffffffffa0804db8:	6442a080 	daddiu	v0,v0,-24448
ffffffffa0804dbc:	00021438 	dsll	v0,v0,0x10
ffffffffa0804dc0:	644572c8 	daddiu	a1,v0,29384
ffffffffa0804dc4:	24060004 	li	a2,4
ffffffffa0804dc8:	0c200f6e 	jal	ffffffffa0803db8 <memcmp>
ffffffffa0804dcc:	00000000 	nop
ffffffffa0804dd0:	1440004d 	bnez	v0,ffffffffa0804f08 <test_shell+0x564>
ffffffffa0804dd4:	00000000 	nop
ffffffffa0804dd8:	83c20036 	lb	v0,54(s8)
ffffffffa0804ddc:	28420030 	slti	v0,v0,48
ffffffffa0804de0:	14400011 	bnez	v0,ffffffffa0804e28 <test_shell+0x484>
ffffffffa0804de4:	00000000 	nop
ffffffffa0804de8:	83c20036 	lb	v0,54(s8)
ffffffffa0804dec:	2842003a 	slti	v0,v0,58
ffffffffa0804df0:	1040000d 	beqz	v0,ffffffffa0804e28 <test_shell+0x484>
ffffffffa0804df4:	00000000 	nop
ffffffffa0804df8:	83c20035 	lb	v0,53(s8)
ffffffffa0804dfc:	2442ffd0 	addiu	v0,v0,-48
ffffffffa0804e00:	00021040 	sll	v0,v0,0x1
ffffffffa0804e04:	00021880 	sll	v1,v0,0x2
ffffffffa0804e08:	00431021 	addu	v0,v0,v1
ffffffffa0804e0c:	0040182d 	move	v1,v0
ffffffffa0804e10:	83c20036 	lb	v0,54(s8)
ffffffffa0804e14:	00621021 	addu	v0,v1,v0
ffffffffa0804e18:	2442ffd0 	addiu	v0,v0,-48
ffffffffa0804e1c:	afc2000c 	sw	v0,12(s8)
ffffffffa0804e20:	0820138d 	j	ffffffffa0804e34 <test_shell+0x490>
ffffffffa0804e24:	00000000 	nop
ffffffffa0804e28:	83c20035 	lb	v0,53(s8)
ffffffffa0804e2c:	2442ffd0 	addiu	v0,v0,-48
ffffffffa0804e30:	afc2000c 	sw	v0,12(s8)
ffffffffa0804e34:	8fc2000c 	lw	v0,12(s8)
ffffffffa0804e38:	18400007 	blez	v0,ffffffffa0804e58 <test_shell+0x4b4>
ffffffffa0804e3c:	00000000 	nop
ffffffffa0804e40:	8fc2000c 	lw	v0,12(s8)
ffffffffa0804e44:	0040202d 	move	a0,v0
ffffffffa0804e48:	0c200a4a 	jal	ffffffffa0802928 <do_kill>
ffffffffa0804e4c:	00000000 	nop
ffffffffa0804e50:	08201397 	j	ffffffffa0804e5c <test_shell+0x4b8>
ffffffffa0804e54:	00000000 	nop
ffffffffa0804e58:	2402ffff 	li	v0,-1
ffffffffa0804e5c:	afc20020 	sw	v0,32(s8)
ffffffffa0804e60:	8fc20020 	lw	v0,32(s8)
ffffffffa0804e64:	1440000d 	bnez	v0,ffffffffa0804e9c <test_shell+0x4f8>
ffffffffa0804e68:	00000000 	nop
ffffffffa0804e6c:	8fc3000c 	lw	v1,12(s8)
ffffffffa0804e70:	3c020000 	lui	v0,0x0
ffffffffa0804e74:	64420000 	daddiu	v0,v0,0
ffffffffa0804e78:	00021438 	dsll	v0,v0,0x10
ffffffffa0804e7c:	6442a080 	daddiu	v0,v0,-24448
ffffffffa0804e80:	00021438 	dsll	v0,v0,0x10
ffffffffa0804e84:	644472d0 	daddiu	a0,v0,29392
ffffffffa0804e88:	0060282d 	move	a1,v1
ffffffffa0804e8c:	0c201223 	jal	ffffffffa080488c <kprintf>
ffffffffa0804e90:	00000000 	nop
ffffffffa0804e94:	082013b1 	j	ffffffffa0804ec4 <test_shell+0x520>
ffffffffa0804e98:	00000000 	nop
ffffffffa0804e9c:	8fc3000c 	lw	v1,12(s8)
ffffffffa0804ea0:	3c020000 	lui	v0,0x0
ffffffffa0804ea4:	64420000 	daddiu	v0,v0,0
ffffffffa0804ea8:	00021438 	dsll	v0,v0,0x10
ffffffffa0804eac:	6442a080 	daddiu	v0,v0,-24448
ffffffffa0804eb0:	00021438 	dsll	v0,v0,0x10
ffffffffa0804eb4:	644472f8 	daddiu	a0,v0,29432
ffffffffa0804eb8:	0060282d 	move	a1,v1
ffffffffa0804ebc:	0c201223 	jal	ffffffffa080488c <kprintf>
ffffffffa0804ec0:	00000000 	nop
ffffffffa0804ec4:	3c020000 	lui	v0,0x0
ffffffffa0804ec8:	64420000 	daddiu	v0,v0,0
ffffffffa0804ecc:	00021438 	dsll	v0,v0,0x10
ffffffffa0804ed0:	6442a081 	daddiu	v0,v0,-24447
ffffffffa0804ed4:	00021438 	dsll	v0,v0,0x10
ffffffffa0804ed8:	dc438388 	ld	v1,-31864(v0)
ffffffffa0804edc:	3c020000 	lui	v0,0x0
ffffffffa0804ee0:	64420000 	daddiu	v0,v0,0
ffffffffa0804ee4:	00021438 	dsll	v0,v0,0x10
ffffffffa0804ee8:	6442a080 	daddiu	v0,v0,-24448
ffffffffa0804eec:	00021438 	dsll	v0,v0,0x10
ffffffffa0804ef0:	64447298 	daddiu	a0,v0,29336
ffffffffa0804ef4:	0060282d 	move	a1,v1
ffffffffa0804ef8:	0c201223 	jal	ffffffffa080488c <kprintf>
ffffffffa0804efc:	00000000 	nop
ffffffffa0804f00:	082014db 	j	ffffffffa080536c <test_shell+0x9c8>
ffffffffa0804f04:	00000000 	nop
ffffffffa0804f08:	67c20030 	daddiu	v0,s8,48
ffffffffa0804f0c:	0040202d 	move	a0,v0
ffffffffa0804f10:	3c020000 	lui	v0,0x0
ffffffffa0804f14:	64420000 	daddiu	v0,v0,0
ffffffffa0804f18:	00021438 	dsll	v0,v0,0x10
ffffffffa0804f1c:	6442a080 	daddiu	v0,v0,-24448
ffffffffa0804f20:	00021438 	dsll	v0,v0,0x10
ffffffffa0804f24:	64457318 	daddiu	a1,v0,29464
ffffffffa0804f28:	24060004 	li	a2,4
ffffffffa0804f2c:	0c200f6e 	jal	ffffffffa0803db8 <memcmp>
ffffffffa0804f30:	00000000 	nop
ffffffffa0804f34:	1440004e 	bnez	v0,ffffffffa0805070 <test_shell+0x6cc>
ffffffffa0804f38:	00000000 	nop
ffffffffa0804f3c:	83c20036 	lb	v0,54(s8)
ffffffffa0804f40:	28420030 	slti	v0,v0,48
ffffffffa0804f44:	14400011 	bnez	v0,ffffffffa0804f8c <test_shell+0x5e8>
ffffffffa0804f48:	00000000 	nop
ffffffffa0804f4c:	83c20036 	lb	v0,54(s8)
ffffffffa0804f50:	2842003a 	slti	v0,v0,58
ffffffffa0804f54:	1040000d 	beqz	v0,ffffffffa0804f8c <test_shell+0x5e8>
ffffffffa0804f58:	00000000 	nop
ffffffffa0804f5c:	83c20035 	lb	v0,53(s8)
ffffffffa0804f60:	2442ffd0 	addiu	v0,v0,-48
ffffffffa0804f64:	00021040 	sll	v0,v0,0x1
ffffffffa0804f68:	00021880 	sll	v1,v0,0x2
ffffffffa0804f6c:	00431021 	addu	v0,v0,v1
ffffffffa0804f70:	0040182d 	move	v1,v0
ffffffffa0804f74:	83c20036 	lb	v0,54(s8)
ffffffffa0804f78:	00621021 	addu	v0,v1,v0
ffffffffa0804f7c:	2442ffd0 	addiu	v0,v0,-48
ffffffffa0804f80:	afc20010 	sw	v0,16(s8)
ffffffffa0804f84:	082013e6 	j	ffffffffa0804f98 <test_shell+0x5f4>
ffffffffa0804f88:	00000000 	nop
ffffffffa0804f8c:	83c20035 	lb	v0,53(s8)
ffffffffa0804f90:	2442ffd0 	addiu	v0,v0,-48
ffffffffa0804f94:	afc20010 	sw	v0,16(s8)
ffffffffa0804f98:	8fc20010 	lw	v0,16(s8)
ffffffffa0804f9c:	18400007 	blez	v0,ffffffffa0804fbc <test_shell+0x618>
ffffffffa0804fa0:	00000000 	nop
ffffffffa0804fa4:	8fc20010 	lw	v0,16(s8)
ffffffffa0804fa8:	0040202d 	move	a0,v0
ffffffffa0804fac:	0c200aec 	jal	ffffffffa0802bb0 <do_waitpid>
ffffffffa0804fb0:	00000000 	nop
ffffffffa0804fb4:	082013f0 	j	ffffffffa0804fc0 <test_shell+0x61c>
ffffffffa0804fb8:	00000000 	nop
ffffffffa0804fbc:	2402ffff 	li	v0,-1
ffffffffa0804fc0:	afc20024 	sw	v0,36(s8)
ffffffffa0804fc4:	8fc30024 	lw	v1,36(s8)
ffffffffa0804fc8:	2402ffff 	li	v0,-1
ffffffffa0804fcc:	1462000d 	bne	v1,v0,ffffffffa0805004 <test_shell+0x660>
ffffffffa0804fd0:	00000000 	nop
ffffffffa0804fd4:	8fc30010 	lw	v1,16(s8)
ffffffffa0804fd8:	3c020000 	lui	v0,0x0
ffffffffa0804fdc:	64420000 	daddiu	v0,v0,0
ffffffffa0804fe0:	00021438 	dsll	v0,v0,0x10
ffffffffa0804fe4:	6442a080 	daddiu	v0,v0,-24448
ffffffffa0804fe8:	00021438 	dsll	v0,v0,0x10
ffffffffa0804fec:	644472f8 	daddiu	a0,v0,29432
ffffffffa0804ff0:	0060282d 	move	a1,v1
ffffffffa0804ff4:	0c201223 	jal	ffffffffa080488c <kprintf>
ffffffffa0804ff8:	00000000 	nop
ffffffffa0804ffc:	0820140b 	j	ffffffffa080502c <test_shell+0x688>
ffffffffa0805000:	00000000 	nop
ffffffffa0805004:	8fc30010 	lw	v1,16(s8)
ffffffffa0805008:	3c020000 	lui	v0,0x0
ffffffffa080500c:	64420000 	daddiu	v0,v0,0
ffffffffa0805010:	00021438 	dsll	v0,v0,0x10
ffffffffa0805014:	6442a080 	daddiu	v0,v0,-24448
ffffffffa0805018:	00021438 	dsll	v0,v0,0x10
ffffffffa080501c:	64447320 	daddiu	a0,v0,29472
ffffffffa0805020:	0060282d 	move	a1,v1
ffffffffa0805024:	0c201223 	jal	ffffffffa080488c <kprintf>
ffffffffa0805028:	00000000 	nop
ffffffffa080502c:	3c020000 	lui	v0,0x0
ffffffffa0805030:	64420000 	daddiu	v0,v0,0
ffffffffa0805034:	00021438 	dsll	v0,v0,0x10
ffffffffa0805038:	6442a081 	daddiu	v0,v0,-24447
ffffffffa080503c:	00021438 	dsll	v0,v0,0x10
ffffffffa0805040:	dc438388 	ld	v1,-31864(v0)
ffffffffa0805044:	3c020000 	lui	v0,0x0
ffffffffa0805048:	64420000 	daddiu	v0,v0,0
ffffffffa080504c:	00021438 	dsll	v0,v0,0x10
ffffffffa0805050:	6442a080 	daddiu	v0,v0,-24448
ffffffffa0805054:	00021438 	dsll	v0,v0,0x10
ffffffffa0805058:	64447298 	daddiu	a0,v0,29336
ffffffffa080505c:	0060282d 	move	a1,v1
ffffffffa0805060:	0c201223 	jal	ffffffffa080488c <kprintf>
ffffffffa0805064:	00000000 	nop
ffffffffa0805068:	082014db 	j	ffffffffa080536c <test_shell+0x9c8>
ffffffffa080506c:	00000000 	nop
ffffffffa0805070:	67c20030 	daddiu	v0,s8,48
ffffffffa0805074:	0040202d 	move	a0,v0
ffffffffa0805078:	3c020000 	lui	v0,0x0
ffffffffa080507c:	64420000 	daddiu	v0,v0,0
ffffffffa0805080:	00021438 	dsll	v0,v0,0x10
ffffffffa0805084:	6442a080 	daddiu	v0,v0,-24448
ffffffffa0805088:	00021438 	dsll	v0,v0,0x10
ffffffffa080508c:	64457340 	daddiu	a1,v0,29504
ffffffffa0805090:	24060004 	li	a2,4
ffffffffa0805094:	0c200f6e 	jal	ffffffffa0803db8 <memcmp>
ffffffffa0805098:	00000000 	nop
ffffffffa080509c:	1440005c 	bnez	v0,ffffffffa0805210 <test_shell+0x86c>
ffffffffa08050a0:	00000000 	nop
ffffffffa08050a4:	83c20036 	lb	v0,54(s8)
ffffffffa08050a8:	28420030 	slti	v0,v0,48
ffffffffa08050ac:	14400011 	bnez	v0,ffffffffa08050f4 <test_shell+0x750>
ffffffffa08050b0:	00000000 	nop
ffffffffa08050b4:	83c20036 	lb	v0,54(s8)
ffffffffa08050b8:	2842003a 	slti	v0,v0,58
ffffffffa08050bc:	1040000d 	beqz	v0,ffffffffa08050f4 <test_shell+0x750>
ffffffffa08050c0:	00000000 	nop
ffffffffa08050c4:	83c20035 	lb	v0,53(s8)
ffffffffa08050c8:	2442ffd0 	addiu	v0,v0,-48
ffffffffa08050cc:	00021040 	sll	v0,v0,0x1
ffffffffa08050d0:	00021880 	sll	v1,v0,0x2
ffffffffa08050d4:	00431021 	addu	v0,v0,v1
ffffffffa08050d8:	0040182d 	move	v1,v0
ffffffffa08050dc:	83c20036 	lb	v0,54(s8)
ffffffffa08050e0:	00621021 	addu	v0,v1,v0
ffffffffa08050e4:	2442ffd0 	addiu	v0,v0,-48
ffffffffa08050e8:	afc20014 	sw	v0,20(s8)
ffffffffa08050ec:	08201440 	j	ffffffffa0805100 <test_shell+0x75c>
ffffffffa08050f0:	00000000 	nop
ffffffffa08050f4:	83c20035 	lb	v0,53(s8)
ffffffffa08050f8:	2442ffd0 	addiu	v0,v0,-48
ffffffffa08050fc:	afc20014 	sw	v0,20(s8)
ffffffffa0805100:	8fc20014 	lw	v0,20(s8)
ffffffffa0805104:	04400015 	bltz	v0,ffffffffa080515c <test_shell+0x7b8>
ffffffffa0805108:	00000000 	nop
ffffffffa080510c:	8fc20014 	lw	v0,20(s8)
ffffffffa0805110:	28420010 	slti	v0,v0,16
ffffffffa0805114:	10400011 	beqz	v0,ffffffffa080515c <test_shell+0x7b8>
ffffffffa0805118:	00000000 	nop
ffffffffa080511c:	3c020000 	lui	v0,0x0
ffffffffa0805120:	64420000 	daddiu	v0,v0,0
ffffffffa0805124:	00021438 	dsll	v0,v0,0x10
ffffffffa0805128:	6442a081 	daddiu	v0,v0,-24447
ffffffffa080512c:	00021438 	dsll	v0,v0,0x10
ffffffffa0805130:	8fc30014 	lw	v1,20(s8)
ffffffffa0805134:	000318f8 	dsll	v1,v1,0x3
ffffffffa0805138:	64428280 	daddiu	v0,v0,-32128
ffffffffa080513c:	0062102d 	daddu	v0,v1,v0
ffffffffa0805140:	dc420000 	ld	v0,0(v0)
ffffffffa0805144:	0040202d 	move	a0,v0
ffffffffa0805148:	0c2009fe 	jal	ffffffffa08027f8 <do_spawn>
ffffffffa080514c:	00000000 	nop
ffffffffa0805150:	afc20018 	sw	v0,24(s8)
ffffffffa0805154:	08201459 	j	ffffffffa0805164 <test_shell+0x7c0>
ffffffffa0805158:	00000000 	nop
ffffffffa080515c:	2402ffff 	li	v0,-1
ffffffffa0805160:	afc20018 	sw	v0,24(s8)
ffffffffa0805164:	8fc30018 	lw	v1,24(s8)
ffffffffa0805168:	2402ffff 	li	v0,-1
ffffffffa080516c:	1462000d 	bne	v1,v0,ffffffffa08051a4 <test_shell+0x800>
ffffffffa0805170:	00000000 	nop
ffffffffa0805174:	8fc30014 	lw	v1,20(s8)
ffffffffa0805178:	3c020000 	lui	v0,0x0
ffffffffa080517c:	64420000 	daddiu	v0,v0,0
ffffffffa0805180:	00021438 	dsll	v0,v0,0x10
ffffffffa0805184:	6442a080 	daddiu	v0,v0,-24448
ffffffffa0805188:	00021438 	dsll	v0,v0,0x10
ffffffffa080518c:	64447348 	daddiu	a0,v0,29512
ffffffffa0805190:	0060282d 	move	a1,v1
ffffffffa0805194:	0c201223 	jal	ffffffffa080488c <kprintf>
ffffffffa0805198:	00000000 	nop
ffffffffa080519c:	08201473 	j	ffffffffa08051cc <test_shell+0x828>
ffffffffa08051a0:	00000000 	nop
ffffffffa08051a4:	8fc30014 	lw	v1,20(s8)
ffffffffa08051a8:	3c020000 	lui	v0,0x0
ffffffffa08051ac:	64420000 	daddiu	v0,v0,0
ffffffffa08051b0:	00021438 	dsll	v0,v0,0x10
ffffffffa08051b4:	6442a080 	daddiu	v0,v0,-24448
ffffffffa08051b8:	00021438 	dsll	v0,v0,0x10
ffffffffa08051bc:	64447370 	daddiu	a0,v0,29552
ffffffffa08051c0:	0060282d 	move	a1,v1
ffffffffa08051c4:	0c201223 	jal	ffffffffa080488c <kprintf>
ffffffffa08051c8:	00000000 	nop
ffffffffa08051cc:	3c020000 	lui	v0,0x0
ffffffffa08051d0:	64420000 	daddiu	v0,v0,0
ffffffffa08051d4:	00021438 	dsll	v0,v0,0x10
ffffffffa08051d8:	6442a081 	daddiu	v0,v0,-24447
ffffffffa08051dc:	00021438 	dsll	v0,v0,0x10
ffffffffa08051e0:	dc438388 	ld	v1,-31864(v0)
ffffffffa08051e4:	3c020000 	lui	v0,0x0
ffffffffa08051e8:	64420000 	daddiu	v0,v0,0
ffffffffa08051ec:	00021438 	dsll	v0,v0,0x10
ffffffffa08051f0:	6442a080 	daddiu	v0,v0,-24448
ffffffffa08051f4:	00021438 	dsll	v0,v0,0x10
ffffffffa08051f8:	64447298 	daddiu	a0,v0,29336
ffffffffa08051fc:	0060282d 	move	a1,v1
ffffffffa0805200:	0c201223 	jal	ffffffffa080488c <kprintf>
ffffffffa0805204:	00000000 	nop
ffffffffa0805208:	082014db 	j	ffffffffa080536c <test_shell+0x9c8>
ffffffffa080520c:	00000000 	nop
ffffffffa0805210:	67c20030 	daddiu	v0,s8,48
ffffffffa0805214:	0040202d 	move	a0,v0
ffffffffa0805218:	3c020000 	lui	v0,0x0
ffffffffa080521c:	64420000 	daddiu	v0,v0,0
ffffffffa0805220:	00021438 	dsll	v0,v0,0x10
ffffffffa0805224:	6442a080 	daddiu	v0,v0,-24448
ffffffffa0805228:	00021438 	dsll	v0,v0,0x10
ffffffffa080522c:	64457388 	daddiu	a1,v0,29576
ffffffffa0805230:	24060003 	li	a2,3
ffffffffa0805234:	0c200f6e 	jal	ffffffffa0803db8 <memcmp>
ffffffffa0805238:	00000000 	nop
ffffffffa080523c:	14400034 	bnez	v0,ffffffffa0805310 <test_shell+0x96c>
ffffffffa0805240:	00000000 	nop
ffffffffa0805244:	0c2000b2 	jal	ffffffffa08002c8 <do_scheduler>
ffffffffa0805248:	00000000 	nop
ffffffffa080524c:	afc00000 	sw	zero,0(s8)
ffffffffa0805250:	082014a3 	j	ffffffffa080528c <test_shell+0x8e8>
ffffffffa0805254:	00000000 	nop
ffffffffa0805258:	afc00004 	sw	zero,4(s8)
ffffffffa080525c:	0820149c 	j	ffffffffa0805270 <test_shell+0x8cc>
ffffffffa0805260:	00000000 	nop
ffffffffa0805264:	8fc20004 	lw	v0,4(s8)
ffffffffa0805268:	24420001 	addiu	v0,v0,1
ffffffffa080526c:	afc20004 	sw	v0,4(s8)
ffffffffa0805270:	8fc20004 	lw	v0,4(s8)
ffffffffa0805274:	28420078 	slti	v0,v0,120
ffffffffa0805278:	1440fffa 	bnez	v0,ffffffffa0805264 <test_shell+0x8c0>
ffffffffa080527c:	00000000 	nop
ffffffffa0805280:	8fc20000 	lw	v0,0(s8)
ffffffffa0805284:	24420001 	addiu	v0,v0,1
ffffffffa0805288:	afc20000 	sw	v0,0(s8)
ffffffffa080528c:	8fc30000 	lw	v1,0(s8)
ffffffffa0805290:	3c020001 	lui	v0,0x1
ffffffffa0805294:	34423880 	ori	v0,v0,0x3880
ffffffffa0805298:	0062102a 	slt	v0,v1,v0
ffffffffa080529c:	1440ffee 	bnez	v0,ffffffffa0805258 <test_shell+0x8b4>
ffffffffa08052a0:	00000000 	nop
ffffffffa08052a4:	0c20124c 	jal	ffffffffa0804930 <read_uart_ch>
ffffffffa08052a8:	00000000 	nop
ffffffffa08052ac:	a3c20028 	sb	v0,40(s8)
ffffffffa08052b0:	83c30028 	lb	v1,40(s8)
ffffffffa08052b4:	2402000d 	li	v0,13
ffffffffa08052b8:	10620003 	beq	v1,v0,ffffffffa08052c8 <test_shell+0x924>
ffffffffa08052bc:	00000000 	nop
ffffffffa08052c0:	08201491 	j	ffffffffa0805244 <test_shell+0x8a0>
ffffffffa08052c4:	00000000 	nop
ffffffffa08052c8:	00000000 	nop
ffffffffa08052cc:	3c020000 	lui	v0,0x0
ffffffffa08052d0:	64420000 	daddiu	v0,v0,0
ffffffffa08052d4:	00021438 	dsll	v0,v0,0x10
ffffffffa08052d8:	6442a081 	daddiu	v0,v0,-24447
ffffffffa08052dc:	00021438 	dsll	v0,v0,0x10
ffffffffa08052e0:	dc438388 	ld	v1,-31864(v0)
ffffffffa08052e4:	3c020000 	lui	v0,0x0
ffffffffa08052e8:	64420000 	daddiu	v0,v0,0
ffffffffa08052ec:	00021438 	dsll	v0,v0,0x10
ffffffffa08052f0:	6442a080 	daddiu	v0,v0,-24448
ffffffffa08052f4:	00021438 	dsll	v0,v0,0x10
ffffffffa08052f8:	64447298 	daddiu	a0,v0,29336
ffffffffa08052fc:	0060282d 	move	a1,v1
ffffffffa0805300:	0c201223 	jal	ffffffffa080488c <kprintf>
ffffffffa0805304:	00000000 	nop
ffffffffa0805308:	082014db 	j	ffffffffa080536c <test_shell+0x9c8>
ffffffffa080530c:	00000000 	nop
ffffffffa0805310:	3c020000 	lui	v0,0x0
ffffffffa0805314:	64420000 	daddiu	v0,v0,0
ffffffffa0805318:	00021438 	dsll	v0,v0,0x10
ffffffffa080531c:	6442a080 	daddiu	v0,v0,-24448
ffffffffa0805320:	00021438 	dsll	v0,v0,0x10
ffffffffa0805324:	64447390 	daddiu	a0,v0,29584
ffffffffa0805328:	0c201223 	jal	ffffffffa080488c <kprintf>
ffffffffa080532c:	00000000 	nop
ffffffffa0805330:	3c020000 	lui	v0,0x0
ffffffffa0805334:	64420000 	daddiu	v0,v0,0
ffffffffa0805338:	00021438 	dsll	v0,v0,0x10
ffffffffa080533c:	6442a081 	daddiu	v0,v0,-24447
ffffffffa0805340:	00021438 	dsll	v0,v0,0x10
ffffffffa0805344:	dc438388 	ld	v1,-31864(v0)
ffffffffa0805348:	3c020000 	lui	v0,0x0
ffffffffa080534c:	64420000 	daddiu	v0,v0,0
ffffffffa0805350:	00021438 	dsll	v0,v0,0x10
ffffffffa0805354:	6442a080 	daddiu	v0,v0,-24448
ffffffffa0805358:	00021438 	dsll	v0,v0,0x10
ffffffffa080535c:	64447298 	daddiu	a0,v0,29336
ffffffffa0805360:	0060282d 	move	a1,v1
ffffffffa0805364:	0c201223 	jal	ffffffffa080488c <kprintf>
ffffffffa0805368:	00000000 	nop
ffffffffa080536c:	afc00008 	sw	zero,8(s8)
ffffffffa0805370:	0c2000b2 	jal	ffffffffa08002c8 <do_scheduler>
ffffffffa0805374:	00000000 	nop
ffffffffa0805378:	08201291 	j	ffffffffa0804a44 <test_shell+0xa0>
ffffffffa080537c:	00000000 	nop

ffffffffa0805380 <ready_to_exit_task>:
ffffffffa0805380:	67bdffe0 	daddiu	sp,sp,-32
ffffffffa0805384:	ffbf0018 	sd	ra,24(sp)
ffffffffa0805388:	ffbe0010 	sd	s8,16(sp)
ffffffffa080538c:	03a0f02d 	move	s8,sp
ffffffffa0805390:	afc00000 	sw	zero,0(s8)
ffffffffa0805394:	24020001 	li	v0,1
ffffffffa0805398:	afc20004 	sw	v0,4(s8)
ffffffffa080539c:	3c020000 	lui	v0,0x0
ffffffffa08053a0:	64420000 	daddiu	v0,v0,0
ffffffffa08053a4:	00021438 	dsll	v0,v0,0x10
ffffffffa08053a8:	6442a081 	daddiu	v0,v0,-24447
ffffffffa08053ac:	00021438 	dsll	v0,v0,0x10
ffffffffa08053b0:	6444fd40 	daddiu	a0,v0,-704
ffffffffa08053b4:	0c200786 	jal	ffffffffa0801e18 <do_mutex_lock_acquire>
ffffffffa08053b8:	00000000 	nop
ffffffffa08053bc:	3c020000 	lui	v0,0x0
ffffffffa08053c0:	64420000 	daddiu	v0,v0,0
ffffffffa08053c4:	00021438 	dsll	v0,v0,0x10
ffffffffa08053c8:	6442a081 	daddiu	v0,v0,-24447
ffffffffa08053cc:	00021438 	dsll	v0,v0,0x10
ffffffffa08053d0:	6444fd68 	daddiu	a0,v0,-664
ffffffffa08053d4:	0c200786 	jal	ffffffffa0801e18 <do_mutex_lock_acquire>
ffffffffa08053d8:	00000000 	nop
ffffffffa08053dc:	afc00000 	sw	zero,0(s8)
ffffffffa08053e0:	0820151c 	j	ffffffffa0805470 <ready_to_exit_task+0xf0>
ffffffffa08053e4:	00000000 	nop
ffffffffa08053e8:	8fc20004 	lw	v0,4(s8)
ffffffffa08053ec:	0000202d 	move	a0,zero
ffffffffa08053f0:	0040282d 	move	a1,v0
ffffffffa08053f4:	0c200190 	jal	ffffffffa0800640 <vt100_move_cursor>
ffffffffa08053f8:	00000000 	nop
ffffffffa08053fc:	0c2000fe 	jal	ffffffffa08003f8 <TLBexception_handler_entry>
ffffffffa0805400:	00000000 	nop
ffffffffa0805404:	afc20008 	sw	v0,8(s8)
ffffffffa0805408:	3c020000 	lui	v0,0x0
ffffffffa080540c:	64420000 	daddiu	v0,v0,0
ffffffffa0805410:	00021438 	dsll	v0,v0,0x10
ffffffffa0805414:	6442a081 	daddiu	v0,v0,-24447
ffffffffa0805418:	00021438 	dsll	v0,v0,0x10
ffffffffa080541c:	dc429c10 	ld	v0,-25584(v0)
ffffffffa0805420:	8c4202f4 	lw	v0,756(v0)
ffffffffa0805424:	24420001 	addiu	v0,v0,1
ffffffffa0805428:	0040282d 	move	a1,v0
ffffffffa080542c:	8fc20000 	lw	v0,0(s8)
ffffffffa0805430:	24430001 	addiu	v1,v0,1
ffffffffa0805434:	afc30000 	sw	v1,0(s8)
ffffffffa0805438:	3c030000 	lui	v1,0x0
ffffffffa080543c:	64630000 	daddiu	v1,v1,0
ffffffffa0805440:	00031c38 	dsll	v1,v1,0x10
ffffffffa0805444:	6463a080 	daddiu	v1,v1,-24448
ffffffffa0805448:	00031c38 	dsll	v1,v1,0x10
ffffffffa080544c:	646473b0 	daddiu	a0,v1,29616
ffffffffa0805450:	0040302d 	move	a2,v0
ffffffffa0805454:	0c2011d7 	jal	ffffffffa080475c <printk>
ffffffffa0805458:	00000000 	nop
ffffffffa080545c:	0c2000b2 	jal	ffffffffa08002c8 <do_scheduler>
ffffffffa0805460:	00000000 	nop
ffffffffa0805464:	8fc20000 	lw	v0,0(s8)
ffffffffa0805468:	24420001 	addiu	v0,v0,1
ffffffffa080546c:	afc20000 	sw	v0,0(s8)
ffffffffa0805470:	8fc20000 	lw	v0,0(s8)
ffffffffa0805474:	284201f4 	slti	v0,v0,500
ffffffffa0805478:	1440ffdb 	bnez	v0,ffffffffa08053e8 <ready_to_exit_task+0x68>
ffffffffa080547c:	00000000 	nop
ffffffffa0805480:	0c200973 	jal	ffffffffa08025cc <do_exit>
ffffffffa0805484:	00000000 	nop
ffffffffa0805488:	03c0e82d 	move	sp,s8
ffffffffa080548c:	dfbf0018 	ld	ra,24(sp)
ffffffffa0805490:	dfbe0010 	ld	s8,16(sp)
ffffffffa0805494:	67bd0020 	daddiu	sp,sp,32
ffffffffa0805498:	03e00008 	jr	ra
ffffffffa080549c:	00000000 	nop

ffffffffa08054a0 <wait_lock_task>:
ffffffffa08054a0:	67bdffe0 	daddiu	sp,sp,-32
ffffffffa08054a4:	ffbf0018 	sd	ra,24(sp)
ffffffffa08054a8:	ffbe0010 	sd	s8,16(sp)
ffffffffa08054ac:	03a0f02d 	move	s8,sp
ffffffffa08054b0:	24020002 	li	v0,2
ffffffffa08054b4:	afc20000 	sw	v0,0(s8)
ffffffffa08054b8:	8fc20000 	lw	v0,0(s8)
ffffffffa08054bc:	0000202d 	move	a0,zero
ffffffffa08054c0:	0040282d 	move	a1,v0
ffffffffa08054c4:	0c200190 	jal	ffffffffa0800640 <vt100_move_cursor>
ffffffffa08054c8:	00000000 	nop
ffffffffa08054cc:	3c020000 	lui	v0,0x0
ffffffffa08054d0:	64420000 	daddiu	v0,v0,0
ffffffffa08054d4:	00021438 	dsll	v0,v0,0x10
ffffffffa08054d8:	6442a080 	daddiu	v0,v0,-24448
ffffffffa08054dc:	00021438 	dsll	v0,v0,0x10
ffffffffa08054e0:	644473f8 	daddiu	a0,v0,29688
ffffffffa08054e4:	0c2011d7 	jal	ffffffffa080475c <printk>
ffffffffa08054e8:	00000000 	nop
ffffffffa08054ec:	3c020000 	lui	v0,0x0
ffffffffa08054f0:	64420000 	daddiu	v0,v0,0
ffffffffa08054f4:	00021438 	dsll	v0,v0,0x10
ffffffffa08054f8:	6442a081 	daddiu	v0,v0,-24447
ffffffffa08054fc:	00021438 	dsll	v0,v0,0x10
ffffffffa0805500:	6444fd40 	daddiu	a0,v0,-704
ffffffffa0805504:	0c200786 	jal	ffffffffa0801e18 <do_mutex_lock_acquire>
ffffffffa0805508:	00000000 	nop
ffffffffa080550c:	8fc20000 	lw	v0,0(s8)
ffffffffa0805510:	0000202d 	move	a0,zero
ffffffffa0805514:	0040282d 	move	a1,v0
ffffffffa0805518:	0c200190 	jal	ffffffffa0800640 <vt100_move_cursor>
ffffffffa080551c:	00000000 	nop
ffffffffa0805520:	3c020000 	lui	v0,0x0
ffffffffa0805524:	64420000 	daddiu	v0,v0,0
ffffffffa0805528:	00021438 	dsll	v0,v0,0x10
ffffffffa080552c:	6442a080 	daddiu	v0,v0,-24448
ffffffffa0805530:	00021438 	dsll	v0,v0,0x10
ffffffffa0805534:	64447438 	daddiu	a0,v0,29752
ffffffffa0805538:	0c2011d7 	jal	ffffffffa080475c <printk>
ffffffffa080553c:	00000000 	nop
ffffffffa0805540:	0c2000b2 	jal	ffffffffa08002c8 <do_scheduler>
ffffffffa0805544:	00000000 	nop
ffffffffa0805548:	0c200973 	jal	ffffffffa08025cc <do_exit>
ffffffffa080554c:	00000000 	nop
ffffffffa0805550:	03c0e82d 	move	sp,s8
ffffffffa0805554:	dfbf0018 	ld	ra,24(sp)
ffffffffa0805558:	dfbe0010 	ld	s8,16(sp)
ffffffffa080555c:	67bd0020 	daddiu	sp,sp,32
ffffffffa0805560:	03e00008 	jr	ra
ffffffffa0805564:	00000000 	nop

ffffffffa0805568 <wait_exit_task>:
ffffffffa0805568:	67bdffe0 	daddiu	sp,sp,-32
ffffffffa080556c:	ffbf0018 	sd	ra,24(sp)
ffffffffa0805570:	ffbe0010 	sd	s8,16(sp)
ffffffffa0805574:	03a0f02d 	move	s8,sp
ffffffffa0805578:	24020003 	li	v0,3
ffffffffa080557c:	afc20000 	sw	v0,0(s8)
ffffffffa0805580:	8fc20000 	lw	v0,0(s8)
ffffffffa0805584:	0000202d 	move	a0,zero
ffffffffa0805588:	0040282d 	move	a1,v0
ffffffffa080558c:	0c200190 	jal	ffffffffa0800640 <vt100_move_cursor>
ffffffffa0805590:	00000000 	nop
ffffffffa0805594:	3c020000 	lui	v0,0x0
ffffffffa0805598:	64420000 	daddiu	v0,v0,0
ffffffffa080559c:	00021438 	dsll	v0,v0,0x10
ffffffffa08055a0:	6442a080 	daddiu	v0,v0,-24448
ffffffffa08055a4:	00021438 	dsll	v0,v0,0x10
ffffffffa08055a8:	64447470 	daddiu	a0,v0,29808
ffffffffa08055ac:	0c2011d7 	jal	ffffffffa080475c <printk>
ffffffffa08055b0:	00000000 	nop
ffffffffa08055b4:	24040002 	li	a0,2
ffffffffa08055b8:	0c200aec 	jal	ffffffffa0802bb0 <do_waitpid>
ffffffffa08055bc:	00000000 	nop
ffffffffa08055c0:	8fc20000 	lw	v0,0(s8)
ffffffffa08055c4:	0000202d 	move	a0,zero
ffffffffa08055c8:	0040282d 	move	a1,v0
ffffffffa08055cc:	0c200190 	jal	ffffffffa0800640 <vt100_move_cursor>
ffffffffa08055d0:	00000000 	nop
ffffffffa08055d4:	3c020000 	lui	v0,0x0
ffffffffa08055d8:	64420000 	daddiu	v0,v0,0
ffffffffa08055dc:	00021438 	dsll	v0,v0,0x10
ffffffffa08055e0:	6442a080 	daddiu	v0,v0,-24448
ffffffffa08055e4:	00021438 	dsll	v0,v0,0x10
ffffffffa08055e8:	644474a0 	daddiu	a0,v0,29856
ffffffffa08055ec:	0c2011d7 	jal	ffffffffa080475c <printk>
ffffffffa08055f0:	00000000 	nop
ffffffffa08055f4:	0c2000b2 	jal	ffffffffa08002c8 <do_scheduler>
ffffffffa08055f8:	00000000 	nop
ffffffffa08055fc:	0c200973 	jal	ffffffffa08025cc <do_exit>
ffffffffa0805600:	00000000 	nop
ffffffffa0805604:	03c0e82d 	move	sp,s8
ffffffffa0805608:	dfbf0018 	ld	ra,24(sp)
ffffffffa080560c:	dfbe0010 	ld	s8,16(sp)
ffffffffa0805610:	67bd0020 	daddiu	sp,sp,32
ffffffffa0805614:	03e00008 	jr	ra
ffffffffa0805618:	00000000 	nop
ffffffffa080561c:	00000000 	nop

ffffffffa0805620 <test_multicore>:
ffffffffa0805620:	67bdfef0 	daddiu	sp,sp,-272
ffffffffa0805624:	ffbf0108 	sd	ra,264(sp)
ffffffffa0805628:	ffbe0100 	sd	s8,256(sp)
ffffffffa080562c:	03a0f02d 	move	s8,sp
ffffffffa0805630:	0000202d 	move	a0,zero
ffffffffa0805634:	0000282d 	move	a1,zero
ffffffffa0805638:	0c200d37 	jal	ffffffffa08034dc <sys_move_cursor>
ffffffffa080563c:	00000000 	nop
ffffffffa0805640:	3c020000 	lui	v0,0x0
ffffffffa0805644:	64420000 	daddiu	v0,v0,0
ffffffffa0805648:	00021438 	dsll	v0,v0,0x10
ffffffffa080564c:	6442a080 	daddiu	v0,v0,-24448
ffffffffa0805650:	00021438 	dsll	v0,v0,0x10
ffffffffa0805654:	644474e0 	daddiu	a0,v0,29920
ffffffffa0805658:	0c2011fd 	jal	ffffffffa08047f4 <printf>
ffffffffa080565c:	00000000 	nop
ffffffffa0805660:	afc00004 	sw	zero,4(s8)
ffffffffa0805664:	ffc00030 	sd	zero,48(s8)
ffffffffa0805668:	ffc00038 	sd	zero,56(s8)
ffffffffa080566c:	ffc00040 	sd	zero,64(s8)
ffffffffa0805670:	ffc00048 	sd	zero,72(s8)
ffffffffa0805674:	ffc00050 	sd	zero,80(s8)
ffffffffa0805678:	ffc00058 	sd	zero,88(s8)
ffffffffa080567c:	3c020000 	lui	v0,0x0
ffffffffa0805680:	64420000 	daddiu	v0,v0,0
ffffffffa0805684:	00021438 	dsll	v0,v0,0x10
ffffffffa0805688:	6442a080 	daddiu	v0,v0,-24448
ffffffffa080568c:	00021438 	dsll	v0,v0,0x10
ffffffffa0805690:	8c437578 	lw	v1,30072(v0)
ffffffffa0805694:	afc30030 	sw	v1,48(s8)
ffffffffa0805698:	64427578 	daddiu	v0,v0,30072
ffffffffa080569c:	90420004 	lbu	v0,4(v0)
ffffffffa08056a0:	a3c20034 	sb	v0,52(s8)
ffffffffa08056a4:	67c30035 	daddiu	v1,s8,53
ffffffffa08056a8:	2402001b 	li	v0,27
ffffffffa08056ac:	0060202d 	move	a0,v1
ffffffffa08056b0:	0000282d 	move	a1,zero
ffffffffa08056b4:	0040302d 	move	a2,v0
ffffffffa08056b8:	0c200efb 	jal	ffffffffa0803bec <memset>
ffffffffa08056bc:	00000000 	nop
ffffffffa08056c0:	3c020000 	lui	v0,0x0
ffffffffa08056c4:	64420000 	daddiu	v0,v0,0
ffffffffa08056c8:	00021438 	dsll	v0,v0,0x10
ffffffffa08056cc:	6442a080 	daddiu	v0,v0,-24448
ffffffffa08056d0:	00021438 	dsll	v0,v0,0x10
ffffffffa08056d4:	64425970 	daddiu	v0,v0,22896
ffffffffa08056d8:	ffc20050 	sd	v0,80(s8)
ffffffffa08056dc:	24020002 	li	v0,2
ffffffffa08056e0:	afc20058 	sw	v0,88(s8)
ffffffffa08056e4:	ffc00060 	sd	zero,96(s8)
ffffffffa08056e8:	ffc00068 	sd	zero,104(s8)
ffffffffa08056ec:	ffc00070 	sd	zero,112(s8)
ffffffffa08056f0:	ffc00078 	sd	zero,120(s8)
ffffffffa08056f4:	ffc00080 	sd	zero,128(s8)
ffffffffa08056f8:	ffc00088 	sd	zero,136(s8)
ffffffffa08056fc:	3c020000 	lui	v0,0x0
ffffffffa0805700:	64420000 	daddiu	v0,v0,0
ffffffffa0805704:	00021438 	dsll	v0,v0,0x10
ffffffffa0805708:	6442a080 	daddiu	v0,v0,-24448
ffffffffa080570c:	00021438 	dsll	v0,v0,0x10
ffffffffa0805710:	8c437598 	lw	v1,30104(v0)
ffffffffa0805714:	afc30060 	sw	v1,96(s8)
ffffffffa0805718:	64427598 	daddiu	v0,v0,30104
ffffffffa080571c:	90420004 	lbu	v0,4(v0)
ffffffffa0805720:	a3c20064 	sb	v0,100(s8)
ffffffffa0805724:	67c30065 	daddiu	v1,s8,101
ffffffffa0805728:	2402001b 	li	v0,27
ffffffffa080572c:	0060202d 	move	a0,v1
ffffffffa0805730:	0000282d 	move	a1,zero
ffffffffa0805734:	0040302d 	move	a2,v0
ffffffffa0805738:	0c200efb 	jal	ffffffffa0803bec <memset>
ffffffffa080573c:	00000000 	nop
ffffffffa0805740:	3c020000 	lui	v0,0x0
ffffffffa0805744:	64420000 	daddiu	v0,v0,0
ffffffffa0805748:	00021438 	dsll	v0,v0,0x10
ffffffffa080574c:	6442a080 	daddiu	v0,v0,-24448
ffffffffa0805750:	00021438 	dsll	v0,v0,0x10
ffffffffa0805754:	64425a20 	daddiu	v0,v0,23072
ffffffffa0805758:	ffc20080 	sd	v0,128(s8)
ffffffffa080575c:	24020002 	li	v0,2
ffffffffa0805760:	afc20088 	sw	v0,136(s8)
ffffffffa0805764:	ffc00090 	sd	zero,144(s8)
ffffffffa0805768:	ffc00098 	sd	zero,152(s8)
ffffffffa080576c:	ffc000a0 	sd	zero,160(s8)
ffffffffa0805770:	ffc000a8 	sd	zero,168(s8)
ffffffffa0805774:	ffc000b0 	sd	zero,176(s8)
ffffffffa0805778:	ffc000b8 	sd	zero,184(s8)
ffffffffa080577c:	3c020000 	lui	v0,0x0
ffffffffa0805780:	64420000 	daddiu	v0,v0,0
ffffffffa0805784:	00021438 	dsll	v0,v0,0x10
ffffffffa0805788:	6442a080 	daddiu	v0,v0,-24448
ffffffffa080578c:	00021438 	dsll	v0,v0,0x10
ffffffffa0805790:	8c4375b8 	lw	v1,30136(v0)
ffffffffa0805794:	afc30090 	sw	v1,144(s8)
ffffffffa0805798:	644275b8 	daddiu	v0,v0,30136
ffffffffa080579c:	90420004 	lbu	v0,4(v0)
ffffffffa08057a0:	a3c20094 	sb	v0,148(s8)
ffffffffa08057a4:	67c30095 	daddiu	v1,s8,149
ffffffffa08057a8:	2402001b 	li	v0,27
ffffffffa08057ac:	0060202d 	move	a0,v1
ffffffffa08057b0:	0000282d 	move	a1,zero
ffffffffa08057b4:	0040302d 	move	a2,v0
ffffffffa08057b8:	0c200efb 	jal	ffffffffa0803bec <memset>
ffffffffa08057bc:	00000000 	nop
ffffffffa08057c0:	3c020000 	lui	v0,0x0
ffffffffa08057c4:	64420000 	daddiu	v0,v0,0
ffffffffa08057c8:	00021438 	dsll	v0,v0,0x10
ffffffffa08057cc:	6442a080 	daddiu	v0,v0,-24448
ffffffffa08057d0:	00021438 	dsll	v0,v0,0x10
ffffffffa08057d4:	64425ad0 	daddiu	v0,v0,23248
ffffffffa08057d8:	ffc200b0 	sd	v0,176(s8)
ffffffffa08057dc:	24020002 	li	v0,2
ffffffffa08057e0:	afc200b8 	sw	v0,184(s8)
ffffffffa08057e4:	0c200ca8 	jal	ffffffffa08032a0 <get_ticks>
ffffffffa08057e8:	00000000 	nop
ffffffffa08057ec:	0002103c 	dsll32	v0,v0,0x0
ffffffffa08057f0:	0002103e 	dsrl32	v0,v0,0x0
ffffffffa08057f4:	ffc20008 	sd	v0,8(s8)
ffffffffa08057f8:	67c20030 	daddiu	v0,s8,48
ffffffffa08057fc:	0040202d 	move	a0,v0
ffffffffa0805800:	0c200cf4 	jal	ffffffffa08033d0 <sys_spawn>
ffffffffa0805804:	00000000 	nop
ffffffffa0805808:	afc20010 	sw	v0,16(s8)
ffffffffa080580c:	8fc20010 	lw	v0,16(s8)
ffffffffa0805810:	0040202d 	move	a0,v0
ffffffffa0805814:	0c200d1b 	jal	ffffffffa080346c <sys_waitpid>
ffffffffa0805818:	00000000 	nop
ffffffffa080581c:	0c200ca8 	jal	ffffffffa08032a0 <get_ticks>
ffffffffa0805820:	00000000 	nop
ffffffffa0805824:	0002103c 	dsll32	v0,v0,0x0
ffffffffa0805828:	0002103e 	dsrl32	v0,v0,0x0
ffffffffa080582c:	ffc20018 	sd	v0,24(s8)
ffffffffa0805830:	0000202d 	move	a0,zero
ffffffffa0805834:	24050003 	li	a1,3
ffffffffa0805838:	0c200d37 	jal	ffffffffa08034dc <sys_move_cursor>
ffffffffa080583c:	00000000 	nop
ffffffffa0805840:	dfc30018 	ld	v1,24(s8)
ffffffffa0805844:	dfc20008 	ld	v0,8(s8)
ffffffffa0805848:	0062182f 	dsubu	v1,v1,v0
ffffffffa080584c:	8fc50010 	lw	a1,16(s8)
ffffffffa0805850:	3c020000 	lui	v0,0x0
ffffffffa0805854:	64420000 	daddiu	v0,v0,0
ffffffffa0805858:	00021438 	dsll	v0,v0,0x10
ffffffffa080585c:	6442a080 	daddiu	v0,v0,-24448
ffffffffa0805860:	00021438 	dsll	v0,v0,0x10
ffffffffa0805864:	64447508 	daddiu	a0,v0,29960
ffffffffa0805868:	0060302d 	move	a2,v1
ffffffffa080586c:	0c2011fd 	jal	ffffffffa08047f4 <printf>
ffffffffa0805870:	00000000 	nop
ffffffffa0805874:	0c200ca8 	jal	ffffffffa08032a0 <get_ticks>
ffffffffa0805878:	00000000 	nop
ffffffffa080587c:	0002103c 	dsll32	v0,v0,0x0
ffffffffa0805880:	0002103e 	dsrl32	v0,v0,0x0
ffffffffa0805884:	ffc20020 	sd	v0,32(s8)
ffffffffa0805888:	67c20060 	daddiu	v0,s8,96
ffffffffa080588c:	0040202d 	move	a0,v0
ffffffffa0805890:	0c200cf4 	jal	ffffffffa08033d0 <sys_spawn>
ffffffffa0805894:	00000000 	nop
ffffffffa0805898:	afc200f0 	sw	v0,240(s8)
ffffffffa080589c:	67c20090 	daddiu	v0,s8,144
ffffffffa08058a0:	0040202d 	move	a0,v0
ffffffffa08058a4:	0c200cf4 	jal	ffffffffa08033d0 <sys_spawn>
ffffffffa08058a8:	00000000 	nop
ffffffffa08058ac:	afc200f4 	sw	v0,244(s8)
ffffffffa08058b0:	afc00000 	sw	zero,0(s8)
ffffffffa08058b4:	08201639 	j	ffffffffa08058e4 <test_multicore+0x2c4>
ffffffffa08058b8:	00000000 	nop
ffffffffa08058bc:	8fc20000 	lw	v0,0(s8)
ffffffffa08058c0:	000210b8 	dsll	v0,v0,0x2
ffffffffa08058c4:	03c2102d 	daddu	v0,s8,v0
ffffffffa08058c8:	8c4200f0 	lw	v0,240(v0)
ffffffffa08058cc:	0040202d 	move	a0,v0
ffffffffa08058d0:	0c200d1b 	jal	ffffffffa080346c <sys_waitpid>
ffffffffa08058d4:	00000000 	nop
ffffffffa08058d8:	8fc20000 	lw	v0,0(s8)
ffffffffa08058dc:	24420001 	addiu	v0,v0,1
ffffffffa08058e0:	afc20000 	sw	v0,0(s8)
ffffffffa08058e4:	8fc20000 	lw	v0,0(s8)
ffffffffa08058e8:	28420002 	slti	v0,v0,2
ffffffffa08058ec:	1440fff3 	bnez	v0,ffffffffa08058bc <test_multicore+0x29c>
ffffffffa08058f0:	00000000 	nop
ffffffffa08058f4:	0c200ca8 	jal	ffffffffa08032a0 <get_ticks>
ffffffffa08058f8:	00000000 	nop
ffffffffa08058fc:	0002103c 	dsll32	v0,v0,0x0
ffffffffa0805900:	0002103e 	dsrl32	v0,v0,0x0
ffffffffa0805904:	ffc20028 	sd	v0,40(s8)
ffffffffa0805908:	0000202d 	move	a0,zero
ffffffffa080590c:	24050009 	li	a1,9
ffffffffa0805910:	0c200d37 	jal	ffffffffa08034dc <sys_move_cursor>
ffffffffa0805914:	00000000 	nop
ffffffffa0805918:	8fc500f0 	lw	a1,240(s8)
ffffffffa080591c:	8fc600f4 	lw	a2,244(s8)
ffffffffa0805920:	dfc30028 	ld	v1,40(s8)
ffffffffa0805924:	dfc20020 	ld	v0,32(s8)
ffffffffa0805928:	0062182f 	dsubu	v1,v1,v0
ffffffffa080592c:	3c020000 	lui	v0,0x0
ffffffffa0805930:	64420000 	daddiu	v0,v0,0
ffffffffa0805934:	00021438 	dsll	v0,v0,0x10
ffffffffa0805938:	6442a080 	daddiu	v0,v0,-24448
ffffffffa080593c:	00021438 	dsll	v0,v0,0x10
ffffffffa0805940:	64447538 	daddiu	a0,v0,30008
ffffffffa0805944:	0060382d 	move	a3,v1
ffffffffa0805948:	0c2011fd 	jal	ffffffffa08047f4 <printf>
ffffffffa080594c:	00000000 	nop
ffffffffa0805950:	0c200cfd 	jal	ffffffffa08033f4 <sys_exit>
ffffffffa0805954:	00000000 	nop
ffffffffa0805958:	03c0e82d 	move	sp,s8
ffffffffa080595c:	dfbf0108 	ld	ra,264(sp)
ffffffffa0805960:	dfbe0100 	ld	s8,256(sp)
ffffffffa0805964:	67bd0110 	daddiu	sp,sp,272
ffffffffa0805968:	03e00008 	jr	ra
ffffffffa080596c:	00000000 	nop

ffffffffa0805970 <add_task1>:
ffffffffa0805970:	67bdffd0 	daddiu	sp,sp,-48
ffffffffa0805974:	ffbf0028 	sd	ra,40(sp)
ffffffffa0805978:	ffbe0020 	sd	s8,32(sp)
ffffffffa080597c:	03a0f02d 	move	s8,sp
ffffffffa0805980:	24020002 	li	v0,2
ffffffffa0805984:	afc20008 	sw	v0,8(s8)
ffffffffa0805988:	afc0000c 	sw	zero,12(s8)
ffffffffa080598c:	24027530 	li	v0,30000
ffffffffa0805990:	afc20010 	sw	v0,16(s8)
ffffffffa0805994:	afc00000 	sw	zero,0(s8)
ffffffffa0805998:	8fc2000c 	lw	v0,12(s8)
ffffffffa080599c:	afc20004 	sw	v0,4(s8)
ffffffffa08059a0:	0820167b 	j	ffffffffa08059ec <add_task1+0x7c>
ffffffffa08059a4:	00000000 	nop
ffffffffa08059a8:	8fc30000 	lw	v1,0(s8)
ffffffffa08059ac:	8fc20004 	lw	v0,4(s8)
ffffffffa08059b0:	00621021 	addu	v0,v1,v0
ffffffffa08059b4:	3c0368c8 	lui	v1,0x68c8
ffffffffa08059b8:	3463c4ad 	ori	v1,v1,0xc4ad
ffffffffa08059bc:	00430018 	mult	v0,v1
ffffffffa08059c0:	00001810 	mfhi	v1
ffffffffa08059c4:	00032303 	sra	a0,v1,0xc
ffffffffa08059c8:	00021fc3 	sra	v1,v0,0x1f
ffffffffa08059cc:	00832023 	subu	a0,a0,v1
ffffffffa08059d0:	24032717 	li	v1,10007
ffffffffa08059d4:	70831802 	mul	v1,a0,v1
ffffffffa08059d8:	00431023 	subu	v0,v0,v1
ffffffffa08059dc:	afc20000 	sw	v0,0(s8)
ffffffffa08059e0:	8fc20004 	lw	v0,4(s8)
ffffffffa08059e4:	24420001 	addiu	v0,v0,1
ffffffffa08059e8:	afc20004 	sw	v0,4(s8)
ffffffffa08059ec:	8fc30004 	lw	v1,4(s8)
ffffffffa08059f0:	8fc20010 	lw	v0,16(s8)
ffffffffa08059f4:	0062102a 	slt	v0,v1,v0
ffffffffa08059f8:	1440ffeb 	bnez	v0,ffffffffa08059a8 <add_task1+0x38>
ffffffffa08059fc:	00000000 	nop
ffffffffa0805a00:	0c200cfd 	jal	ffffffffa08033f4 <sys_exit>
ffffffffa0805a04:	00000000 	nop
ffffffffa0805a08:	03c0e82d 	move	sp,s8
ffffffffa0805a0c:	dfbf0028 	ld	ra,40(sp)
ffffffffa0805a10:	dfbe0020 	ld	s8,32(sp)
ffffffffa0805a14:	67bd0030 	daddiu	sp,sp,48
ffffffffa0805a18:	03e00008 	jr	ra
ffffffffa0805a1c:	00000000 	nop

ffffffffa0805a20 <add_task2>:
ffffffffa0805a20:	67bdffd0 	daddiu	sp,sp,-48
ffffffffa0805a24:	ffbf0028 	sd	ra,40(sp)
ffffffffa0805a28:	ffbe0020 	sd	s8,32(sp)
ffffffffa0805a2c:	03a0f02d 	move	s8,sp
ffffffffa0805a30:	24020004 	li	v0,4
ffffffffa0805a34:	afc20008 	sw	v0,8(s8)
ffffffffa0805a38:	afc0000c 	sw	zero,12(s8)
ffffffffa0805a3c:	24023a98 	li	v0,15000
ffffffffa0805a40:	afc20010 	sw	v0,16(s8)
ffffffffa0805a44:	afc00000 	sw	zero,0(s8)
ffffffffa0805a48:	8fc2000c 	lw	v0,12(s8)
ffffffffa0805a4c:	afc20004 	sw	v0,4(s8)
ffffffffa0805a50:	082016a7 	j	ffffffffa0805a9c <add_task2+0x7c>
ffffffffa0805a54:	00000000 	nop
ffffffffa0805a58:	8fc30000 	lw	v1,0(s8)
ffffffffa0805a5c:	8fc20004 	lw	v0,4(s8)
ffffffffa0805a60:	00621021 	addu	v0,v1,v0
ffffffffa0805a64:	3c0368c8 	lui	v1,0x68c8
ffffffffa0805a68:	3463c4ad 	ori	v1,v1,0xc4ad
ffffffffa0805a6c:	00430018 	mult	v0,v1
ffffffffa0805a70:	00001810 	mfhi	v1
ffffffffa0805a74:	00032303 	sra	a0,v1,0xc
ffffffffa0805a78:	00021fc3 	sra	v1,v0,0x1f
ffffffffa0805a7c:	00832023 	subu	a0,a0,v1
ffffffffa0805a80:	24032717 	li	v1,10007
ffffffffa0805a84:	70831802 	mul	v1,a0,v1
ffffffffa0805a88:	00431023 	subu	v0,v0,v1
ffffffffa0805a8c:	afc20000 	sw	v0,0(s8)
ffffffffa0805a90:	8fc20004 	lw	v0,4(s8)
ffffffffa0805a94:	24420001 	addiu	v0,v0,1
ffffffffa0805a98:	afc20004 	sw	v0,4(s8)
ffffffffa0805a9c:	8fc30004 	lw	v1,4(s8)
ffffffffa0805aa0:	8fc20010 	lw	v0,16(s8)
ffffffffa0805aa4:	0062102a 	slt	v0,v1,v0
ffffffffa0805aa8:	1440ffeb 	bnez	v0,ffffffffa0805a58 <add_task2+0x38>
ffffffffa0805aac:	00000000 	nop
ffffffffa0805ab0:	0c200cfd 	jal	ffffffffa08033f4 <sys_exit>
ffffffffa0805ab4:	00000000 	nop
ffffffffa0805ab8:	03c0e82d 	move	sp,s8
ffffffffa0805abc:	dfbf0028 	ld	ra,40(sp)
ffffffffa0805ac0:	dfbe0020 	ld	s8,32(sp)
ffffffffa0805ac4:	67bd0030 	daddiu	sp,sp,48
ffffffffa0805ac8:	03e00008 	jr	ra
ffffffffa0805acc:	00000000 	nop

ffffffffa0805ad0 <add_task3>:
ffffffffa0805ad0:	67bdffd0 	daddiu	sp,sp,-48
ffffffffa0805ad4:	ffbf0028 	sd	ra,40(sp)
ffffffffa0805ad8:	ffbe0020 	sd	s8,32(sp)
ffffffffa0805adc:	03a0f02d 	move	s8,sp
ffffffffa0805ae0:	24020006 	li	v0,6
ffffffffa0805ae4:	afc20008 	sw	v0,8(s8)
ffffffffa0805ae8:	24023a98 	li	v0,15000
ffffffffa0805aec:	afc2000c 	sw	v0,12(s8)
ffffffffa0805af0:	24027530 	li	v0,30000
ffffffffa0805af4:	afc20010 	sw	v0,16(s8)
ffffffffa0805af8:	afc00000 	sw	zero,0(s8)
ffffffffa0805afc:	8fc2000c 	lw	v0,12(s8)
ffffffffa0805b00:	afc20004 	sw	v0,4(s8)
ffffffffa0805b04:	082016d4 	j	ffffffffa0805b50 <add_task3+0x80>
ffffffffa0805b08:	00000000 	nop
ffffffffa0805b0c:	8fc30000 	lw	v1,0(s8)
ffffffffa0805b10:	8fc20004 	lw	v0,4(s8)
ffffffffa0805b14:	00621021 	addu	v0,v1,v0
ffffffffa0805b18:	3c0368c8 	lui	v1,0x68c8
ffffffffa0805b1c:	3463c4ad 	ori	v1,v1,0xc4ad
ffffffffa0805b20:	00430018 	mult	v0,v1
ffffffffa0805b24:	00001810 	mfhi	v1
ffffffffa0805b28:	00032303 	sra	a0,v1,0xc
ffffffffa0805b2c:	00021fc3 	sra	v1,v0,0x1f
ffffffffa0805b30:	00832023 	subu	a0,a0,v1
ffffffffa0805b34:	24032717 	li	v1,10007
ffffffffa0805b38:	70831802 	mul	v1,a0,v1
ffffffffa0805b3c:	00431023 	subu	v0,v0,v1
ffffffffa0805b40:	afc20000 	sw	v0,0(s8)
ffffffffa0805b44:	8fc20004 	lw	v0,4(s8)
ffffffffa0805b48:	24420001 	addiu	v0,v0,1
ffffffffa0805b4c:	afc20004 	sw	v0,4(s8)
ffffffffa0805b50:	8fc30004 	lw	v1,4(s8)
ffffffffa0805b54:	8fc20010 	lw	v0,16(s8)
ffffffffa0805b58:	0062102a 	slt	v0,v1,v0
ffffffffa0805b5c:	1440ffeb 	bnez	v0,ffffffffa0805b0c <add_task3+0x3c>
ffffffffa0805b60:	00000000 	nop
ffffffffa0805b64:	0c200cfd 	jal	ffffffffa08033f4 <sys_exit>
ffffffffa0805b68:	00000000 	nop
ffffffffa0805b6c:	03c0e82d 	move	sp,s8
ffffffffa0805b70:	dfbf0028 	ld	ra,40(sp)
ffffffffa0805b74:	dfbe0020 	ld	s8,32(sp)
ffffffffa0805b78:	67bd0030 	daddiu	sp,sp,48
ffffffffa0805b7c:	03e00008 	jr	ra
ffffffffa0805b80:	00000000 	nop
	...

ffffffffa0805b90 <waiting_task1>:
ffffffffa0805b90:	67bdffe0 	daddiu	sp,sp,-32
ffffffffa0805b94:	ffbf0018 	sd	ra,24(sp)
ffffffffa0805b98:	ffbe0010 	sd	s8,16(sp)
ffffffffa0805b9c:	03a0f02d 	move	s8,sp
ffffffffa0805ba0:	24020001 	li	v0,1
ffffffffa0805ba4:	afc20000 	sw	v0,0(s8)
ffffffffa0805ba8:	8fc20000 	lw	v0,0(s8)
ffffffffa0805bac:	0000202d 	move	a0,zero
ffffffffa0805bb0:	0040282d 	move	a1,v0
ffffffffa0805bb4:	0c200190 	jal	ffffffffa0800640 <vt100_move_cursor>
ffffffffa0805bb8:	00000000 	nop
ffffffffa0805bbc:	8fc30000 	lw	v1,0(s8)
ffffffffa0805bc0:	3c020000 	lui	v0,0x0
ffffffffa0805bc4:	64420000 	daddiu	v0,v0,0
ffffffffa0805bc8:	00021438 	dsll	v0,v0,0x10
ffffffffa0805bcc:	6442a080 	daddiu	v0,v0,-24448
ffffffffa0805bd0:	00021438 	dsll	v0,v0,0x10
ffffffffa0805bd4:	644475e0 	daddiu	a0,v0,30176
ffffffffa0805bd8:	0060282d 	move	a1,v1
ffffffffa0805bdc:	0c2011d7 	jal	ffffffffa080475c <printk>
ffffffffa0805be0:	00000000 	nop
ffffffffa0805be4:	24040003 	li	a0,3
ffffffffa0805be8:	0c200aec 	jal	ffffffffa0802bb0 <do_waitpid>
ffffffffa0805bec:	00000000 	nop
ffffffffa0805bf0:	8fc20000 	lw	v0,0(s8)
ffffffffa0805bf4:	0000202d 	move	a0,zero
ffffffffa0805bf8:	0040282d 	move	a1,v0
ffffffffa0805bfc:	0c200190 	jal	ffffffffa0800640 <vt100_move_cursor>
ffffffffa0805c00:	00000000 	nop
ffffffffa0805c04:	3c020000 	lui	v0,0x0
ffffffffa0805c08:	64420000 	daddiu	v0,v0,0
ffffffffa0805c0c:	00021438 	dsll	v0,v0,0x10
ffffffffa0805c10:	6442a080 	daddiu	v0,v0,-24448
ffffffffa0805c14:	00021438 	dsll	v0,v0,0x10
ffffffffa0805c18:	64447610 	daddiu	a0,v0,30224
ffffffffa0805c1c:	0c2011d7 	jal	ffffffffa080475c <printk>
ffffffffa0805c20:	00000000 	nop
ffffffffa0805c24:	0c2000b2 	jal	ffffffffa08002c8 <do_scheduler>
ffffffffa0805c28:	00000000 	nop
ffffffffa0805c2c:	0c200973 	jal	ffffffffa08025cc <do_exit>
ffffffffa0805c30:	00000000 	nop
ffffffffa0805c34:	03c0e82d 	move	sp,s8
ffffffffa0805c38:	dfbf0018 	ld	ra,24(sp)
ffffffffa0805c3c:	dfbe0010 	ld	s8,16(sp)
ffffffffa0805c40:	67bd0020 	daddiu	sp,sp,32
ffffffffa0805c44:	03e00008 	jr	ra
ffffffffa0805c48:	00000000 	nop

ffffffffa0805c4c <waiting_task2>:
ffffffffa0805c4c:	67bdffe0 	daddiu	sp,sp,-32
ffffffffa0805c50:	ffbf0018 	sd	ra,24(sp)
ffffffffa0805c54:	ffbe0010 	sd	s8,16(sp)
ffffffffa0805c58:	03a0f02d 	move	s8,sp
ffffffffa0805c5c:	24020002 	li	v0,2
ffffffffa0805c60:	afc20000 	sw	v0,0(s8)
ffffffffa0805c64:	8fc20000 	lw	v0,0(s8)
ffffffffa0805c68:	0000202d 	move	a0,zero
ffffffffa0805c6c:	0040282d 	move	a1,v0
ffffffffa0805c70:	0c200190 	jal	ffffffffa0800640 <vt100_move_cursor>
ffffffffa0805c74:	00000000 	nop
ffffffffa0805c78:	8fc30000 	lw	v1,0(s8)
ffffffffa0805c7c:	3c020000 	lui	v0,0x0
ffffffffa0805c80:	64420000 	daddiu	v0,v0,0
ffffffffa0805c84:	00021438 	dsll	v0,v0,0x10
ffffffffa0805c88:	6442a080 	daddiu	v0,v0,-24448
ffffffffa0805c8c:	00021438 	dsll	v0,v0,0x10
ffffffffa0805c90:	644475e0 	daddiu	a0,v0,30176
ffffffffa0805c94:	0060282d 	move	a1,v1
ffffffffa0805c98:	0c2011d7 	jal	ffffffffa080475c <printk>
ffffffffa0805c9c:	00000000 	nop
ffffffffa0805ca0:	24040003 	li	a0,3
ffffffffa0805ca4:	0c200aec 	jal	ffffffffa0802bb0 <do_waitpid>
ffffffffa0805ca8:	00000000 	nop
ffffffffa0805cac:	8fc20000 	lw	v0,0(s8)
ffffffffa0805cb0:	0000202d 	move	a0,zero
ffffffffa0805cb4:	0040282d 	move	a1,v0
ffffffffa0805cb8:	0c200190 	jal	ffffffffa0800640 <vt100_move_cursor>
ffffffffa0805cbc:	00000000 	nop
ffffffffa0805cc0:	3c020000 	lui	v0,0x0
ffffffffa0805cc4:	64420000 	daddiu	v0,v0,0
ffffffffa0805cc8:	00021438 	dsll	v0,v0,0x10
ffffffffa0805ccc:	6442a080 	daddiu	v0,v0,-24448
ffffffffa0805cd0:	00021438 	dsll	v0,v0,0x10
ffffffffa0805cd4:	64447610 	daddiu	a0,v0,30224
ffffffffa0805cd8:	0c2011d7 	jal	ffffffffa080475c <printk>
ffffffffa0805cdc:	00000000 	nop
ffffffffa0805ce0:	0c2000b2 	jal	ffffffffa08002c8 <do_scheduler>
ffffffffa0805ce4:	00000000 	nop
ffffffffa0805ce8:	0c200973 	jal	ffffffffa08025cc <do_exit>
ffffffffa0805cec:	00000000 	nop
ffffffffa0805cf0:	03c0e82d 	move	sp,s8
ffffffffa0805cf4:	dfbf0018 	ld	ra,24(sp)
ffffffffa0805cf8:	dfbe0010 	ld	s8,16(sp)
ffffffffa0805cfc:	67bd0020 	daddiu	sp,sp,32
ffffffffa0805d00:	03e00008 	jr	ra
ffffffffa0805d04:	00000000 	nop

ffffffffa0805d08 <waited_task>:
ffffffffa0805d08:	67bdffe0 	daddiu	sp,sp,-32
ffffffffa0805d0c:	ffbf0018 	sd	ra,24(sp)
ffffffffa0805d10:	ffbe0010 	sd	s8,16(sp)
ffffffffa0805d14:	03a0f02d 	move	s8,sp
ffffffffa0805d18:	24020003 	li	v0,3
ffffffffa0805d1c:	afc20000 	sw	v0,0(s8)
ffffffffa0805d20:	8fc20000 	lw	v0,0(s8)
ffffffffa0805d24:	0000202d 	move	a0,zero
ffffffffa0805d28:	0040282d 	move	a1,v0
ffffffffa0805d2c:	0c200190 	jal	ffffffffa0800640 <vt100_move_cursor>
ffffffffa0805d30:	00000000 	nop
ffffffffa0805d34:	3c020000 	lui	v0,0x0
ffffffffa0805d38:	64420000 	daddiu	v0,v0,0
ffffffffa0805d3c:	00021438 	dsll	v0,v0,0x10
ffffffffa0805d40:	6442a080 	daddiu	v0,v0,-24448
ffffffffa0805d44:	00021438 	dsll	v0,v0,0x10
ffffffffa0805d48:	64447650 	daddiu	a0,v0,30288
ffffffffa0805d4c:	0c2011d7 	jal	ffffffffa080475c <printk>
ffffffffa0805d50:	00000000 	nop
ffffffffa0805d54:	0c2000b2 	jal	ffffffffa08002c8 <do_scheduler>
ffffffffa0805d58:	00000000 	nop
ffffffffa0805d5c:	0c200973 	jal	ffffffffa08025cc <do_exit>
ffffffffa0805d60:	00000000 	nop
ffffffffa0805d64:	03c0e82d 	move	sp,s8
ffffffffa0805d68:	dfbf0018 	ld	ra,24(sp)
ffffffffa0805d6c:	dfbe0010 	ld	s8,16(sp)
ffffffffa0805d70:	67bd0020 	daddiu	sp,sp,32
ffffffffa0805d74:	03e00008 	jr	ra
ffffffffa0805d78:	00000000 	nop
ffffffffa0805d7c:	00000000 	nop

ffffffffa0805d80 <producer_task>:
ffffffffa0805d80:	67bdffe0 	daddiu	sp,sp,-32
ffffffffa0805d84:	ffbf0018 	sd	ra,24(sp)
ffffffffa0805d88:	ffbe0010 	sd	s8,16(sp)
ffffffffa0805d8c:	03a0f02d 	move	s8,sp
ffffffffa0805d90:	24020001 	li	v0,1
ffffffffa0805d94:	afc20008 	sw	v0,8(s8)
ffffffffa0805d98:	24020003 	li	v0,3
ffffffffa0805d9c:	afc2000c 	sw	v0,12(s8)
ffffffffa0805da0:	afc00004 	sw	zero,4(s8)
ffffffffa0805da4:	afc00000 	sw	zero,0(s8)
ffffffffa0805da8:	082017ab 	j	ffffffffa0805eac <producer_task+0x12c>
ffffffffa0805dac:	00000000 	nop
ffffffffa0805db0:	3c020000 	lui	v0,0x0
ffffffffa0805db4:	64420000 	daddiu	v0,v0,0
ffffffffa0805db8:	00021438 	dsll	v0,v0,0x10
ffffffffa0805dbc:	6442a081 	daddiu	v0,v0,-24447
ffffffffa0805dc0:	00021438 	dsll	v0,v0,0x10
ffffffffa0805dc4:	6444fda0 	daddiu	a0,v0,-608
ffffffffa0805dc8:	0c200786 	jal	ffffffffa0801e18 <do_mutex_lock_acquire>
ffffffffa0805dcc:	00000000 	nop
ffffffffa0805dd0:	3c020000 	lui	v0,0x0
ffffffffa0805dd4:	64420000 	daddiu	v0,v0,0
ffffffffa0805dd8:	00021438 	dsll	v0,v0,0x10
ffffffffa0805ddc:	6442a081 	daddiu	v0,v0,-24447
ffffffffa0805de0:	00021438 	dsll	v0,v0,0x10
ffffffffa0805de4:	8c4298b0 	lw	v0,-26448(v0)
ffffffffa0805de8:	8fc3000c 	lw	v1,12(s8)
ffffffffa0805dec:	00621021 	addu	v0,v1,v0
ffffffffa0805df0:	0040182d 	move	v1,v0
ffffffffa0805df4:	3c020000 	lui	v0,0x0
ffffffffa0805df8:	64420000 	daddiu	v0,v0,0
ffffffffa0805dfc:	00021438 	dsll	v0,v0,0x10
ffffffffa0805e00:	6442a081 	daddiu	v0,v0,-24447
ffffffffa0805e04:	00021438 	dsll	v0,v0,0x10
ffffffffa0805e08:	ac4398b0 	sw	v1,-26448(v0)
ffffffffa0805e0c:	8fc30004 	lw	v1,4(s8)
ffffffffa0805e10:	8fc2000c 	lw	v0,12(s8)
ffffffffa0805e14:	00621021 	addu	v0,v1,v0
ffffffffa0805e18:	afc20004 	sw	v0,4(s8)
ffffffffa0805e1c:	3c020000 	lui	v0,0x0
ffffffffa0805e20:	64420000 	daddiu	v0,v0,0
ffffffffa0805e24:	00021438 	dsll	v0,v0,0x10
ffffffffa0805e28:	6442a081 	daddiu	v0,v0,-24447
ffffffffa0805e2c:	00021438 	dsll	v0,v0,0x10
ffffffffa0805e30:	6444fda0 	daddiu	a0,v0,-608
ffffffffa0805e34:	0c2007ab 	jal	ffffffffa0801eac <do_mutex_lock_release>
ffffffffa0805e38:	00000000 	nop
ffffffffa0805e3c:	8fc20008 	lw	v0,8(s8)
ffffffffa0805e40:	0000202d 	move	a0,zero
ffffffffa0805e44:	0040282d 	move	a1,v0
ffffffffa0805e48:	0c200190 	jal	ffffffffa0800640 <vt100_move_cursor>
ffffffffa0805e4c:	00000000 	nop
ffffffffa0805e50:	8fc30004 	lw	v1,4(s8)
ffffffffa0805e54:	3c020000 	lui	v0,0x0
ffffffffa0805e58:	64420000 	daddiu	v0,v0,0
ffffffffa0805e5c:	00021438 	dsll	v0,v0,0x10
ffffffffa0805e60:	6442a080 	daddiu	v0,v0,-24448
ffffffffa0805e64:	00021438 	dsll	v0,v0,0x10
ffffffffa0805e68:	64447680 	daddiu	a0,v0,30336
ffffffffa0805e6c:	0060282d 	move	a1,v1
ffffffffa0805e70:	0c2011d7 	jal	ffffffffa080475c <printk>
ffffffffa0805e74:	00000000 	nop
ffffffffa0805e78:	0c2000b2 	jal	ffffffffa08002c8 <do_scheduler>
ffffffffa0805e7c:	00000000 	nop
ffffffffa0805e80:	3c020000 	lui	v0,0x0
ffffffffa0805e84:	64420000 	daddiu	v0,v0,0
ffffffffa0805e88:	00021438 	dsll	v0,v0,0x10
ffffffffa0805e8c:	6442a081 	daddiu	v0,v0,-24447
ffffffffa0805e90:	00021438 	dsll	v0,v0,0x10
ffffffffa0805e94:	6444fd90 	daddiu	a0,v0,-624
ffffffffa0805e98:	0c2006d0 	jal	ffffffffa0801b40 <do_condition_broadcast>
ffffffffa0805e9c:	00000000 	nop
ffffffffa0805ea0:	8fc20000 	lw	v0,0(s8)
ffffffffa0805ea4:	24420001 	addiu	v0,v0,1
ffffffffa0805ea8:	afc20000 	sw	v0,0(s8)
ffffffffa0805eac:	8fc20000 	lw	v0,0(s8)
ffffffffa0805eb0:	28420032 	slti	v0,v0,50
ffffffffa0805eb4:	1440ffbe 	bnez	v0,ffffffffa0805db0 <producer_task+0x30>
ffffffffa0805eb8:	00000000 	nop
ffffffffa0805ebc:	0c200973 	jal	ffffffffa08025cc <do_exit>
ffffffffa0805ec0:	00000000 	nop
ffffffffa0805ec4:	03c0e82d 	move	sp,s8
ffffffffa0805ec8:	dfbf0018 	ld	ra,24(sp)
ffffffffa0805ecc:	dfbe0010 	ld	s8,16(sp)
ffffffffa0805ed0:	67bd0020 	daddiu	sp,sp,32
ffffffffa0805ed4:	03e00008 	jr	ra
ffffffffa0805ed8:	00000000 	nop

ffffffffa0805edc <consumer_task1>:
ffffffffa0805edc:	67bdffe0 	daddiu	sp,sp,-32
ffffffffa0805ee0:	ffbf0018 	sd	ra,24(sp)
ffffffffa0805ee4:	ffbe0010 	sd	s8,16(sp)
ffffffffa0805ee8:	03a0f02d 	move	s8,sp
ffffffffa0805eec:	24020002 	li	v0,2
ffffffffa0805ef0:	afc20004 	sw	v0,4(s8)
ffffffffa0805ef4:	24020001 	li	v0,1
ffffffffa0805ef8:	afc20008 	sw	v0,8(s8)
ffffffffa0805efc:	afc00000 	sw	zero,0(s8)
ffffffffa0805f00:	3c020000 	lui	v0,0x0
ffffffffa0805f04:	64420000 	daddiu	v0,v0,0
ffffffffa0805f08:	00021438 	dsll	v0,v0,0x10
ffffffffa0805f0c:	6442a081 	daddiu	v0,v0,-24447
ffffffffa0805f10:	00021438 	dsll	v0,v0,0x10
ffffffffa0805f14:	6444fda0 	daddiu	a0,v0,-608
ffffffffa0805f18:	0c200786 	jal	ffffffffa0801e18 <do_mutex_lock_acquire>
ffffffffa0805f1c:	00000000 	nop
ffffffffa0805f20:	082017d8 	j	ffffffffa0805f60 <consumer_task1+0x84>
ffffffffa0805f24:	00000000 	nop
ffffffffa0805f28:	3c020000 	lui	v0,0x0
ffffffffa0805f2c:	64420000 	daddiu	v0,v0,0
ffffffffa0805f30:	00021438 	dsll	v0,v0,0x10
ffffffffa0805f34:	6442a081 	daddiu	v0,v0,-24447
ffffffffa0805f38:	00021438 	dsll	v0,v0,0x10
ffffffffa0805f3c:	6444fda0 	daddiu	a0,v0,-608
ffffffffa0805f40:	3c020000 	lui	v0,0x0
ffffffffa0805f44:	64420000 	daddiu	v0,v0,0
ffffffffa0805f48:	00021438 	dsll	v0,v0,0x10
ffffffffa0805f4c:	6442a081 	daddiu	v0,v0,-24447
ffffffffa0805f50:	00021438 	dsll	v0,v0,0x10
ffffffffa0805f54:	6445fd90 	daddiu	a1,v0,-624
ffffffffa0805f58:	0c2006ab 	jal	ffffffffa0801aac <do_condition_wait>
ffffffffa0805f5c:	00000000 	nop
ffffffffa0805f60:	3c020000 	lui	v0,0x0
ffffffffa0805f64:	64420000 	daddiu	v0,v0,0
ffffffffa0805f68:	00021438 	dsll	v0,v0,0x10
ffffffffa0805f6c:	6442a081 	daddiu	v0,v0,-24447
ffffffffa0805f70:	00021438 	dsll	v0,v0,0x10
ffffffffa0805f74:	8c4298b0 	lw	v0,-26448(v0)
ffffffffa0805f78:	1040ffeb 	beqz	v0,ffffffffa0805f28 <consumer_task1+0x4c>
ffffffffa0805f7c:	00000000 	nop
ffffffffa0805f80:	3c020000 	lui	v0,0x0
ffffffffa0805f84:	64420000 	daddiu	v0,v0,0
ffffffffa0805f88:	00021438 	dsll	v0,v0,0x10
ffffffffa0805f8c:	6442a081 	daddiu	v0,v0,-24447
ffffffffa0805f90:	00021438 	dsll	v0,v0,0x10
ffffffffa0805f94:	8c4398b0 	lw	v1,-26448(v0)
ffffffffa0805f98:	8fc20008 	lw	v0,8(s8)
ffffffffa0805f9c:	00621023 	subu	v0,v1,v0
ffffffffa0805fa0:	0040182d 	move	v1,v0
ffffffffa0805fa4:	3c020000 	lui	v0,0x0
ffffffffa0805fa8:	64420000 	daddiu	v0,v0,0
ffffffffa0805fac:	00021438 	dsll	v0,v0,0x10
ffffffffa0805fb0:	6442a081 	daddiu	v0,v0,-24447
ffffffffa0805fb4:	00021438 	dsll	v0,v0,0x10
ffffffffa0805fb8:	ac4398b0 	sw	v1,-26448(v0)
ffffffffa0805fbc:	8fc30000 	lw	v1,0(s8)
ffffffffa0805fc0:	8fc20008 	lw	v0,8(s8)
ffffffffa0805fc4:	00621021 	addu	v0,v1,v0
ffffffffa0805fc8:	afc20000 	sw	v0,0(s8)
ffffffffa0805fcc:	8fc20004 	lw	v0,4(s8)
ffffffffa0805fd0:	0000202d 	move	a0,zero
ffffffffa0805fd4:	0040282d 	move	a1,v0
ffffffffa0805fd8:	0c200190 	jal	ffffffffa0800640 <vt100_move_cursor>
ffffffffa0805fdc:	00000000 	nop
ffffffffa0805fe0:	8fc30000 	lw	v1,0(s8)
ffffffffa0805fe4:	3c020000 	lui	v0,0x0
ffffffffa0805fe8:	64420000 	daddiu	v0,v0,0
ffffffffa0805fec:	00021438 	dsll	v0,v0,0x10
ffffffffa0805ff0:	6442a080 	daddiu	v0,v0,-24448
ffffffffa0805ff4:	00021438 	dsll	v0,v0,0x10
ffffffffa0805ff8:	644476a8 	daddiu	a0,v0,30376
ffffffffa0805ffc:	0060282d 	move	a1,v1
ffffffffa0806000:	0c2011d7 	jal	ffffffffa080475c <printk>
ffffffffa0806004:	00000000 	nop
ffffffffa0806008:	3c020000 	lui	v0,0x0
ffffffffa080600c:	64420000 	daddiu	v0,v0,0
ffffffffa0806010:	00021438 	dsll	v0,v0,0x10
ffffffffa0806014:	6442a081 	daddiu	v0,v0,-24447
ffffffffa0806018:	00021438 	dsll	v0,v0,0x10
ffffffffa080601c:	6444fda0 	daddiu	a0,v0,-608
ffffffffa0806020:	0c2007ab 	jal	ffffffffa0801eac <do_mutex_lock_release>
ffffffffa0806024:	00000000 	nop
ffffffffa0806028:	0c2000b2 	jal	ffffffffa08002c8 <do_scheduler>
ffffffffa080602c:	00000000 	nop
ffffffffa0806030:	082017c0 	j	ffffffffa0805f00 <consumer_task1+0x24>
ffffffffa0806034:	00000000 	nop

ffffffffa0806038 <consumer_task2>:
ffffffffa0806038:	67bdffe0 	daddiu	sp,sp,-32
ffffffffa080603c:	ffbf0018 	sd	ra,24(sp)
ffffffffa0806040:	ffbe0010 	sd	s8,16(sp)
ffffffffa0806044:	03a0f02d 	move	s8,sp
ffffffffa0806048:	24020003 	li	v0,3
ffffffffa080604c:	afc20004 	sw	v0,4(s8)
ffffffffa0806050:	24020001 	li	v0,1
ffffffffa0806054:	afc20008 	sw	v0,8(s8)
ffffffffa0806058:	afc00000 	sw	zero,0(s8)
ffffffffa080605c:	3c020000 	lui	v0,0x0
ffffffffa0806060:	64420000 	daddiu	v0,v0,0
ffffffffa0806064:	00021438 	dsll	v0,v0,0x10
ffffffffa0806068:	6442a081 	daddiu	v0,v0,-24447
ffffffffa080606c:	00021438 	dsll	v0,v0,0x10
ffffffffa0806070:	6444fda0 	daddiu	a0,v0,-608
ffffffffa0806074:	0c200786 	jal	ffffffffa0801e18 <do_mutex_lock_acquire>
ffffffffa0806078:	00000000 	nop
ffffffffa080607c:	0820182f 	j	ffffffffa08060bc <consumer_task2+0x84>
ffffffffa0806080:	00000000 	nop
ffffffffa0806084:	3c020000 	lui	v0,0x0
ffffffffa0806088:	64420000 	daddiu	v0,v0,0
ffffffffa080608c:	00021438 	dsll	v0,v0,0x10
ffffffffa0806090:	6442a081 	daddiu	v0,v0,-24447
ffffffffa0806094:	00021438 	dsll	v0,v0,0x10
ffffffffa0806098:	6444fda0 	daddiu	a0,v0,-608
ffffffffa080609c:	3c020000 	lui	v0,0x0
ffffffffa08060a0:	64420000 	daddiu	v0,v0,0
ffffffffa08060a4:	00021438 	dsll	v0,v0,0x10
ffffffffa08060a8:	6442a081 	daddiu	v0,v0,-24447
ffffffffa08060ac:	00021438 	dsll	v0,v0,0x10
ffffffffa08060b0:	6445fd90 	daddiu	a1,v0,-624
ffffffffa08060b4:	0c2006ab 	jal	ffffffffa0801aac <do_condition_wait>
ffffffffa08060b8:	00000000 	nop
ffffffffa08060bc:	3c020000 	lui	v0,0x0
ffffffffa08060c0:	64420000 	daddiu	v0,v0,0
ffffffffa08060c4:	00021438 	dsll	v0,v0,0x10
ffffffffa08060c8:	6442a081 	daddiu	v0,v0,-24447
ffffffffa08060cc:	00021438 	dsll	v0,v0,0x10
ffffffffa08060d0:	8c4298b0 	lw	v0,-26448(v0)
ffffffffa08060d4:	1040ffeb 	beqz	v0,ffffffffa0806084 <consumer_task2+0x4c>
ffffffffa08060d8:	00000000 	nop
ffffffffa08060dc:	3c020000 	lui	v0,0x0
ffffffffa08060e0:	64420000 	daddiu	v0,v0,0
ffffffffa08060e4:	00021438 	dsll	v0,v0,0x10
ffffffffa08060e8:	6442a081 	daddiu	v0,v0,-24447
ffffffffa08060ec:	00021438 	dsll	v0,v0,0x10
ffffffffa08060f0:	8c4398b0 	lw	v1,-26448(v0)
ffffffffa08060f4:	8fc20008 	lw	v0,8(s8)
ffffffffa08060f8:	00621023 	subu	v0,v1,v0
ffffffffa08060fc:	0040182d 	move	v1,v0
ffffffffa0806100:	3c020000 	lui	v0,0x0
ffffffffa0806104:	64420000 	daddiu	v0,v0,0
ffffffffa0806108:	00021438 	dsll	v0,v0,0x10
ffffffffa080610c:	6442a081 	daddiu	v0,v0,-24447
ffffffffa0806110:	00021438 	dsll	v0,v0,0x10
ffffffffa0806114:	ac4398b0 	sw	v1,-26448(v0)
ffffffffa0806118:	8fc30000 	lw	v1,0(s8)
ffffffffa080611c:	8fc20008 	lw	v0,8(s8)
ffffffffa0806120:	00621021 	addu	v0,v1,v0
ffffffffa0806124:	afc20000 	sw	v0,0(s8)
ffffffffa0806128:	8fc20004 	lw	v0,4(s8)
ffffffffa080612c:	0000202d 	move	a0,zero
ffffffffa0806130:	0040282d 	move	a1,v0
ffffffffa0806134:	0c200190 	jal	ffffffffa0800640 <vt100_move_cursor>
ffffffffa0806138:	00000000 	nop
ffffffffa080613c:	8fc30000 	lw	v1,0(s8)
ffffffffa0806140:	3c020000 	lui	v0,0x0
ffffffffa0806144:	64420000 	daddiu	v0,v0,0
ffffffffa0806148:	00021438 	dsll	v0,v0,0x10
ffffffffa080614c:	6442a080 	daddiu	v0,v0,-24448
ffffffffa0806150:	00021438 	dsll	v0,v0,0x10
ffffffffa0806154:	644476a8 	daddiu	a0,v0,30376
ffffffffa0806158:	0060282d 	move	a1,v1
ffffffffa080615c:	0c2011d7 	jal	ffffffffa080475c <printk>
ffffffffa0806160:	00000000 	nop
ffffffffa0806164:	3c020000 	lui	v0,0x0
ffffffffa0806168:	64420000 	daddiu	v0,v0,0
ffffffffa080616c:	00021438 	dsll	v0,v0,0x10
ffffffffa0806170:	6442a081 	daddiu	v0,v0,-24447
ffffffffa0806174:	00021438 	dsll	v0,v0,0x10
ffffffffa0806178:	6444fda0 	daddiu	a0,v0,-608
ffffffffa080617c:	0c2007ab 	jal	ffffffffa0801eac <do_mutex_lock_release>
ffffffffa0806180:	00000000 	nop
ffffffffa0806184:	0c2000b2 	jal	ffffffffa08002c8 <do_scheduler>
ffffffffa0806188:	00000000 	nop
ffffffffa080618c:	08201817 	j	ffffffffa080605c <consumer_task2+0x24>
ffffffffa0806190:	00000000 	nop
	...

ffffffffa08061a0 <semaphore_add_task1>:
ffffffffa08061a0:	67bdffe0 	daddiu	sp,sp,-32
ffffffffa08061a4:	ffbf0018 	sd	ra,24(sp)
ffffffffa08061a8:	ffbe0010 	sd	s8,16(sp)
ffffffffa08061ac:	03a0f02d 	move	s8,sp
ffffffffa08061b0:	24020001 	li	v0,1
ffffffffa08061b4:	afc20004 	sw	v0,4(s8)
ffffffffa08061b8:	3c020000 	lui	v0,0x0
ffffffffa08061bc:	64420000 	daddiu	v0,v0,0
ffffffffa08061c0:	00021438 	dsll	v0,v0,0x10
ffffffffa08061c4:	6442a081 	daddiu	v0,v0,-24447
ffffffffa08061c8:	00021438 	dsll	v0,v0,0x10
ffffffffa08061cc:	6444fdc8 	daddiu	a0,v0,-568
ffffffffa08061d0:	24050001 	li	a1,1
ffffffffa08061d4:	0c2006e0 	jal	ffffffffa0801b80 <do_semaphore_init>
ffffffffa08061d8:	00000000 	nop
ffffffffa08061dc:	afc00000 	sw	zero,0(s8)
ffffffffa08061e0:	082018b4 	j	ffffffffa08062d0 <semaphore_add_task1+0x130>
ffffffffa08061e4:	00000000 	nop
ffffffffa08061e8:	3c020000 	lui	v0,0x0
ffffffffa08061ec:	64420000 	daddiu	v0,v0,0
ffffffffa08061f0:	00021438 	dsll	v0,v0,0x10
ffffffffa08061f4:	6442a081 	daddiu	v0,v0,-24447
ffffffffa08061f8:	00021438 	dsll	v0,v0,0x10
ffffffffa08061fc:	6444fdc8 	daddiu	a0,v0,-568
ffffffffa0806200:	0c200709 	jal	ffffffffa0801c24 <do_semaphore_down>
ffffffffa0806204:	00000000 	nop
ffffffffa0806208:	3c020000 	lui	v0,0x0
ffffffffa080620c:	64420000 	daddiu	v0,v0,0
ffffffffa0806210:	00021438 	dsll	v0,v0,0x10
ffffffffa0806214:	6442a081 	daddiu	v0,v0,-24447
ffffffffa0806218:	00021438 	dsll	v0,v0,0x10
ffffffffa080621c:	8c4298c0 	lw	v0,-26432(v0)
ffffffffa0806220:	24420001 	addiu	v0,v0,1
ffffffffa0806224:	0040182d 	move	v1,v0
ffffffffa0806228:	3c020000 	lui	v0,0x0
ffffffffa080622c:	64420000 	daddiu	v0,v0,0
ffffffffa0806230:	00021438 	dsll	v0,v0,0x10
ffffffffa0806234:	6442a081 	daddiu	v0,v0,-24447
ffffffffa0806238:	00021438 	dsll	v0,v0,0x10
ffffffffa080623c:	ac4398c0 	sw	v1,-26432(v0)
ffffffffa0806240:	3c020000 	lui	v0,0x0
ffffffffa0806244:	64420000 	daddiu	v0,v0,0
ffffffffa0806248:	00021438 	dsll	v0,v0,0x10
ffffffffa080624c:	6442a081 	daddiu	v0,v0,-24447
ffffffffa0806250:	00021438 	dsll	v0,v0,0x10
ffffffffa0806254:	6444fdc8 	daddiu	a0,v0,-568
ffffffffa0806258:	0c2006ef 	jal	ffffffffa0801bbc <do_semaphore_up>
ffffffffa080625c:	00000000 	nop
ffffffffa0806260:	8fc20004 	lw	v0,4(s8)
ffffffffa0806264:	0000202d 	move	a0,zero
ffffffffa0806268:	0040282d 	move	a1,v0
ffffffffa080626c:	0c200190 	jal	ffffffffa0800640 <vt100_move_cursor>
ffffffffa0806270:	00000000 	nop
ffffffffa0806274:	3c020000 	lui	v0,0x0
ffffffffa0806278:	64420000 	daddiu	v0,v0,0
ffffffffa080627c:	00021438 	dsll	v0,v0,0x10
ffffffffa0806280:	6442a081 	daddiu	v0,v0,-24447
ffffffffa0806284:	00021438 	dsll	v0,v0,0x10
ffffffffa0806288:	8c4598c0 	lw	a1,-26432(v0)
ffffffffa080628c:	8fc20000 	lw	v0,0(s8)
ffffffffa0806290:	24420001 	addiu	v0,v0,1
ffffffffa0806294:	0040182d 	move	v1,v0
ffffffffa0806298:	3c020000 	lui	v0,0x0
ffffffffa080629c:	64420000 	daddiu	v0,v0,0
ffffffffa08062a0:	00021438 	dsll	v0,v0,0x10
ffffffffa08062a4:	6442a080 	daddiu	v0,v0,-24448
ffffffffa08062a8:	00021438 	dsll	v0,v0,0x10
ffffffffa08062ac:	644476d0 	daddiu	a0,v0,30416
ffffffffa08062b0:	0060302d 	move	a2,v1
ffffffffa08062b4:	0c2011d7 	jal	ffffffffa080475c <printk>
ffffffffa08062b8:	00000000 	nop
ffffffffa08062bc:	0c2000b2 	jal	ffffffffa08002c8 <do_scheduler>
ffffffffa08062c0:	00000000 	nop
ffffffffa08062c4:	8fc20000 	lw	v0,0(s8)
ffffffffa08062c8:	24420001 	addiu	v0,v0,1
ffffffffa08062cc:	afc20000 	sw	v0,0(s8)
ffffffffa08062d0:	8fc20000 	lw	v0,0(s8)
ffffffffa08062d4:	2842000a 	slti	v0,v0,10
ffffffffa08062d8:	1440ffc3 	bnez	v0,ffffffffa08061e8 <semaphore_add_task1+0x48>
ffffffffa08062dc:	00000000 	nop
ffffffffa08062e0:	0c200973 	jal	ffffffffa08025cc <do_exit>
ffffffffa08062e4:	00000000 	nop
ffffffffa08062e8:	03c0e82d 	move	sp,s8
ffffffffa08062ec:	dfbf0018 	ld	ra,24(sp)
ffffffffa08062f0:	dfbe0010 	ld	s8,16(sp)
ffffffffa08062f4:	67bd0020 	daddiu	sp,sp,32
ffffffffa08062f8:	03e00008 	jr	ra
ffffffffa08062fc:	00000000 	nop

ffffffffa0806300 <semaphore_add_task2>:
ffffffffa0806300:	67bdffe0 	daddiu	sp,sp,-32
ffffffffa0806304:	ffbf0018 	sd	ra,24(sp)
ffffffffa0806308:	ffbe0010 	sd	s8,16(sp)
ffffffffa080630c:	03a0f02d 	move	s8,sp
ffffffffa0806310:	24020002 	li	v0,2
ffffffffa0806314:	afc20004 	sw	v0,4(s8)
ffffffffa0806318:	afc00000 	sw	zero,0(s8)
ffffffffa080631c:	08201903 	j	ffffffffa080640c <semaphore_add_task2+0x10c>
ffffffffa0806320:	00000000 	nop
ffffffffa0806324:	3c020000 	lui	v0,0x0
ffffffffa0806328:	64420000 	daddiu	v0,v0,0
ffffffffa080632c:	00021438 	dsll	v0,v0,0x10
ffffffffa0806330:	6442a081 	daddiu	v0,v0,-24447
ffffffffa0806334:	00021438 	dsll	v0,v0,0x10
ffffffffa0806338:	6444fdc8 	daddiu	a0,v0,-568
ffffffffa080633c:	0c200709 	jal	ffffffffa0801c24 <do_semaphore_down>
ffffffffa0806340:	00000000 	nop
ffffffffa0806344:	3c020000 	lui	v0,0x0
ffffffffa0806348:	64420000 	daddiu	v0,v0,0
ffffffffa080634c:	00021438 	dsll	v0,v0,0x10
ffffffffa0806350:	6442a081 	daddiu	v0,v0,-24447
ffffffffa0806354:	00021438 	dsll	v0,v0,0x10
ffffffffa0806358:	8c4298c0 	lw	v0,-26432(v0)
ffffffffa080635c:	24420001 	addiu	v0,v0,1
ffffffffa0806360:	0040182d 	move	v1,v0
ffffffffa0806364:	3c020000 	lui	v0,0x0
ffffffffa0806368:	64420000 	daddiu	v0,v0,0
ffffffffa080636c:	00021438 	dsll	v0,v0,0x10
ffffffffa0806370:	6442a081 	daddiu	v0,v0,-24447
ffffffffa0806374:	00021438 	dsll	v0,v0,0x10
ffffffffa0806378:	ac4398c0 	sw	v1,-26432(v0)
ffffffffa080637c:	3c020000 	lui	v0,0x0
ffffffffa0806380:	64420000 	daddiu	v0,v0,0
ffffffffa0806384:	00021438 	dsll	v0,v0,0x10
ffffffffa0806388:	6442a081 	daddiu	v0,v0,-24447
ffffffffa080638c:	00021438 	dsll	v0,v0,0x10
ffffffffa0806390:	6444fdc8 	daddiu	a0,v0,-568
ffffffffa0806394:	0c2006ef 	jal	ffffffffa0801bbc <do_semaphore_up>
ffffffffa0806398:	00000000 	nop
ffffffffa080639c:	8fc20004 	lw	v0,4(s8)
ffffffffa08063a0:	0000202d 	move	a0,zero
ffffffffa08063a4:	0040282d 	move	a1,v0
ffffffffa08063a8:	0c200190 	jal	ffffffffa0800640 <vt100_move_cursor>
ffffffffa08063ac:	00000000 	nop
ffffffffa08063b0:	3c020000 	lui	v0,0x0
ffffffffa08063b4:	64420000 	daddiu	v0,v0,0
ffffffffa08063b8:	00021438 	dsll	v0,v0,0x10
ffffffffa08063bc:	6442a081 	daddiu	v0,v0,-24447
ffffffffa08063c0:	00021438 	dsll	v0,v0,0x10
ffffffffa08063c4:	8c4598c0 	lw	a1,-26432(v0)
ffffffffa08063c8:	8fc20000 	lw	v0,0(s8)
ffffffffa08063cc:	24420001 	addiu	v0,v0,1
ffffffffa08063d0:	0040182d 	move	v1,v0
ffffffffa08063d4:	3c020000 	lui	v0,0x0
ffffffffa08063d8:	64420000 	daddiu	v0,v0,0
ffffffffa08063dc:	00021438 	dsll	v0,v0,0x10
ffffffffa08063e0:	6442a080 	daddiu	v0,v0,-24448
ffffffffa08063e4:	00021438 	dsll	v0,v0,0x10
ffffffffa08063e8:	644476d0 	daddiu	a0,v0,30416
ffffffffa08063ec:	0060302d 	move	a2,v1
ffffffffa08063f0:	0c2011d7 	jal	ffffffffa080475c <printk>
ffffffffa08063f4:	00000000 	nop
ffffffffa08063f8:	0c2000b2 	jal	ffffffffa08002c8 <do_scheduler>
ffffffffa08063fc:	00000000 	nop
ffffffffa0806400:	8fc20000 	lw	v0,0(s8)
ffffffffa0806404:	24420001 	addiu	v0,v0,1
ffffffffa0806408:	afc20000 	sw	v0,0(s8)
ffffffffa080640c:	8fc20000 	lw	v0,0(s8)
ffffffffa0806410:	28420014 	slti	v0,v0,20
ffffffffa0806414:	1440ffc3 	bnez	v0,ffffffffa0806324 <semaphore_add_task2+0x24>
ffffffffa0806418:	00000000 	nop
ffffffffa080641c:	0c200973 	jal	ffffffffa08025cc <do_exit>
ffffffffa0806420:	00000000 	nop
ffffffffa0806424:	03c0e82d 	move	sp,s8
ffffffffa0806428:	dfbf0018 	ld	ra,24(sp)
ffffffffa080642c:	dfbe0010 	ld	s8,16(sp)
ffffffffa0806430:	67bd0020 	daddiu	sp,sp,32
ffffffffa0806434:	03e00008 	jr	ra
ffffffffa0806438:	00000000 	nop

ffffffffa080643c <semaphore_add_task3>:
ffffffffa080643c:	67bdffe0 	daddiu	sp,sp,-32
ffffffffa0806440:	ffbf0018 	sd	ra,24(sp)
ffffffffa0806444:	ffbe0010 	sd	s8,16(sp)
ffffffffa0806448:	03a0f02d 	move	s8,sp
ffffffffa080644c:	24020003 	li	v0,3
ffffffffa0806450:	afc20004 	sw	v0,4(s8)
ffffffffa0806454:	afc00000 	sw	zero,0(s8)
ffffffffa0806458:	08201952 	j	ffffffffa0806548 <semaphore_add_task3+0x10c>
ffffffffa080645c:	00000000 	nop
ffffffffa0806460:	3c020000 	lui	v0,0x0
ffffffffa0806464:	64420000 	daddiu	v0,v0,0
ffffffffa0806468:	00021438 	dsll	v0,v0,0x10
ffffffffa080646c:	6442a081 	daddiu	v0,v0,-24447
ffffffffa0806470:	00021438 	dsll	v0,v0,0x10
ffffffffa0806474:	6444fdc8 	daddiu	a0,v0,-568
ffffffffa0806478:	0c200709 	jal	ffffffffa0801c24 <do_semaphore_down>
ffffffffa080647c:	00000000 	nop
ffffffffa0806480:	3c020000 	lui	v0,0x0
ffffffffa0806484:	64420000 	daddiu	v0,v0,0
ffffffffa0806488:	00021438 	dsll	v0,v0,0x10
ffffffffa080648c:	6442a081 	daddiu	v0,v0,-24447
ffffffffa0806490:	00021438 	dsll	v0,v0,0x10
ffffffffa0806494:	8c4298c0 	lw	v0,-26432(v0)
ffffffffa0806498:	24420001 	addiu	v0,v0,1
ffffffffa080649c:	0040182d 	move	v1,v0
ffffffffa08064a0:	3c020000 	lui	v0,0x0
ffffffffa08064a4:	64420000 	daddiu	v0,v0,0
ffffffffa08064a8:	00021438 	dsll	v0,v0,0x10
ffffffffa08064ac:	6442a081 	daddiu	v0,v0,-24447
ffffffffa08064b0:	00021438 	dsll	v0,v0,0x10
ffffffffa08064b4:	ac4398c0 	sw	v1,-26432(v0)
ffffffffa08064b8:	3c020000 	lui	v0,0x0
ffffffffa08064bc:	64420000 	daddiu	v0,v0,0
ffffffffa08064c0:	00021438 	dsll	v0,v0,0x10
ffffffffa08064c4:	6442a081 	daddiu	v0,v0,-24447
ffffffffa08064c8:	00021438 	dsll	v0,v0,0x10
ffffffffa08064cc:	6444fdc8 	daddiu	a0,v0,-568
ffffffffa08064d0:	0c2006ef 	jal	ffffffffa0801bbc <do_semaphore_up>
ffffffffa08064d4:	00000000 	nop
ffffffffa08064d8:	8fc20004 	lw	v0,4(s8)
ffffffffa08064dc:	0000202d 	move	a0,zero
ffffffffa08064e0:	0040282d 	move	a1,v0
ffffffffa08064e4:	0c200190 	jal	ffffffffa0800640 <vt100_move_cursor>
ffffffffa08064e8:	00000000 	nop
ffffffffa08064ec:	3c020000 	lui	v0,0x0
ffffffffa08064f0:	64420000 	daddiu	v0,v0,0
ffffffffa08064f4:	00021438 	dsll	v0,v0,0x10
ffffffffa08064f8:	6442a081 	daddiu	v0,v0,-24447
ffffffffa08064fc:	00021438 	dsll	v0,v0,0x10
ffffffffa0806500:	8c4598c0 	lw	a1,-26432(v0)
ffffffffa0806504:	8fc20000 	lw	v0,0(s8)
ffffffffa0806508:	24420001 	addiu	v0,v0,1
ffffffffa080650c:	0040182d 	move	v1,v0
ffffffffa0806510:	3c020000 	lui	v0,0x0
ffffffffa0806514:	64420000 	daddiu	v0,v0,0
ffffffffa0806518:	00021438 	dsll	v0,v0,0x10
ffffffffa080651c:	6442a080 	daddiu	v0,v0,-24448
ffffffffa0806520:	00021438 	dsll	v0,v0,0x10
ffffffffa0806524:	644476d0 	daddiu	a0,v0,30416
ffffffffa0806528:	0060302d 	move	a2,v1
ffffffffa080652c:	0c2011d7 	jal	ffffffffa080475c <printk>
ffffffffa0806530:	00000000 	nop
ffffffffa0806534:	0c2000b2 	jal	ffffffffa08002c8 <do_scheduler>
ffffffffa0806538:	00000000 	nop
ffffffffa080653c:	8fc20000 	lw	v0,0(s8)
ffffffffa0806540:	24420001 	addiu	v0,v0,1
ffffffffa0806544:	afc20000 	sw	v0,0(s8)
ffffffffa0806548:	8fc20000 	lw	v0,0(s8)
ffffffffa080654c:	2842001e 	slti	v0,v0,30
ffffffffa0806550:	1440ffc3 	bnez	v0,ffffffffa0806460 <semaphore_add_task3+0x24>
ffffffffa0806554:	00000000 	nop
ffffffffa0806558:	0c200973 	jal	ffffffffa08025cc <do_exit>
ffffffffa080655c:	00000000 	nop
ffffffffa0806560:	03c0e82d 	move	sp,s8
ffffffffa0806564:	dfbf0018 	ld	ra,24(sp)
ffffffffa0806568:	dfbe0010 	ld	s8,16(sp)
ffffffffa080656c:	67bd0020 	daddiu	sp,sp,32
ffffffffa0806570:	03e00008 	jr	ra
ffffffffa0806574:	00000000 	nop
	...

ffffffffa0806580 <barrier_task1>:
ffffffffa0806580:	67bdffe0 	daddiu	sp,sp,-32
ffffffffa0806584:	ffbf0018 	sd	ra,24(sp)
ffffffffa0806588:	ffbe0010 	sd	s8,16(sp)
ffffffffa080658c:	03a0f02d 	move	s8,sp
ffffffffa0806590:	24020001 	li	v0,1
ffffffffa0806594:	afc20004 	sw	v0,4(s8)
ffffffffa0806598:	3c020000 	lui	v0,0x0
ffffffffa080659c:	64420000 	daddiu	v0,v0,0
ffffffffa08065a0:	00021438 	dsll	v0,v0,0x10
ffffffffa08065a4:	6442a081 	daddiu	v0,v0,-24447
ffffffffa08065a8:	00021438 	dsll	v0,v0,0x10
ffffffffa08065ac:	8c4298d0 	lw	v0,-26416(v0)
ffffffffa08065b0:	14400017 	bnez	v0,ffffffffa0806610 <barrier_task1+0x90>
ffffffffa08065b4:	00000000 	nop
ffffffffa08065b8:	3c020000 	lui	v0,0x0
ffffffffa08065bc:	64420000 	daddiu	v0,v0,0
ffffffffa08065c0:	00021438 	dsll	v0,v0,0x10
ffffffffa08065c4:	6442a081 	daddiu	v0,v0,-24447
ffffffffa08065c8:	00021438 	dsll	v0,v0,0x10
ffffffffa08065cc:	24030001 	li	v1,1
ffffffffa08065d0:	ac4398d0 	sw	v1,-26416(v0)
ffffffffa08065d4:	3c020000 	lui	v0,0x0
ffffffffa08065d8:	64420000 	daddiu	v0,v0,0
ffffffffa08065dc:	00021438 	dsll	v0,v0,0x10
ffffffffa08065e0:	6442a081 	daddiu	v0,v0,-24447
ffffffffa08065e4:	00021438 	dsll	v0,v0,0x10
ffffffffa08065e8:	8c438410 	lw	v1,-31728(v0)
ffffffffa08065ec:	3c020000 	lui	v0,0x0
ffffffffa08065f0:	64420000 	daddiu	v0,v0,0
ffffffffa08065f4:	00021438 	dsll	v0,v0,0x10
ffffffffa08065f8:	6442a081 	daddiu	v0,v0,-24447
ffffffffa08065fc:	00021438 	dsll	v0,v0,0x10
ffffffffa0806600:	6444fde0 	daddiu	a0,v0,-544
ffffffffa0806604:	0060282d 	move	a1,v1
ffffffffa0806608:	0c200664 	jal	ffffffffa0801990 <do_barrier_init>
ffffffffa080660c:	00000000 	nop
ffffffffa0806610:	afc00000 	sw	zero,0(s8)
ffffffffa0806614:	8fc20004 	lw	v0,4(s8)
ffffffffa0806618:	0000202d 	move	a0,zero
ffffffffa080661c:	0040282d 	move	a1,v0
ffffffffa0806620:	0c200190 	jal	ffffffffa0800640 <vt100_move_cursor>
ffffffffa0806624:	00000000 	nop
ffffffffa0806628:	8fc30000 	lw	v1,0(s8)
ffffffffa080662c:	3c020000 	lui	v0,0x0
ffffffffa0806630:	64420000 	daddiu	v0,v0,0
ffffffffa0806634:	00021438 	dsll	v0,v0,0x10
ffffffffa0806638:	6442a080 	daddiu	v0,v0,-24448
ffffffffa080663c:	00021438 	dsll	v0,v0,0x10
ffffffffa0806640:	64447700 	daddiu	a0,v0,30464
ffffffffa0806644:	0060282d 	move	a1,v1
ffffffffa0806648:	0c2011d7 	jal	ffffffffa080475c <printk>
ffffffffa080664c:	00000000 	nop
ffffffffa0806650:	3c020000 	lui	v0,0x0
ffffffffa0806654:	64420000 	daddiu	v0,v0,0
ffffffffa0806658:	00021438 	dsll	v0,v0,0x10
ffffffffa080665c:	6442a081 	daddiu	v0,v0,-24447
ffffffffa0806660:	00021438 	dsll	v0,v0,0x10
ffffffffa0806664:	6444fde0 	daddiu	a0,v0,-544
ffffffffa0806668:	0c200675 	jal	ffffffffa08019d4 <do_barrier_wait>
ffffffffa080666c:	00000000 	nop
ffffffffa0806670:	8fc20004 	lw	v0,4(s8)
ffffffffa0806674:	0000202d 	move	a0,zero
ffffffffa0806678:	0040282d 	move	a1,v0
ffffffffa080667c:	0c200190 	jal	ffffffffa0800640 <vt100_move_cursor>
ffffffffa0806680:	00000000 	nop
ffffffffa0806684:	8fc30000 	lw	v1,0(s8)
ffffffffa0806688:	3c020000 	lui	v0,0x0
ffffffffa080668c:	64420000 	daddiu	v0,v0,0
ffffffffa0806690:	00021438 	dsll	v0,v0,0x10
ffffffffa0806694:	6442a080 	daddiu	v0,v0,-24448
ffffffffa0806698:	00021438 	dsll	v0,v0,0x10
ffffffffa080669c:	64447730 	daddiu	a0,v0,30512
ffffffffa08066a0:	0060282d 	move	a1,v1
ffffffffa08066a4:	0c2011d7 	jal	ffffffffa080475c <printk>
ffffffffa08066a8:	00000000 	nop
ffffffffa08066ac:	0c2000b2 	jal	ffffffffa08002c8 <do_scheduler>
ffffffffa08066b0:	00000000 	nop
ffffffffa08066b4:	8fc20000 	lw	v0,0(s8)
ffffffffa08066b8:	24420001 	addiu	v0,v0,1
ffffffffa08066bc:	afc20000 	sw	v0,0(s8)
ffffffffa08066c0:	08201985 	j	ffffffffa0806614 <barrier_task1+0x94>
ffffffffa08066c4:	00000000 	nop

ffffffffa08066c8 <barrier_task2>:
ffffffffa08066c8:	67bdffe0 	daddiu	sp,sp,-32
ffffffffa08066cc:	ffbf0018 	sd	ra,24(sp)
ffffffffa08066d0:	ffbe0010 	sd	s8,16(sp)
ffffffffa08066d4:	03a0f02d 	move	s8,sp
ffffffffa08066d8:	24020002 	li	v0,2
ffffffffa08066dc:	afc20004 	sw	v0,4(s8)
ffffffffa08066e0:	3c020000 	lui	v0,0x0
ffffffffa08066e4:	64420000 	daddiu	v0,v0,0
ffffffffa08066e8:	00021438 	dsll	v0,v0,0x10
ffffffffa08066ec:	6442a081 	daddiu	v0,v0,-24447
ffffffffa08066f0:	00021438 	dsll	v0,v0,0x10
ffffffffa08066f4:	8c4298d0 	lw	v0,-26416(v0)
ffffffffa08066f8:	14400017 	bnez	v0,ffffffffa0806758 <barrier_task2+0x90>
ffffffffa08066fc:	00000000 	nop
ffffffffa0806700:	3c020000 	lui	v0,0x0
ffffffffa0806704:	64420000 	daddiu	v0,v0,0
ffffffffa0806708:	00021438 	dsll	v0,v0,0x10
ffffffffa080670c:	6442a081 	daddiu	v0,v0,-24447
ffffffffa0806710:	00021438 	dsll	v0,v0,0x10
ffffffffa0806714:	24030001 	li	v1,1
ffffffffa0806718:	ac4398d0 	sw	v1,-26416(v0)
ffffffffa080671c:	3c020000 	lui	v0,0x0
ffffffffa0806720:	64420000 	daddiu	v0,v0,0
ffffffffa0806724:	00021438 	dsll	v0,v0,0x10
ffffffffa0806728:	6442a081 	daddiu	v0,v0,-24447
ffffffffa080672c:	00021438 	dsll	v0,v0,0x10
ffffffffa0806730:	8c438410 	lw	v1,-31728(v0)
ffffffffa0806734:	3c020000 	lui	v0,0x0
ffffffffa0806738:	64420000 	daddiu	v0,v0,0
ffffffffa080673c:	00021438 	dsll	v0,v0,0x10
ffffffffa0806740:	6442a081 	daddiu	v0,v0,-24447
ffffffffa0806744:	00021438 	dsll	v0,v0,0x10
ffffffffa0806748:	6444fde0 	daddiu	a0,v0,-544
ffffffffa080674c:	0060282d 	move	a1,v1
ffffffffa0806750:	0c200664 	jal	ffffffffa0801990 <do_barrier_init>
ffffffffa0806754:	00000000 	nop
ffffffffa0806758:	afc00000 	sw	zero,0(s8)
ffffffffa080675c:	8fc20004 	lw	v0,4(s8)
ffffffffa0806760:	0000202d 	move	a0,zero
ffffffffa0806764:	0040282d 	move	a1,v0
ffffffffa0806768:	0c200190 	jal	ffffffffa0800640 <vt100_move_cursor>
ffffffffa080676c:	00000000 	nop
ffffffffa0806770:	8fc30000 	lw	v1,0(s8)
ffffffffa0806774:	3c020000 	lui	v0,0x0
ffffffffa0806778:	64420000 	daddiu	v0,v0,0
ffffffffa080677c:	00021438 	dsll	v0,v0,0x10
ffffffffa0806780:	6442a080 	daddiu	v0,v0,-24448
ffffffffa0806784:	00021438 	dsll	v0,v0,0x10
ffffffffa0806788:	64447700 	daddiu	a0,v0,30464
ffffffffa080678c:	0060282d 	move	a1,v1
ffffffffa0806790:	0c2011d7 	jal	ffffffffa080475c <printk>
ffffffffa0806794:	00000000 	nop
ffffffffa0806798:	3c020000 	lui	v0,0x0
ffffffffa080679c:	64420000 	daddiu	v0,v0,0
ffffffffa08067a0:	00021438 	dsll	v0,v0,0x10
ffffffffa08067a4:	6442a081 	daddiu	v0,v0,-24447
ffffffffa08067a8:	00021438 	dsll	v0,v0,0x10
ffffffffa08067ac:	6444fde0 	daddiu	a0,v0,-544
ffffffffa08067b0:	0c200675 	jal	ffffffffa08019d4 <do_barrier_wait>
ffffffffa08067b4:	00000000 	nop
ffffffffa08067b8:	8fc20004 	lw	v0,4(s8)
ffffffffa08067bc:	0000202d 	move	a0,zero
ffffffffa08067c0:	0040282d 	move	a1,v0
ffffffffa08067c4:	0c200190 	jal	ffffffffa0800640 <vt100_move_cursor>
ffffffffa08067c8:	00000000 	nop
ffffffffa08067cc:	8fc30000 	lw	v1,0(s8)
ffffffffa08067d0:	3c020000 	lui	v0,0x0
ffffffffa08067d4:	64420000 	daddiu	v0,v0,0
ffffffffa08067d8:	00021438 	dsll	v0,v0,0x10
ffffffffa08067dc:	6442a080 	daddiu	v0,v0,-24448
ffffffffa08067e0:	00021438 	dsll	v0,v0,0x10
ffffffffa08067e4:	64447730 	daddiu	a0,v0,30512
ffffffffa08067e8:	0060282d 	move	a1,v1
ffffffffa08067ec:	0c2011d7 	jal	ffffffffa080475c <printk>
ffffffffa08067f0:	00000000 	nop
ffffffffa08067f4:	0c2000b2 	jal	ffffffffa08002c8 <do_scheduler>
ffffffffa08067f8:	00000000 	nop
ffffffffa08067fc:	8fc20000 	lw	v0,0(s8)
ffffffffa0806800:	24420001 	addiu	v0,v0,1
ffffffffa0806804:	afc20000 	sw	v0,0(s8)
ffffffffa0806808:	082019d7 	j	ffffffffa080675c <barrier_task2+0x94>
ffffffffa080680c:	00000000 	nop

ffffffffa0806810 <barrier_task3>:
ffffffffa0806810:	67bdffe0 	daddiu	sp,sp,-32
ffffffffa0806814:	ffbf0018 	sd	ra,24(sp)
ffffffffa0806818:	ffbe0010 	sd	s8,16(sp)
ffffffffa080681c:	03a0f02d 	move	s8,sp
ffffffffa0806820:	24020003 	li	v0,3
ffffffffa0806824:	afc20004 	sw	v0,4(s8)
ffffffffa0806828:	3c020000 	lui	v0,0x0
ffffffffa080682c:	64420000 	daddiu	v0,v0,0
ffffffffa0806830:	00021438 	dsll	v0,v0,0x10
ffffffffa0806834:	6442a081 	daddiu	v0,v0,-24447
ffffffffa0806838:	00021438 	dsll	v0,v0,0x10
ffffffffa080683c:	8c4298d0 	lw	v0,-26416(v0)
ffffffffa0806840:	14400017 	bnez	v0,ffffffffa08068a0 <barrier_task3+0x90>
ffffffffa0806844:	00000000 	nop
ffffffffa0806848:	3c020000 	lui	v0,0x0
ffffffffa080684c:	64420000 	daddiu	v0,v0,0
ffffffffa0806850:	00021438 	dsll	v0,v0,0x10
ffffffffa0806854:	6442a081 	daddiu	v0,v0,-24447
ffffffffa0806858:	00021438 	dsll	v0,v0,0x10
ffffffffa080685c:	24030001 	li	v1,1
ffffffffa0806860:	ac4398d0 	sw	v1,-26416(v0)
ffffffffa0806864:	3c020000 	lui	v0,0x0
ffffffffa0806868:	64420000 	daddiu	v0,v0,0
ffffffffa080686c:	00021438 	dsll	v0,v0,0x10
ffffffffa0806870:	6442a081 	daddiu	v0,v0,-24447
ffffffffa0806874:	00021438 	dsll	v0,v0,0x10
ffffffffa0806878:	8c438410 	lw	v1,-31728(v0)
ffffffffa080687c:	3c020000 	lui	v0,0x0
ffffffffa0806880:	64420000 	daddiu	v0,v0,0
ffffffffa0806884:	00021438 	dsll	v0,v0,0x10
ffffffffa0806888:	6442a081 	daddiu	v0,v0,-24447
ffffffffa080688c:	00021438 	dsll	v0,v0,0x10
ffffffffa0806890:	6444fde0 	daddiu	a0,v0,-544
ffffffffa0806894:	0060282d 	move	a1,v1
ffffffffa0806898:	0c200664 	jal	ffffffffa0801990 <do_barrier_init>
ffffffffa080689c:	00000000 	nop
ffffffffa08068a0:	afc00000 	sw	zero,0(s8)
ffffffffa08068a4:	8fc20004 	lw	v0,4(s8)
ffffffffa08068a8:	0000202d 	move	a0,zero
ffffffffa08068ac:	0040282d 	move	a1,v0
ffffffffa08068b0:	0c200190 	jal	ffffffffa0800640 <vt100_move_cursor>
ffffffffa08068b4:	00000000 	nop
ffffffffa08068b8:	8fc30000 	lw	v1,0(s8)
ffffffffa08068bc:	3c020000 	lui	v0,0x0
ffffffffa08068c0:	64420000 	daddiu	v0,v0,0
ffffffffa08068c4:	00021438 	dsll	v0,v0,0x10
ffffffffa08068c8:	6442a080 	daddiu	v0,v0,-24448
ffffffffa08068cc:	00021438 	dsll	v0,v0,0x10
ffffffffa08068d0:	64447700 	daddiu	a0,v0,30464
ffffffffa08068d4:	0060282d 	move	a1,v1
ffffffffa08068d8:	0c2011d7 	jal	ffffffffa080475c <printk>
ffffffffa08068dc:	00000000 	nop
ffffffffa08068e0:	3c020000 	lui	v0,0x0
ffffffffa08068e4:	64420000 	daddiu	v0,v0,0
ffffffffa08068e8:	00021438 	dsll	v0,v0,0x10
ffffffffa08068ec:	6442a081 	daddiu	v0,v0,-24447
ffffffffa08068f0:	00021438 	dsll	v0,v0,0x10
ffffffffa08068f4:	6444fde0 	daddiu	a0,v0,-544
ffffffffa08068f8:	0c200675 	jal	ffffffffa08019d4 <do_barrier_wait>
ffffffffa08068fc:	00000000 	nop
ffffffffa0806900:	8fc20004 	lw	v0,4(s8)
ffffffffa0806904:	0000202d 	move	a0,zero
ffffffffa0806908:	0040282d 	move	a1,v0
ffffffffa080690c:	0c200190 	jal	ffffffffa0800640 <vt100_move_cursor>
ffffffffa0806910:	00000000 	nop
ffffffffa0806914:	8fc30000 	lw	v1,0(s8)
ffffffffa0806918:	3c020000 	lui	v0,0x0
ffffffffa080691c:	64420000 	daddiu	v0,v0,0
ffffffffa0806920:	00021438 	dsll	v0,v0,0x10
ffffffffa0806924:	6442a080 	daddiu	v0,v0,-24448
ffffffffa0806928:	00021438 	dsll	v0,v0,0x10
ffffffffa080692c:	64447730 	daddiu	a0,v0,30512
ffffffffa0806930:	0060282d 	move	a1,v1
ffffffffa0806934:	0c2011d7 	jal	ffffffffa080475c <printk>
ffffffffa0806938:	00000000 	nop
ffffffffa080693c:	0c2000b2 	jal	ffffffffa08002c8 <do_scheduler>
ffffffffa0806940:	00000000 	nop
ffffffffa0806944:	8fc20000 	lw	v0,0(s8)
ffffffffa0806948:	24420001 	addiu	v0,v0,1
ffffffffa080694c:	afc20000 	sw	v0,0(s8)
ffffffffa0806950:	08201a29 	j	ffffffffa08068a4 <barrier_task3+0x94>
ffffffffa0806954:	00000000 	nop
	...

ffffffffa0806960 <SunQuan>:
ffffffffa0806960:	67bdffd0 	daddiu	sp,sp,-48
ffffffffa0806964:	ffbf0028 	sd	ra,40(sp)
ffffffffa0806968:	ffbe0020 	sd	s8,32(sp)
ffffffffa080696c:	03a0f02d 	move	s8,sp
ffffffffa0806970:	3c020000 	lui	v0,0x0
ffffffffa0806974:	64420000 	daddiu	v0,v0,0
ffffffffa0806978:	00021438 	dsll	v0,v0,0x10
ffffffffa080697c:	6442a080 	daddiu	v0,v0,-24448
ffffffffa0806980:	00021438 	dsll	v0,v0,0x10
ffffffffa0806984:	64447760 	daddiu	a0,v0,30560
ffffffffa0806988:	0c200e9b 	jal	ffffffffa0803a6c <mbox_open>
ffffffffa080698c:	00000000 	nop
ffffffffa0806990:	ffc20000 	sd	v0,0(s8)
ffffffffa0806994:	0c200dd7 	jal	ffffffffa080375c <sys_getpid>
ffffffffa0806998:	00000000 	nop
ffffffffa080699c:	afc20010 	sw	v0,16(s8)
ffffffffa08069a0:	3c020000 	lui	v0,0x0
ffffffffa08069a4:	64420000 	daddiu	v0,v0,0
ffffffffa08069a8:	00021438 	dsll	v0,v0,0x10
ffffffffa08069ac:	6442a081 	daddiu	v0,v0,-24447
ffffffffa08069b0:	00021438 	dsll	v0,v0,0x10
ffffffffa08069b4:	6444fdf8 	daddiu	a0,v0,-520
ffffffffa08069b8:	3c020000 	lui	v0,0x0
ffffffffa08069bc:	64420000 	daddiu	v0,v0,0
ffffffffa08069c0:	00021438 	dsll	v0,v0,0x10
ffffffffa08069c4:	6442a080 	daddiu	v0,v0,-24448
ffffffffa08069c8:	00021438 	dsll	v0,v0,0x10
ffffffffa08069cc:	64457778 	daddiu	a1,v0,30584
ffffffffa08069d0:	0c200fa3 	jal	ffffffffa0803e8c <strcpy>
ffffffffa08069d4:	00000000 	nop
ffffffffa08069d8:	3c020000 	lui	v0,0x0
ffffffffa08069dc:	64420000 	daddiu	v0,v0,0
ffffffffa08069e0:	00021438 	dsll	v0,v0,0x10
ffffffffa08069e4:	6442a080 	daddiu	v0,v0,-24448
ffffffffa08069e8:	00021438 	dsll	v0,v0,0x10
ffffffffa08069ec:	64436ba0 	daddiu	v1,v0,27552
ffffffffa08069f0:	3c020000 	lui	v0,0x0
ffffffffa08069f4:	64420000 	daddiu	v0,v0,0
ffffffffa08069f8:	00021438 	dsll	v0,v0,0x10
ffffffffa08069fc:	6442a081 	daddiu	v0,v0,-24447
ffffffffa0806a00:	00021438 	dsll	v0,v0,0x10
ffffffffa0806a04:	6442fdf8 	daddiu	v0,v0,-520
ffffffffa0806a08:	fc430020 	sd	v1,32(v0)
ffffffffa0806a0c:	3c020000 	lui	v0,0x0
ffffffffa0806a10:	64420000 	daddiu	v0,v0,0
ffffffffa0806a14:	00021438 	dsll	v0,v0,0x10
ffffffffa0806a18:	6442a081 	daddiu	v0,v0,-24447
ffffffffa0806a1c:	00021438 	dsll	v0,v0,0x10
ffffffffa0806a20:	6442fdf8 	daddiu	v0,v0,-520
ffffffffa0806a24:	24030002 	li	v1,2
ffffffffa0806a28:	ac430028 	sw	v1,40(v0)
ffffffffa0806a2c:	67c20010 	daddiu	v0,s8,16
ffffffffa0806a30:	dfc40000 	ld	a0,0(s8)
ffffffffa0806a34:	0040282d 	move	a1,v0
ffffffffa0806a38:	24060004 	li	a2,4
ffffffffa0806a3c:	0c200ead 	jal	ffffffffa0803ab4 <mbox_send>
ffffffffa0806a40:	00000000 	nop
ffffffffa0806a44:	67c20010 	daddiu	v0,s8,16
ffffffffa0806a48:	dfc40000 	ld	a0,0(s8)
ffffffffa0806a4c:	0040282d 	move	a1,v0
ffffffffa0806a50:	24060004 	li	a2,4
ffffffffa0806a54:	0c200ead 	jal	ffffffffa0803ab4 <mbox_send>
ffffffffa0806a58:	00000000 	nop
ffffffffa0806a5c:	3c020000 	lui	v0,0x0
ffffffffa0806a60:	64420000 	daddiu	v0,v0,0
ffffffffa0806a64:	00021438 	dsll	v0,v0,0x10
ffffffffa0806a68:	6442a080 	daddiu	v0,v0,-24448
ffffffffa0806a6c:	00021438 	dsll	v0,v0,0x10
ffffffffa0806a70:	64447780 	daddiu	a0,v0,30592
ffffffffa0806a74:	0c200e9b 	jal	ffffffffa0803a6c <mbox_open>
ffffffffa0806a78:	00000000 	nop
ffffffffa0806a7c:	ffc20008 	sd	v0,8(s8)
ffffffffa0806a80:	0000202d 	move	a0,zero
ffffffffa0806a84:	0000282d 	move	a1,zero
ffffffffa0806a88:	0c200d37 	jal	ffffffffa08034dc <sys_move_cursor>
ffffffffa0806a8c:	00000000 	nop
ffffffffa0806a90:	8fc30010 	lw	v1,16(s8)
ffffffffa0806a94:	3c020000 	lui	v0,0x0
ffffffffa0806a98:	64420000 	daddiu	v0,v0,0
ffffffffa0806a9c:	00021438 	dsll	v0,v0,0x10
ffffffffa0806aa0:	6442a080 	daddiu	v0,v0,-24448
ffffffffa0806aa4:	00021438 	dsll	v0,v0,0x10
ffffffffa0806aa8:	64447798 	daddiu	a0,v0,30616
ffffffffa0806aac:	0060282d 	move	a1,v1
ffffffffa0806ab0:	0c2011fd 	jal	ffffffffa08047f4 <printf>
ffffffffa0806ab4:	00000000 	nop
ffffffffa0806ab8:	67c20014 	daddiu	v0,s8,20
ffffffffa0806abc:	dfc40008 	ld	a0,8(s8)
ffffffffa0806ac0:	0040282d 	move	a1,v0
ffffffffa0806ac4:	24060004 	li	a2,4
ffffffffa0806ac8:	0c200eba 	jal	ffffffffa0803ae8 <mbox_recv>
ffffffffa0806acc:	00000000 	nop
ffffffffa0806ad0:	0000202d 	move	a0,zero
ffffffffa0806ad4:	0000282d 	move	a1,zero
ffffffffa0806ad8:	0c200d37 	jal	ffffffffa08034dc <sys_move_cursor>
ffffffffa0806adc:	00000000 	nop
ffffffffa0806ae0:	8fc50010 	lw	a1,16(s8)
ffffffffa0806ae4:	8fc30014 	lw	v1,20(s8)
ffffffffa0806ae8:	3c020000 	lui	v0,0x0
ffffffffa0806aec:	64420000 	daddiu	v0,v0,0
ffffffffa0806af0:	00021438 	dsll	v0,v0,0x10
ffffffffa0806af4:	6442a080 	daddiu	v0,v0,-24448
ffffffffa0806af8:	00021438 	dsll	v0,v0,0x10
ffffffffa0806afc:	644477d0 	daddiu	a0,v0,30672
ffffffffa0806b00:	0060302d 	move	a2,v1
ffffffffa0806b04:	0c2011fd 	jal	ffffffffa08047f4 <printf>
ffffffffa0806b08:	00000000 	nop
ffffffffa0806b0c:	8fc20014 	lw	v0,20(s8)
ffffffffa0806b10:	0040202d 	move	a0,v0
ffffffffa0806b14:	0c200d1b 	jal	ffffffffa080346c <sys_waitpid>
ffffffffa0806b18:	00000000 	nop
ffffffffa0806b1c:	0000202d 	move	a0,zero
ffffffffa0806b20:	0000282d 	move	a1,zero
ffffffffa0806b24:	0c200d37 	jal	ffffffffa08034dc <sys_move_cursor>
ffffffffa0806b28:	00000000 	nop
ffffffffa0806b2c:	8fc30010 	lw	v1,16(s8)
ffffffffa0806b30:	3c020000 	lui	v0,0x0
ffffffffa0806b34:	64420000 	daddiu	v0,v0,0
ffffffffa0806b38:	00021438 	dsll	v0,v0,0x10
ffffffffa0806b3c:	6442a080 	daddiu	v0,v0,-24448
ffffffffa0806b40:	00021438 	dsll	v0,v0,0x10
ffffffffa0806b44:	64447808 	daddiu	a0,v0,30728
ffffffffa0806b48:	0060282d 	move	a1,v1
ffffffffa0806b4c:	0c2011fd 	jal	ffffffffa08047f4 <printf>
ffffffffa0806b50:	00000000 	nop
ffffffffa0806b54:	24040001 	li	a0,1
ffffffffa0806b58:	0c200d05 	jal	ffffffffa0803414 <sys_sleep>
ffffffffa0806b5c:	00000000 	nop
ffffffffa0806b60:	3c020000 	lui	v0,0x0
ffffffffa0806b64:	64420000 	daddiu	v0,v0,0
ffffffffa0806b68:	00021438 	dsll	v0,v0,0x10
ffffffffa0806b6c:	6442a081 	daddiu	v0,v0,-24447
ffffffffa0806b70:	00021438 	dsll	v0,v0,0x10
ffffffffa0806b74:	6444fdf8 	daddiu	a0,v0,-520
ffffffffa0806b78:	0c200cf4 	jal	ffffffffa08033d0 <sys_spawn>
ffffffffa0806b7c:	00000000 	nop
ffffffffa0806b80:	67c20010 	daddiu	v0,s8,16
ffffffffa0806b84:	dfc40000 	ld	a0,0(s8)
ffffffffa0806b88:	0040282d 	move	a1,v0
ffffffffa0806b8c:	24060004 	li	a2,4
ffffffffa0806b90:	0c200ead 	jal	ffffffffa0803ab4 <mbox_send>
ffffffffa0806b94:	00000000 	nop
ffffffffa0806b98:	08201aa0 	j	ffffffffa0806a80 <SunQuan+0x120>
ffffffffa0806b9c:	00000000 	nop

ffffffffa0806ba0 <LiuBei>:
ffffffffa0806ba0:	67bdffd0 	daddiu	sp,sp,-48
ffffffffa0806ba4:	ffbf0028 	sd	ra,40(sp)
ffffffffa0806ba8:	ffbe0020 	sd	s8,32(sp)
ffffffffa0806bac:	03a0f02d 	move	s8,sp
ffffffffa0806bb0:	3c020000 	lui	v0,0x0
ffffffffa0806bb4:	64420000 	daddiu	v0,v0,0
ffffffffa0806bb8:	00021438 	dsll	v0,v0,0x10
ffffffffa0806bbc:	6442a080 	daddiu	v0,v0,-24448
ffffffffa0806bc0:	00021438 	dsll	v0,v0,0x10
ffffffffa0806bc4:	64447780 	daddiu	a0,v0,30592
ffffffffa0806bc8:	0c200e9b 	jal	ffffffffa0803a6c <mbox_open>
ffffffffa0806bcc:	00000000 	nop
ffffffffa0806bd0:	ffc20000 	sd	v0,0(s8)
ffffffffa0806bd4:	0c200dd7 	jal	ffffffffa080375c <sys_getpid>
ffffffffa0806bd8:	00000000 	nop
ffffffffa0806bdc:	afc20010 	sw	v0,16(s8)
ffffffffa0806be0:	3c020000 	lui	v0,0x0
ffffffffa0806be4:	64420000 	daddiu	v0,v0,0
ffffffffa0806be8:	00021438 	dsll	v0,v0,0x10
ffffffffa0806bec:	6442a081 	daddiu	v0,v0,-24447
ffffffffa0806bf0:	00021438 	dsll	v0,v0,0x10
ffffffffa0806bf4:	6444fe28 	daddiu	a0,v0,-472
ffffffffa0806bf8:	3c020000 	lui	v0,0x0
ffffffffa0806bfc:	64420000 	daddiu	v0,v0,0
ffffffffa0806c00:	00021438 	dsll	v0,v0,0x10
ffffffffa0806c04:	6442a080 	daddiu	v0,v0,-24448
ffffffffa0806c08:	00021438 	dsll	v0,v0,0x10
ffffffffa0806c0c:	64457838 	daddiu	a1,v0,30776
ffffffffa0806c10:	0c200fa3 	jal	ffffffffa0803e8c <strcpy>
ffffffffa0806c14:	00000000 	nop
ffffffffa0806c18:	3c020000 	lui	v0,0x0
ffffffffa0806c1c:	64420000 	daddiu	v0,v0,0
ffffffffa0806c20:	00021438 	dsll	v0,v0,0x10
ffffffffa0806c24:	6442a080 	daddiu	v0,v0,-24448
ffffffffa0806c28:	00021438 	dsll	v0,v0,0x10
ffffffffa0806c2c:	64436960 	daddiu	v1,v0,26976
ffffffffa0806c30:	3c020000 	lui	v0,0x0
ffffffffa0806c34:	64420000 	daddiu	v0,v0,0
ffffffffa0806c38:	00021438 	dsll	v0,v0,0x10
ffffffffa0806c3c:	6442a081 	daddiu	v0,v0,-24447
ffffffffa0806c40:	00021438 	dsll	v0,v0,0x10
ffffffffa0806c44:	6442fe28 	daddiu	v0,v0,-472
ffffffffa0806c48:	fc430020 	sd	v1,32(v0)
ffffffffa0806c4c:	3c020000 	lui	v0,0x0
ffffffffa0806c50:	64420000 	daddiu	v0,v0,0
ffffffffa0806c54:	00021438 	dsll	v0,v0,0x10
ffffffffa0806c58:	6442a081 	daddiu	v0,v0,-24447
ffffffffa0806c5c:	00021438 	dsll	v0,v0,0x10
ffffffffa0806c60:	6442fe28 	daddiu	v0,v0,-472
ffffffffa0806c64:	24030002 	li	v1,2
ffffffffa0806c68:	ac430028 	sw	v1,40(v0)
ffffffffa0806c6c:	67c20010 	daddiu	v0,s8,16
ffffffffa0806c70:	dfc40000 	ld	a0,0(s8)
ffffffffa0806c74:	0040282d 	move	a1,v0
ffffffffa0806c78:	24060004 	li	a2,4
ffffffffa0806c7c:	0c200ead 	jal	ffffffffa0803ab4 <mbox_send>
ffffffffa0806c80:	00000000 	nop
ffffffffa0806c84:	67c20010 	daddiu	v0,s8,16
ffffffffa0806c88:	dfc40000 	ld	a0,0(s8)
ffffffffa0806c8c:	0040282d 	move	a1,v0
ffffffffa0806c90:	24060004 	li	a2,4
ffffffffa0806c94:	0c200ead 	jal	ffffffffa0803ab4 <mbox_send>
ffffffffa0806c98:	00000000 	nop
ffffffffa0806c9c:	3c020000 	lui	v0,0x0
ffffffffa0806ca0:	64420000 	daddiu	v0,v0,0
ffffffffa0806ca4:	00021438 	dsll	v0,v0,0x10
ffffffffa0806ca8:	6442a080 	daddiu	v0,v0,-24448
ffffffffa0806cac:	00021438 	dsll	v0,v0,0x10
ffffffffa0806cb0:	64447760 	daddiu	a0,v0,30560
ffffffffa0806cb4:	0c200e9b 	jal	ffffffffa0803a6c <mbox_open>
ffffffffa0806cb8:	00000000 	nop
ffffffffa0806cbc:	ffc20008 	sd	v0,8(s8)
ffffffffa0806cc0:	0000202d 	move	a0,zero
ffffffffa0806cc4:	24050001 	li	a1,1
ffffffffa0806cc8:	0c200d37 	jal	ffffffffa08034dc <sys_move_cursor>
ffffffffa0806ccc:	00000000 	nop
ffffffffa0806cd0:	8fc30010 	lw	v1,16(s8)
ffffffffa0806cd4:	3c020000 	lui	v0,0x0
ffffffffa0806cd8:	64420000 	daddiu	v0,v0,0
ffffffffa0806cdc:	00021438 	dsll	v0,v0,0x10
ffffffffa0806ce0:	6442a080 	daddiu	v0,v0,-24448
ffffffffa0806ce4:	00021438 	dsll	v0,v0,0x10
ffffffffa0806ce8:	64447840 	daddiu	a0,v0,30784
ffffffffa0806cec:	0060282d 	move	a1,v1
ffffffffa0806cf0:	0c2011fd 	jal	ffffffffa08047f4 <printf>
ffffffffa0806cf4:	00000000 	nop
ffffffffa0806cf8:	67c20014 	daddiu	v0,s8,20
ffffffffa0806cfc:	dfc40008 	ld	a0,8(s8)
ffffffffa0806d00:	0040282d 	move	a1,v0
ffffffffa0806d04:	24060004 	li	a2,4
ffffffffa0806d08:	0c200eba 	jal	ffffffffa0803ae8 <mbox_recv>
ffffffffa0806d0c:	00000000 	nop
ffffffffa0806d10:	0000202d 	move	a0,zero
ffffffffa0806d14:	24050001 	li	a1,1
ffffffffa0806d18:	0c200d37 	jal	ffffffffa08034dc <sys_move_cursor>
ffffffffa0806d1c:	00000000 	nop
ffffffffa0806d20:	8fc50010 	lw	a1,16(s8)
ffffffffa0806d24:	8fc30014 	lw	v1,20(s8)
ffffffffa0806d28:	3c020000 	lui	v0,0x0
ffffffffa0806d2c:	64420000 	daddiu	v0,v0,0
ffffffffa0806d30:	00021438 	dsll	v0,v0,0x10
ffffffffa0806d34:	6442a080 	daddiu	v0,v0,-24448
ffffffffa0806d38:	00021438 	dsll	v0,v0,0x10
ffffffffa0806d3c:	64447870 	daddiu	a0,v0,30832
ffffffffa0806d40:	0060302d 	move	a2,v1
ffffffffa0806d44:	0c2011fd 	jal	ffffffffa08047f4 <printf>
ffffffffa0806d48:	00000000 	nop
ffffffffa0806d4c:	8fc20014 	lw	v0,20(s8)
ffffffffa0806d50:	0040202d 	move	a0,v0
ffffffffa0806d54:	0c200d1b 	jal	ffffffffa080346c <sys_waitpid>
ffffffffa0806d58:	00000000 	nop
ffffffffa0806d5c:	0000202d 	move	a0,zero
ffffffffa0806d60:	24050001 	li	a1,1
ffffffffa0806d64:	0c200d37 	jal	ffffffffa08034dc <sys_move_cursor>
ffffffffa0806d68:	00000000 	nop
ffffffffa0806d6c:	8fc30010 	lw	v1,16(s8)
ffffffffa0806d70:	3c020000 	lui	v0,0x0
ffffffffa0806d74:	64420000 	daddiu	v0,v0,0
ffffffffa0806d78:	00021438 	dsll	v0,v0,0x10
ffffffffa0806d7c:	6442a080 	daddiu	v0,v0,-24448
ffffffffa0806d80:	00021438 	dsll	v0,v0,0x10
ffffffffa0806d84:	644478a0 	daddiu	a0,v0,30880
ffffffffa0806d88:	0060282d 	move	a1,v1
ffffffffa0806d8c:	0c2011fd 	jal	ffffffffa08047f4 <printf>
ffffffffa0806d90:	00000000 	nop
ffffffffa0806d94:	24040001 	li	a0,1
ffffffffa0806d98:	0c200d05 	jal	ffffffffa0803414 <sys_sleep>
ffffffffa0806d9c:	00000000 	nop
ffffffffa0806da0:	3c020000 	lui	v0,0x0
ffffffffa0806da4:	64420000 	daddiu	v0,v0,0
ffffffffa0806da8:	00021438 	dsll	v0,v0,0x10
ffffffffa0806dac:	6442a081 	daddiu	v0,v0,-24447
ffffffffa0806db0:	00021438 	dsll	v0,v0,0x10
ffffffffa0806db4:	6444fe28 	daddiu	a0,v0,-472
ffffffffa0806db8:	0c200cf4 	jal	ffffffffa08033d0 <sys_spawn>
ffffffffa0806dbc:	00000000 	nop
ffffffffa0806dc0:	67c20010 	daddiu	v0,s8,16
ffffffffa0806dc4:	dfc40000 	ld	a0,0(s8)
ffffffffa0806dc8:	0040282d 	move	a1,v0
ffffffffa0806dcc:	24060004 	li	a2,4
ffffffffa0806dd0:	0c200ead 	jal	ffffffffa0803ab4 <mbox_send>
ffffffffa0806dd4:	00000000 	nop
ffffffffa0806dd8:	08201b30 	j	ffffffffa0806cc0 <LiuBei+0x120>
ffffffffa0806ddc:	00000000 	nop

ffffffffa0806de0 <CaoCao>:
ffffffffa0806de0:	67bdffd0 	daddiu	sp,sp,-48
ffffffffa0806de4:	ffbf0028 	sd	ra,40(sp)
ffffffffa0806de8:	ffbe0020 	sd	s8,32(sp)
ffffffffa0806dec:	03a0f02d 	move	s8,sp
ffffffffa0806df0:	0c200dd7 	jal	ffffffffa080375c <sys_getpid>
ffffffffa0806df4:	00000000 	nop
ffffffffa0806df8:	afc20004 	sw	v0,4(s8)
ffffffffa0806dfc:	3c020000 	lui	v0,0x0
ffffffffa0806e00:	64420000 	daddiu	v0,v0,0
ffffffffa0806e04:	00021438 	dsll	v0,v0,0x10
ffffffffa0806e08:	6442a080 	daddiu	v0,v0,-24448
ffffffffa0806e0c:	00021438 	dsll	v0,v0,0x10
ffffffffa0806e10:	64447760 	daddiu	a0,v0,30560
ffffffffa0806e14:	0c200e9b 	jal	ffffffffa0803a6c <mbox_open>
ffffffffa0806e18:	00000000 	nop
ffffffffa0806e1c:	ffc20008 	sd	v0,8(s8)
ffffffffa0806e20:	3c020000 	lui	v0,0x0
ffffffffa0806e24:	64420000 	daddiu	v0,v0,0
ffffffffa0806e28:	00021438 	dsll	v0,v0,0x10
ffffffffa0806e2c:	6442a080 	daddiu	v0,v0,-24448
ffffffffa0806e30:	00021438 	dsll	v0,v0,0x10
ffffffffa0806e34:	64447780 	daddiu	a0,v0,30592
ffffffffa0806e38:	0c200e9b 	jal	ffffffffa0803a6c <mbox_open>
ffffffffa0806e3c:	00000000 	nop
ffffffffa0806e40:	ffc20010 	sd	v0,16(s8)
ffffffffa0806e44:	67c20018 	daddiu	v0,s8,24
ffffffffa0806e48:	dfc40008 	ld	a0,8(s8)
ffffffffa0806e4c:	0040282d 	move	a1,v0
ffffffffa0806e50:	24060004 	li	a2,4
ffffffffa0806e54:	0c200eba 	jal	ffffffffa0803ae8 <mbox_recv>
ffffffffa0806e58:	00000000 	nop
ffffffffa0806e5c:	67c2001c 	daddiu	v0,s8,28
ffffffffa0806e60:	dfc40010 	ld	a0,16(s8)
ffffffffa0806e64:	0040282d 	move	a1,v0
ffffffffa0806e68:	24060004 	li	a2,4
ffffffffa0806e6c:	0c200eba 	jal	ffffffffa0803ae8 <mbox_recv>
ffffffffa0806e70:	00000000 	nop
ffffffffa0806e74:	afc00000 	sw	zero,0(s8)
ffffffffa0806e78:	0000202d 	move	a0,zero
ffffffffa0806e7c:	24050002 	li	a1,2
ffffffffa0806e80:	0c200d37 	jal	ffffffffa08034dc <sys_move_cursor>
ffffffffa0806e84:	00000000 	nop
ffffffffa0806e88:	8fc30004 	lw	v1,4(s8)
ffffffffa0806e8c:	3c020000 	lui	v0,0x0
ffffffffa0806e90:	64420000 	daddiu	v0,v0,0
ffffffffa0806e94:	00021438 	dsll	v0,v0,0x10
ffffffffa0806e98:	6442a080 	daddiu	v0,v0,-24448
ffffffffa0806e9c:	00021438 	dsll	v0,v0,0x10
ffffffffa0806ea0:	644478d0 	daddiu	a0,v0,30928
ffffffffa0806ea4:	0060282d 	move	a1,v1
ffffffffa0806ea8:	0c2011fd 	jal	ffffffffa08047f4 <printf>
ffffffffa0806eac:	00000000 	nop
ffffffffa0806eb0:	24040005 	li	a0,5
ffffffffa0806eb4:	0c200d05 	jal	ffffffffa0803414 <sys_sleep>
ffffffffa0806eb8:	00000000 	nop
ffffffffa0806ebc:	0000202d 	move	a0,zero
ffffffffa0806ec0:	24050003 	li	a1,3
ffffffffa0806ec4:	0c200d37 	jal	ffffffffa08034dc <sys_move_cursor>
ffffffffa0806ec8:	00000000 	nop
ffffffffa0806ecc:	8fc30004 	lw	v1,4(s8)
ffffffffa0806ed0:	3c020000 	lui	v0,0x0
ffffffffa0806ed4:	64420000 	daddiu	v0,v0,0
ffffffffa0806ed8:	00021438 	dsll	v0,v0,0x10
ffffffffa0806edc:	6442a080 	daddiu	v0,v0,-24448
ffffffffa0806ee0:	00021438 	dsll	v0,v0,0x10
ffffffffa0806ee4:	644478f8 	daddiu	a0,v0,30968
ffffffffa0806ee8:	0060282d 	move	a1,v1
ffffffffa0806eec:	0c2011fd 	jal	ffffffffa08047f4 <printf>
ffffffffa0806ef0:	00000000 	nop
ffffffffa0806ef4:	8fc30000 	lw	v1,0(s8)
ffffffffa0806ef8:	3c028000 	lui	v0,0x8000
ffffffffa0806efc:	34420001 	ori	v0,v0,0x1
ffffffffa0806f00:	00621024 	and	v0,v1,v0
ffffffffa0806f04:	04410005 	bgez	v0,ffffffffa0806f1c <CaoCao+0x13c>
ffffffffa0806f08:	00000000 	nop
ffffffffa0806f0c:	2442ffff 	addiu	v0,v0,-1
ffffffffa0806f10:	2403fffe 	li	v1,-2
ffffffffa0806f14:	00431025 	or	v0,v0,v1
ffffffffa0806f18:	24420001 	addiu	v0,v0,1
ffffffffa0806f1c:	10400006 	beqz	v0,ffffffffa0806f38 <CaoCao+0x158>
ffffffffa0806f20:	00000000 	nop
ffffffffa0806f24:	24030001 	li	v1,1
ffffffffa0806f28:	1043003c 	beq	v0,v1,ffffffffa080701c <CaoCao+0x23c>
ffffffffa0806f2c:	00000000 	nop
ffffffffa0806f30:	08201c3f 	j	ffffffffa08070fc <CaoCao+0x31c>
ffffffffa0806f34:	00000000 	nop
ffffffffa0806f38:	0000202d 	move	a0,zero
ffffffffa0806f3c:	24050004 	li	a1,4
ffffffffa0806f40:	0c200d37 	jal	ffffffffa08034dc <sys_move_cursor>
ffffffffa0806f44:	00000000 	nop
ffffffffa0806f48:	8fc30018 	lw	v1,24(s8)
ffffffffa0806f4c:	8fc50004 	lw	a1,4(s8)
ffffffffa0806f50:	3c020000 	lui	v0,0x0
ffffffffa0806f54:	64420000 	daddiu	v0,v0,0
ffffffffa0806f58:	00021438 	dsll	v0,v0,0x10
ffffffffa0806f5c:	6442a080 	daddiu	v0,v0,-24448
ffffffffa0806f60:	00021438 	dsll	v0,v0,0x10
ffffffffa0806f64:	64447920 	daddiu	a0,v0,31008
ffffffffa0806f68:	0060302d 	move	a2,v1
ffffffffa0806f6c:	0c2011fd 	jal	ffffffffa08047f4 <printf>
ffffffffa0806f70:	00000000 	nop
ffffffffa0806f74:	24040001 	li	a0,1
ffffffffa0806f78:	0c200d05 	jal	ffffffffa0803414 <sys_sleep>
ffffffffa0806f7c:	00000000 	nop
ffffffffa0806f80:	0000202d 	move	a0,zero
ffffffffa0806f84:	24050005 	li	a1,5
ffffffffa0806f88:	0c200d37 	jal	ffffffffa08034dc <sys_move_cursor>
ffffffffa0806f8c:	00000000 	nop
ffffffffa0806f90:	3c020000 	lui	v0,0x0
ffffffffa0806f94:	64420000 	daddiu	v0,v0,0
ffffffffa0806f98:	00021438 	dsll	v0,v0,0x10
ffffffffa0806f9c:	6442a080 	daddiu	v0,v0,-24448
ffffffffa0806fa0:	00021438 	dsll	v0,v0,0x10
ffffffffa0806fa4:	64447950 	daddiu	a0,v0,31056
ffffffffa0806fa8:	0c2011fd 	jal	ffffffffa08047f4 <printf>
ffffffffa0806fac:	00000000 	nop
ffffffffa0806fb0:	8fc20018 	lw	v0,24(s8)
ffffffffa0806fb4:	0040202d 	move	a0,v0
ffffffffa0806fb8:	0c200d10 	jal	ffffffffa0803440 <sys_kill>
ffffffffa0806fbc:	00000000 	nop
ffffffffa0806fc0:	67c20018 	daddiu	v0,s8,24
ffffffffa0806fc4:	dfc40008 	ld	a0,8(s8)
ffffffffa0806fc8:	0040282d 	move	a1,v0
ffffffffa0806fcc:	24060004 	li	a2,4
ffffffffa0806fd0:	0c200eba 	jal	ffffffffa0803ae8 <mbox_recv>
ffffffffa0806fd4:	00000000 	nop
ffffffffa0806fd8:	0000202d 	move	a0,zero
ffffffffa0806fdc:	24050006 	li	a1,6
ffffffffa0806fe0:	0c200d37 	jal	ffffffffa08034dc <sys_move_cursor>
ffffffffa0806fe4:	00000000 	nop
ffffffffa0806fe8:	8fc30018 	lw	v1,24(s8)
ffffffffa0806fec:	8fc50004 	lw	a1,4(s8)
ffffffffa0806ff0:	3c020000 	lui	v0,0x0
ffffffffa0806ff4:	64420000 	daddiu	v0,v0,0
ffffffffa0806ff8:	00021438 	dsll	v0,v0,0x10
ffffffffa0806ffc:	6442a080 	daddiu	v0,v0,-24448
ffffffffa0807000:	00021438 	dsll	v0,v0,0x10
ffffffffa0807004:	64447990 	daddiu	a0,v0,31120
ffffffffa0807008:	0060302d 	move	a2,v1
ffffffffa080700c:	0c2011fd 	jal	ffffffffa08047f4 <printf>
ffffffffa0807010:	00000000 	nop
ffffffffa0807014:	08201c3f 	j	ffffffffa08070fc <CaoCao+0x31c>
ffffffffa0807018:	00000000 	nop
ffffffffa080701c:	0000202d 	move	a0,zero
ffffffffa0807020:	24050004 	li	a1,4
ffffffffa0807024:	0c200d37 	jal	ffffffffa08034dc <sys_move_cursor>
ffffffffa0807028:	00000000 	nop
ffffffffa080702c:	8fc3001c 	lw	v1,28(s8)
ffffffffa0807030:	8fc50004 	lw	a1,4(s8)
ffffffffa0807034:	3c020000 	lui	v0,0x0
ffffffffa0807038:	64420000 	daddiu	v0,v0,0
ffffffffa080703c:	00021438 	dsll	v0,v0,0x10
ffffffffa0807040:	6442a080 	daddiu	v0,v0,-24448
ffffffffa0807044:	00021438 	dsll	v0,v0,0x10
ffffffffa0807048:	644479c8 	daddiu	a0,v0,31176
ffffffffa080704c:	0060302d 	move	a2,v1
ffffffffa0807050:	0c2011fd 	jal	ffffffffa08047f4 <printf>
ffffffffa0807054:	00000000 	nop
ffffffffa0807058:	24040001 	li	a0,1
ffffffffa080705c:	0c200d05 	jal	ffffffffa0803414 <sys_sleep>
ffffffffa0807060:	00000000 	nop
ffffffffa0807064:	0000202d 	move	a0,zero
ffffffffa0807068:	24050005 	li	a1,5
ffffffffa080706c:	0c200d37 	jal	ffffffffa08034dc <sys_move_cursor>
ffffffffa0807070:	00000000 	nop
ffffffffa0807074:	3c020000 	lui	v0,0x0
ffffffffa0807078:	64420000 	daddiu	v0,v0,0
ffffffffa080707c:	00021438 	dsll	v0,v0,0x10
ffffffffa0807080:	6442a080 	daddiu	v0,v0,-24448
ffffffffa0807084:	00021438 	dsll	v0,v0,0x10
ffffffffa0807088:	644479f0 	daddiu	a0,v0,31216
ffffffffa080708c:	0c2011fd 	jal	ffffffffa08047f4 <printf>
ffffffffa0807090:	00000000 	nop
ffffffffa0807094:	8fc2001c 	lw	v0,28(s8)
ffffffffa0807098:	0040202d 	move	a0,v0
ffffffffa080709c:	0c200d10 	jal	ffffffffa0803440 <sys_kill>
ffffffffa08070a0:	00000000 	nop
ffffffffa08070a4:	0000202d 	move	a0,zero
ffffffffa08070a8:	24050006 	li	a1,6
ffffffffa08070ac:	0c200d37 	jal	ffffffffa08034dc <sys_move_cursor>
ffffffffa08070b0:	00000000 	nop
ffffffffa08070b4:	67c2001c 	daddiu	v0,s8,28
ffffffffa08070b8:	dfc40010 	ld	a0,16(s8)
ffffffffa08070bc:	0040282d 	move	a1,v0
ffffffffa08070c0:	24060004 	li	a2,4
ffffffffa08070c4:	0c200eba 	jal	ffffffffa0803ae8 <mbox_recv>
ffffffffa08070c8:	00000000 	nop
ffffffffa08070cc:	8fc3001c 	lw	v1,28(s8)
ffffffffa08070d0:	8fc50004 	lw	a1,4(s8)
ffffffffa08070d4:	3c020000 	lui	v0,0x0
ffffffffa08070d8:	64420000 	daddiu	v0,v0,0
ffffffffa08070dc:	00021438 	dsll	v0,v0,0x10
ffffffffa08070e0:	6442a080 	daddiu	v0,v0,-24448
ffffffffa08070e4:	00021438 	dsll	v0,v0,0x10
ffffffffa08070e8:	64447a28 	daddiu	a0,v0,31272
ffffffffa08070ec:	0060302d 	move	a2,v1
ffffffffa08070f0:	0c2011fd 	jal	ffffffffa08047f4 <printf>
ffffffffa08070f4:	00000000 	nop
ffffffffa08070f8:	00000000 	nop
ffffffffa08070fc:	24040002 	li	a0,2
ffffffffa0807100:	0c200d05 	jal	ffffffffa0803414 <sys_sleep>
ffffffffa0807104:	00000000 	nop
ffffffffa0807108:	8fc20000 	lw	v0,0(s8)
ffffffffa080710c:	24420001 	addiu	v0,v0,1
ffffffffa0807110:	afc20000 	sw	v0,0(s8)
ffffffffa0807114:	08201b9e 	j	ffffffffa0806e78 <CaoCao+0x98>
ffffffffa0807118:	00000000 	nop
ffffffffa080711c:	00000000 	nop
ffffffffa0807120:	255b6325 	addiu	k1,a6,25381
ffffffffa0807124:	64253b64 	daddiu	a1,at,15204
ffffffffa0807128:	00000048 	0x48
ffffffffa080712c:	00000000 	nop
ffffffffa0807130:	325b6325 	andi	k1,s2,0x6325
ffffffffa0807134:	0000004a 	0x4a
ffffffffa0807138:	3f5b6325 	0x3f5b6325
ffffffffa080713c:	006c3532 	tlt	v1,t0,0xd4
ffffffffa0807140:	495b203e 	0x495b203e
ffffffffa0807144:	5d54494e 	0x5d54494e
ffffffffa0807148:	61745320 	daddi	s4,a7,21280
ffffffffa080714c:	69206b63 	ldl	zero,27491(a5)
ffffffffa0807150:	6974696e 	ldl	s4,26990(a7)
ffffffffa0807154:	7a696c61 	0x7a696c61
ffffffffa0807158:	6f697461 	ldr	a5,29793(k1)
ffffffffa080715c:	7573206e 	jalx	ffffffffa5cc81b8 <_gp+0x54b7d38>
ffffffffa0807160:	65656363 	daddiu	a1,a7,25443
ffffffffa0807164:	2e646564 	sltiu	a0,s3,25956
ffffffffa0807168:	0000000a 	movz	zero,zero,zero
ffffffffa080716c:	00000000 	nop
ffffffffa0807170:	495b203e 	0x495b203e
ffffffffa0807174:	5d54494e 	0x5d54494e
ffffffffa0807178:	42435020 	wait	0x10d40
ffffffffa080717c:	696e6920 	ldl	t2,26912(a7)
ffffffffa0807180:	6c616974 	ldr	at,26996(v1)
ffffffffa0807184:	74617a69 	jalx	ffffffffa185e9a4 <_gp+0x104e524>
ffffffffa0807188:	206e6f69 	addi	t2,v1,28521
ffffffffa080718c:	63637573 	daddi	v1,k1,30067
ffffffffa0807190:	65646565 	daddiu	a0,a7,25957
ffffffffa0807194:	000a2e64 	0xa2e64
ffffffffa0807198:	495b203e 	0x495b203e
ffffffffa080719c:	5d54494e 	0x5d54494e
ffffffffa08071a0:	52435320 	beql	s2,v1,ffffffffa081be24 <_gp+0xb9a4>
ffffffffa08071a4:	204e4545 	addi	t2,v0,17733
ffffffffa08071a8:	74696e69 	jalx	ffffffffa1a5b9a4 <_gp+0x124b524>
ffffffffa08071ac:	696c6169 	ldl	t0,24937(a7)
ffffffffa08071b0:	6974617a 	ldl	s4,24954(a7)
ffffffffa08071b4:	73206e6f 	0x73206e6f
ffffffffa08071b8:	65636375 	daddiu	v1,a7,25461
ffffffffa08071bc:	64656465 	daddiu	a1,v1,25701
ffffffffa08071c0:	00000a2e 	0xa2e
	...
ffffffffa08071d0:	4f52505b 	c3	0x152505b
ffffffffa08071d4:	53534543 	beql	k0,s3,ffffffffa08186e4 <_gp+0x8264>
ffffffffa08071d8:	42415420 	wait	0x10550
ffffffffa08071dc:	0a5d454c 	j	ffffffffa9751530 <_gp+0x8f410b0>
ffffffffa08071e0:	00000000 	nop
ffffffffa08071e4:	00000000 	nop
ffffffffa08071e8:	5d64255b 	0x5d64255b
ffffffffa08071ec:	44495020 	0x44495020
ffffffffa08071f0:	25203a20 	addiu	zero,a5,14880
ffffffffa08071f4:	54532064 	bnel	v0,s3,ffffffffa080f388 <pcb+0x5770>
ffffffffa08071f8:	53555441 	beql	k0,s5,ffffffffa081c300 <_gp+0xbe80>
ffffffffa08071fc:	52203a20 	beqzl	s1,ffffffffa0815a80 <_gp+0x5600>
ffffffffa0807200:	494e4e55 	0x494e4e55
ffffffffa0807204:	000a474e 	0xa474e
ffffffffa0807208:	5d64255b 	0x5d64255b
ffffffffa080720c:	44495020 	0x44495020
ffffffffa0807210:	25203a20 	addiu	zero,a5,14880
ffffffffa0807214:	54532064 	bnel	v0,s3,ffffffffa080f3a8 <pcb+0x5790>
ffffffffa0807218:	53555441 	beql	k0,s5,ffffffffa081c320 <_gp+0xbea0>
ffffffffa080721c:	52203a20 	beqzl	s1,ffffffffa0815aa0 <_gp+0x5620>
ffffffffa0807220:	59444145 	0x59444145
ffffffffa0807224:	0000000a 	movz	zero,zero,zero
ffffffffa0807228:	5d64255b 	0x5d64255b
ffffffffa080722c:	44495020 	0x44495020
ffffffffa0807230:	25203a20 	addiu	zero,a5,14880
ffffffffa0807234:	54532064 	bnel	v0,s3,ffffffffa080f3c8 <pcb+0x57b0>
ffffffffa0807238:	53555441 	beql	k0,s5,ffffffffa081c340 <_gp+0xbec0>
ffffffffa080723c:	42203a20 	wait	0x80e8
ffffffffa0807240:	4b434f4c 	c2	0x1434f4c
ffffffffa0807244:	000a4445 	0xa4445
	...
ffffffffa0807250:	2d2d203e 	sltiu	t1,a5,8254
ffffffffa0807254:	2d2d2d2d 	sltiu	t1,a5,11565
ffffffffa0807258:	2d2d2d2d 	sltiu	t1,a5,11565
ffffffffa080725c:	2d2d2d2d 	sltiu	t1,a5,11565
ffffffffa0807260:	4d4f4320 	madd.s	$f12,$f10,$f8,$f15
ffffffffa0807264:	444e414d 	0x444e414d
ffffffffa0807268:	2d2d2d20 	sltiu	t1,a5,11552
ffffffffa080726c:	2d2d2d2d 	sltiu	t1,a5,11565
ffffffffa0807270:	2d2d2d2d 	sltiu	t1,a5,11565
ffffffffa0807274:	002d2d2d 	0x2d2d2d
ffffffffa0807278:	4f52203e 	nmsub.ps	$f0,$f26,$f4,$f18
ffffffffa080727c:	5540544f 	bnezl	a6,ffffffffa081c3bc <_gp+0xbf3c>
ffffffffa0807280:	5f534143 	0x5f534143
ffffffffa0807284:	2024534f 	addi	a0,at,21327
	...
ffffffffa0807290:	000a7325 	0xa7325
ffffffffa0807294:	00000000 	nop
ffffffffa0807298:	00007325 	0x7325
ffffffffa080729c:	00000000 	nop
ffffffffa08072a0:	00006325 	0x6325
ffffffffa08072a4:	00000000 	nop
ffffffffa08072a8:	00007370 	tge	zero,zero,0x1cd
ffffffffa08072ac:	00000000 	nop
ffffffffa08072b0:	61656c63 	daddi	a1,a7,27747
ffffffffa08072b4:	00000072 	tlt	zero,zero,0x1
ffffffffa08072b8:	61656c63 	daddi	a1,a7,27747
ffffffffa08072bc:	6c612072 	ldr	at,8306(v1)
ffffffffa08072c0:	0000006c 	0x6c
ffffffffa08072c4:	00000000 	nop
ffffffffa08072c8:	6c6c696b 	ldr	t0,26987(v1)
ffffffffa08072cc:	00000000 	nop
ffffffffa08072d0:	434f5250 	c0	0x14f5250
ffffffffa08072d4:	20535345 	addi	s3,v0,21317
ffffffffa08072d8:	64697028 	daddiu	a5,v1,28712
ffffffffa08072dc:	2964253d 	slti	a0,a7,9533
ffffffffa08072e0:	73616820 	clz	t1 or at,k1
ffffffffa08072e4:	65656220 	daddiu	a1,a7,25120
ffffffffa08072e8:	494b206e 	0x494b206e
ffffffffa08072ec:	44454c4c 	0x44454c4c
ffffffffa08072f0:	00000a2e 	0xa2e
ffffffffa08072f4:	00000000 	nop
ffffffffa08072f8:	434f5250 	c0	0x14f5250
ffffffffa08072fc:	20535345 	addi	s3,v0,21317
ffffffffa0807300:	4e206425 	c3	0x206425
ffffffffa0807304:	4520544f 	bc1any2f	$fcc0,ffffffffa081c444 <_gp+0xbfc4>
ffffffffa0807308:	54534958 	bnel	v0,s3,ffffffffa081986c <_gp+0x93ec>
ffffffffa080730c:	0a2e4445 	j	ffffffffa8b91114 <_gp+0x8380c94>
ffffffffa0807310:	00000000 	nop
ffffffffa0807314:	00000000 	nop
ffffffffa0807318:	74696177 	jalx	ffffffffa1a585dc <_gp+0x124815c>
ffffffffa080731c:	00000000 	nop
ffffffffa0807320:	434f5250 	c0	0x14f5250
ffffffffa0807324:	20535345 	addi	s3,v0,21317
ffffffffa0807328:	57206425 	bnezl	t9,ffffffffa08203c0 <_gp+0xff40>
ffffffffa080732c:	20544941 	addi	s4,v0,18753
ffffffffa0807330:	43435553 	c0	0x1435553
ffffffffa0807334:	2e535345 	sltiu	s3,s2,21317
ffffffffa0807338:	0000000a 	movz	zero,zero,zero
ffffffffa080733c:	00000000 	nop
ffffffffa0807340:	63657865 	daddi	a1,k1,30821
ffffffffa0807344:	00000000 	nop
ffffffffa0807348:	6b736154 	ldl	s3,24916(k1)
ffffffffa080734c:	20642520 	addi	a0,v1,9504
ffffffffa0807350:	43455845 	c0	0x1455845
ffffffffa0807354:	49414620 	0x49414620
ffffffffa0807358:	2f44454c 	sltiu	a0,k0,17740
ffffffffa080735c:	20544f4e 	addi	s4,v0,20302
ffffffffa0807360:	53495845 	beql	k0,a5,ffffffffa081d478 <_gp+0xcff8>
ffffffffa0807364:	2e444554 	sltiu	a0,s2,17748
ffffffffa0807368:	0000000a 	movz	zero,zero,zero
ffffffffa080736c:	00000000 	nop
ffffffffa0807370:	6b736154 	ldl	s3,24916(k1)
ffffffffa0807374:	20642520 	addi	a0,v1,9504
ffffffffa0807378:	43455845 	c0	0x1455845
ffffffffa080737c:	43555320 	wait	0x5554c
ffffffffa0807380:	53534543 	beql	k0,s3,ffffffffa0818890 <_gp+0x8410>
ffffffffa0807384:	00000a2e 	0xa2e
ffffffffa0807388:	006e7572 	tlt	v1,t2,0x1d5
ffffffffa080738c:	00000000 	nop
ffffffffa0807390:	5252455b 	beql	s2,s2,ffffffffa0818900 <_gp+0x8480>
ffffffffa0807394:	205d524f 	addi	sp,v0,21071
ffffffffa0807398:	6f727245 	ldr	s2,29253(k1)
ffffffffa080739c:	6e492072 	ldr	a5,8306(s2)
ffffffffa08073a0:	21747570 	addi	s4,a7,30064
ffffffffa08073a4:	0000000a 	movz	zero,zero,zero
	...
ffffffffa08073b0:	545b203e 	bnel	v0,k1,ffffffffa080f4ac <pcb+0x5894>
ffffffffa08073b4:	5d4b5341 	0x5d4b5341
ffffffffa08073b8:	61204920 	daddi	zero,a5,18720
ffffffffa08073bc:	6174206d 	daddi	s4,a7,8301
ffffffffa08073c0:	77206b73 	jalx	ffffffffac81adcc <_gp+0xc00a94c>
ffffffffa08073c4:	20687469 	addi	a4,v1,29801
ffffffffa08073c8:	20646970 	addi	a0,v1,26992
ffffffffa08073cc:	202c6425 	addi	t0,at,25637
ffffffffa08073d0:	61682049 	daddi	a4,a7,8265
ffffffffa08073d4:	61206576 	daddi	zero,a5,25974
ffffffffa08073d8:	69757163 	ldl	s5,29027(a7)
ffffffffa08073dc:	20646572 	addi	a0,v1,25970
ffffffffa08073e0:	206f7774 	addi	t3,v1,30580
ffffffffa08073e4:	6574756d 	daddiu	s4,a7,30061
ffffffffa08073e8:	6f6c2078 	ldr	t0,8312(k1)
ffffffffa08073ec:	202e6b63 	addi	t2,at,27491
ffffffffa08073f0:	29642528 	slti	a0,a7,9512
ffffffffa08073f4:	00000000 	nop
ffffffffa08073f8:	545b203e 	bnel	v0,k1,ffffffffa080f4f4 <pcb+0x58dc>
ffffffffa08073fc:	5d4b5341 	0x5d4b5341
ffffffffa0807400:	77204920 	jalx	ffffffffac812480 <_gp+0xc002000>
ffffffffa0807404:	20746e61 	addi	s4,v1,28257
ffffffffa0807408:	61206f74 	daddi	zero,a5,28532
ffffffffa080740c:	69757163 	ldl	s5,29027(a7)
ffffffffa0807410:	61206572 	daddi	zero,a5,25970
ffffffffa0807414:	74756d20 	jalx	ffffffffa1d5b480 <_gp+0x154b000>
ffffffffa0807418:	6f6c2065 	ldr	t0,8293(k1)
ffffffffa080741c:	66206b63 	daddiu	zero,s1,27491
ffffffffa0807420:	206d6f72 	addi	t1,v1,28530
ffffffffa0807424:	6b736174 	ldl	s3,24948(k1)
ffffffffa0807428:	64697028 	daddiu	a5,v1,28712
ffffffffa080742c:	2e29323d 	sltiu	a5,s1,12861
	...
ffffffffa0807438:	545b203e 	bnel	v0,k1,ffffffffa080f534 <pcb+0x591c>
ffffffffa080743c:	5d4b5341 	0x5d4b5341
ffffffffa0807440:	68204920 	ldl	zero,18720(at)
ffffffffa0807444:	20657661 	addi	a1,v1,30305
ffffffffa0807448:	75716361 	jalx	ffffffffa5c58d84 <_gp+0x5448904>
ffffffffa080744c:	64657269 	daddiu	a1,v1,29289
ffffffffa0807450:	6d206120 	ldr	zero,24864(a5)
ffffffffa0807454:	78657475 	0x78657475
ffffffffa0807458:	636f6c20 	daddi	t3,k1,27680
ffffffffa080745c:	7266206b 	0x7266206b
ffffffffa0807460:	74206d6f 	jalx	ffffffffa081b5bc <_gp+0xb13c>
ffffffffa0807464:	286b7361 	slti	a7,v1,29537
ffffffffa0807468:	3d646970 	0x3d646970
ffffffffa080746c:	002e2932 	tlt	at,t2,0xa4
ffffffffa0807470:	545b203e 	bnel	v0,k1,ffffffffa080f56c <pcb+0x5954>
ffffffffa0807474:	5d4b5341 	0x5d4b5341
ffffffffa0807478:	77204920 	jalx	ffffffffac812480 <_gp+0xc002000>
ffffffffa080747c:	20746e61 	addi	s4,v1,28257
ffffffffa0807480:	77206f74 	jalx	ffffffffac81bdd0 <_gp+0xc00b950>
ffffffffa0807484:	20746961 	addi	s4,v1,26977
ffffffffa0807488:	6b736174 	ldl	s3,24948(k1)
ffffffffa080748c:	69702820 	ldl	s0,10272(a7)
ffffffffa0807490:	29323d64 	slti	s2,a5,15716
ffffffffa0807494:	206f7420 	addi	t3,v1,29728
ffffffffa0807498:	74697865 	jalx	ffffffffa1a5e194 <_gp+0x124dd14>
ffffffffa080749c:	0000002e 	dneg	zero,zero
ffffffffa08074a0:	545b203e 	bnel	v0,k1,ffffffffa080f59c <pcb+0x5984>
ffffffffa08074a4:	5d4b5341 	0x5d4b5341
ffffffffa08074a8:	73615420 	0x73615420
ffffffffa08074ac:	7028206b 	0x7028206b
ffffffffa08074b0:	323d6469 	andi	sp,s1,0x6469
ffffffffa08074b4:	61682029 	daddi	a4,a7,8233
ffffffffa08074b8:	78652073 	0x78652073
ffffffffa08074bc:	64657469 	daddiu	a1,v1,29801
ffffffffa08074c0:	2020202e 	addi	zero,at,8238
ffffffffa08074c4:	20202020 	addi	zero,at,8224
ffffffffa08074c8:	20202020 	addi	zero,at,8224
ffffffffa08074cc:	20202020 	addi	zero,at,8224
ffffffffa08074d0:	00000020 	add	zero,zero,zero
	...
ffffffffa08074e0:	72617473 	0x72617473
ffffffffa08074e4:	65742074 	daddiu	s4,a7,8308
ffffffffa08074e8:	6d207473 	ldr	zero,29811(a5)
ffffffffa08074ec:	69746c75 	ldl	s4,27765(a7)
ffffffffa08074f0:	726f632d 	0x726f632d
ffffffffa08074f4:	65702065 	daddiu	s0,a7,8293
ffffffffa08074f8:	726f6672 	0x726f6672
ffffffffa08074fc:	636e616d 	daddi	t2,k1,24941
ffffffffa0807500:	000d0a65 	0xd0a65
ffffffffa0807504:	00000000 	nop
ffffffffa0807508:	676e6973 	daddiu	t2,k1,26995
ffffffffa080750c:	705f656c 	0x705f656c
ffffffffa0807510:	25206469 	addiu	zero,a5,25705
ffffffffa0807514:	69732c64 	ldl	s3,11364(a7)
ffffffffa0807518:	656c676e 	daddiu	t0,a7,26478
ffffffffa080751c:	726f6320 	0x726f6320
ffffffffa0807520:	25203a65 	addiu	zero,a5,14949
ffffffffa0807524:	69742064 	ldl	s4,8292(a7)
ffffffffa0807528:	20736b63 	addi	s3,v1,27491
ffffffffa080752c:	20202020 	addi	zero,at,8224
ffffffffa0807530:	00000d0a 	0xd0a
ffffffffa0807534:	00000000 	nop
ffffffffa0807538:	73646970 	0x73646970
ffffffffa080753c:	205d305b 	addi	sp,v0,12379
ffffffffa0807540:	702c6425 	0x702c6425
ffffffffa0807544:	5b736469 	0x5b736469
ffffffffa0807548:	25205d31 	addiu	zero,a5,23857
ffffffffa080754c:	756d2c64 	jalx	ffffffffa5b4b190 <_gp+0x533ad10>
ffffffffa0807550:	2069746c 	addi	a5,v1,29804
ffffffffa0807554:	65726f63 	daddiu	s2,a7,28515
ffffffffa0807558:	6425203a 	daddiu	a1,at,8250
ffffffffa080755c:	63697420 	daddi	a5,k1,29728
ffffffffa0807560:	2020736b 	addi	zero,at,29547
ffffffffa0807564:	20202020 	addi	zero,at,8224
ffffffffa0807568:	20202020 	addi	zero,at,8224
ffffffffa080756c:	0a202020 	j	ffffffffa8808080 <_gp+0x7ff7c00>
ffffffffa0807570:	0000000d 	break
ffffffffa0807574:	00000000 	nop
ffffffffa0807578:	31646461 	andi	a0,a7,0x6461
	...
ffffffffa0807598:	32646461 	andi	a0,s3,0x6461
	...
ffffffffa08075b8:	33646461 	andi	a0,k1,0x6461
	...
ffffffffa08075e0:	545b203e 	bnel	v0,k1,ffffffffa080f6dc <pcb+0x5ac4>
ffffffffa08075e4:	5d4b5341 	0x5d4b5341
ffffffffa08075e8:	69685420 	ldl	a4,21536(a7)
ffffffffa08075ec:	73692073 	0x73692073
ffffffffa08075f0:	77206120 	jalx	ffffffffac818480 <_gp+0xc008000>
ffffffffa08075f4:	69746961 	ldl	s4,26977(a7)
ffffffffa08075f8:	7420676e 	jalx	ffffffffa0819db8 <_gp+0x9938>
ffffffffa08075fc:	206b7361 	addi	a7,v1,29537
ffffffffa0807600:	64697028 	daddiu	a5,v1,28712
ffffffffa0807604:	2964253d 	slti	a0,a7,9533
ffffffffa0807608:	00000a2e 	0xa2e
ffffffffa080760c:	00000000 	nop
ffffffffa0807610:	545b203e 	bnel	v0,k1,ffffffffa080f70c <pcb+0x5af4>
ffffffffa0807614:	5d4b5341 	0x5d4b5341
ffffffffa0807618:	61204920 	daddi	zero,a5,18720
ffffffffa080761c:	6177206d 	daddi	s7,a7,8301
ffffffffa0807620:	6e697469 	ldr	a5,29801(s3)
ffffffffa0807624:	61742067 	daddi	s4,a7,8295
ffffffffa0807628:	61206b73 	daddi	zero,a5,27507
ffffffffa080762c:	6120646e 	daddi	zero,a5,25710
ffffffffa0807630:	6165726c 	daddi	a1,a7,29292
ffffffffa0807634:	65207964 	daddiu	zero,a5,31076
ffffffffa0807638:	65746978 	daddiu	s4,a7,27000
ffffffffa080763c:	75732064 	jalx	ffffffffa5cc8190 <_gp+0x54b7d10>
ffffffffa0807640:	73656363 	0x73656363
ffffffffa0807644:	6c756673 	ldr	s5,26227(v1)
ffffffffa0807648:	0a2e796c 	j	ffffffffa8b9e5b0 <_gp+0x838e130>
ffffffffa080764c:	00000000 	nop
ffffffffa0807650:	545b203e 	bnel	v0,k1,ffffffffa080f74c <pcb+0x5b34>
ffffffffa0807654:	5d4b5341 	0x5d4b5341
ffffffffa0807658:	73204920 	0x73204920
ffffffffa080765c:	6c6c6974 	ldr	t0,26996(v1)
ffffffffa0807660:	76616820 	jalx	ffffffffa985a080 <_gp+0x9049c00>
ffffffffa0807664:	20352065 	addi	s5,at,8293
ffffffffa0807668:	6f636573 	ldr	v1,25971(k1)
ffffffffa080766c:	2073646e 	addi	s3,v1,25710
ffffffffa0807670:	71206f74 	0x71206f74
ffffffffa0807674:	2e746975 	sltiu	s4,s3,26997
ffffffffa0807678:	0000000a 	movz	zero,zero,zero
ffffffffa080767c:	00000000 	nop
ffffffffa0807680:	545b203e 	bnel	v0,k1,ffffffffa080f77c <pcb+0x5b64>
ffffffffa0807684:	5d4b5341 	0x5d4b5341
ffffffffa0807688:	746f5420 	jalx	ffffffffa1bd5080 <_gp+0x13c4c00>
ffffffffa080768c:	70206c61 	0x70206c61
ffffffffa0807690:	75646f72 	jalx	ffffffffa591bdc8 <_gp+0x510b948>
ffffffffa0807694:	20646563 	addi	a0,v1,25955
ffffffffa0807698:	70206425 	0x70206425
ffffffffa080769c:	75646f72 	jalx	ffffffffa591bdc8 <_gp+0x510b948>
ffffffffa08076a0:	2e737463 	sltiu	s3,s3,29795
ffffffffa08076a4:	00000000 	nop
ffffffffa08076a8:	545b203e 	bnel	v0,k1,ffffffffa080f7a4 <pcb+0x5b8c>
ffffffffa08076ac:	5d4b5341 	0x5d4b5341
ffffffffa08076b0:	746f5420 	jalx	ffffffffa1bd5080 <_gp+0x13c4c00>
ffffffffa08076b4:	63206c61 	daddi	zero,t9,27745
ffffffffa08076b8:	75736e6f 	jalx	ffffffffa5cdb9bc <_gp+0x54cb53c>
ffffffffa08076bc:	2064656d 	addi	a0,v1,25965
ffffffffa08076c0:	70206425 	0x70206425
ffffffffa08076c4:	75646f72 	jalx	ffffffffa591bdc8 <_gp+0x510b948>
ffffffffa08076c8:	2e737463 	sltiu	s3,s3,29795
ffffffffa08076cc:	00000000 	nop
ffffffffa08076d0:	545b203e 	bnel	v0,k1,ffffffffa080f7cc <pcb+0x5bb4>
ffffffffa08076d4:	5d4b5341 	0x5d4b5341
ffffffffa08076d8:	72756320 	0x72756320
ffffffffa08076dc:	746e6572 	jalx	ffffffffa1b995c8 <_gp+0x1389148>
ffffffffa08076e0:	6f6c6720 	ldr	t0,26400(k1)
ffffffffa08076e4:	206c6162 	addi	t0,v1,24930
ffffffffa08076e8:	756c6176 	jalx	ffffffffa5b185d8 <_gp+0x5308158>
ffffffffa08076ec:	64252065 	daddiu	a1,at,8293
ffffffffa08076f0:	2528202e 	addiu	a4,a5,8238
ffffffffa08076f4:	00002964 	0x2964
	...
ffffffffa0807700:	545b203e 	bnel	v0,k1,ffffffffa080f7fc <pcb+0x5be4>
ffffffffa0807704:	5d4b5341 	0x5d4b5341
ffffffffa0807708:	61655220 	daddi	a1,a7,21024
ffffffffa080770c:	74207964 	jalx	ffffffffa081e590 <_gp+0xe110>
ffffffffa0807710:	6e65206f 	ldr	a1,8303(s3)
ffffffffa0807714:	20726574 	addi	s2,v1,25972
ffffffffa0807718:	20656874 	addi	a1,v1,26740
ffffffffa080771c:	72726162 	0x72726162
ffffffffa0807720:	2e726569 	sltiu	s2,s3,25961
ffffffffa0807724:	29642528 	slti	a0,a7,9512
	...
ffffffffa0807730:	545b203e 	bnel	v0,k1,ffffffffa080f82c <pcb+0x5c14>
ffffffffa0807734:	5d4b5341 	0x5d4b5341
ffffffffa0807738:	69784520 	ldl	t8,17696(a7)
ffffffffa080773c:	20646574 	addi	a0,v1,25972
ffffffffa0807740:	72726162 	0x72726162
ffffffffa0807744:	20726569 	addi	s2,v1,25961
ffffffffa0807748:	29642528 	slti	a0,a7,9512
ffffffffa080774c:	2020202e 	addi	zero,at,8238
ffffffffa0807750:	20202020 	addi	zero,at,8224
ffffffffa0807754:	20202020 	addi	zero,at,8224
	...
ffffffffa0807760:	516e7553 	beql	a7,t2,ffffffffa0824cb0 <_gp+0x14830>
ffffffffa0807764:	2d6e6175 	sltiu	t2,a7,24949
ffffffffa0807768:	6c627550 	ldr	v0,30032(v1)
ffffffffa080776c:	2d687369 	sltiu	a4,a7,29545
ffffffffa0807770:	00444950 	0x444950
ffffffffa0807774:	00000000 	nop
ffffffffa0807778:	4275694c 	c0	0x75694c
ffffffffa080777c:	00006965 	0x6965
ffffffffa0807780:	4275694c 	c0	0x75694c
ffffffffa0807784:	502d6965 	beql	at,t1,ffffffffa0821d1c <_gp+0x1189c>
ffffffffa0807788:	696c6275 	ldl	t0,25205(a7)
ffffffffa080778c:	502d6873 	beql	at,t1,ffffffffa082195c <_gp+0x114dc>
ffffffffa0807790:	00004449 	0x4449
ffffffffa0807794:	00000000 	nop
ffffffffa0807798:	6e75535b 	ldr	s5,21339(s3)
ffffffffa080779c:	6e617551 	ldr	at,30033(s3)
ffffffffa08077a0:	6425285d 	daddiu	a1,at,10333
ffffffffa08077a4:	57203a29 	bnezl	t9,ffffffffa081604c <_gp+0x5bcc>
ffffffffa08077a8:	65726568 	daddiu	s2,a7,25960
ffffffffa08077ac:	65726120 	daddiu	s2,a7,24864
ffffffffa08077b0:	756f7920 	jalx	ffffffffa5bde480 <_gp+0x53ce000>
ffffffffa08077b4:	75694c20 	jalx	ffffffffa5a53080 <_gp+0x5242c00>
ffffffffa08077b8:	3f696562 	0x3f696562
ffffffffa08077bc:	20202020 	addi	zero,at,8224
ffffffffa08077c0:	20202020 	addi	zero,at,8224
ffffffffa08077c4:	20202020 	addi	zero,at,8224
ffffffffa08077c8:	20202020 	addi	zero,at,8224
ffffffffa08077cc:	00000000 	nop
ffffffffa08077d0:	6e75535b 	ldr	s5,21339(s3)
ffffffffa08077d4:	6e617551 	ldr	at,30033(s3)
ffffffffa08077d8:	6425285d 	daddiu	a1,at,10333
ffffffffa08077dc:	49203a29 	0x49203a29
ffffffffa08077e0:	77206d27 	jalx	ffffffffac81b49c <_gp+0xc00b01c>
ffffffffa08077e4:	69746961 	ldl	s4,26977(a7)
ffffffffa08077e8:	6620676e 	daddiu	zero,s1,26478
ffffffffa08077ec:	4c20726f 	0x4c20726f
ffffffffa08077f0:	65627569 	daddiu	v0,a7,30057
ffffffffa08077f4:	25282069 	addiu	a4,a5,8297
ffffffffa08077f8:	20202964 	addi	zero,at,10596
ffffffffa08077fc:	20202020 	addi	zero,at,8224
ffffffffa0807800:	20202020 	addi	zero,at,8224
ffffffffa0807804:	00000000 	nop
ffffffffa0807808:	6e75535b 	ldr	s5,21339(s3)
ffffffffa080780c:	6e617551 	ldr	at,30033(s3)
ffffffffa0807810:	6425285d 	daddiu	a1,at,10333
ffffffffa0807814:	49203a29 	0x49203a29
ffffffffa0807818:	63206d27 	daddi	zero,t9,27943
ffffffffa080781c:	6e696d6f 	ldr	a5,28015(s3)
ffffffffa0807820:	6f742067 	ldr	s4,8295(k1)
ffffffffa0807824:	76617320 	jalx	ffffffffa985cc80 <_gp+0x904c800>
ffffffffa0807828:	6f792065 	ldr	t9,8293(k1)
ffffffffa080782c:	4c202c75 	0x4c202c75
ffffffffa0807830:	65427569 	daddiu	v0,a6,30057
ffffffffa0807834:	00002169 	0x2169
ffffffffa0807838:	516e7553 	beql	a7,t2,ffffffffa0824d88 <_gp+0x14908>
ffffffffa080783c:	006e6175 	0x6e6175
ffffffffa0807840:	75694c5b 	jalx	ffffffffa5a5316c <_gp+0x5242cec>
ffffffffa0807844:	5d696542 	0x5d696542
ffffffffa0807848:	29642528 	slti	a0,a7,9512
ffffffffa080784c:	6857203a 	ldl	s7,8250(v0)
ffffffffa0807850:	20657265 	addi	a1,v1,29285
ffffffffa0807854:	20657261 	addi	a1,v1,29281
ffffffffa0807858:	20756f79 	addi	s5,v1,28537
ffffffffa080785c:	516e7553 	beql	a7,t2,ffffffffa0824dac <_gp+0x1492c>
ffffffffa0807860:	3f6e6175 	0x3f6e6175
ffffffffa0807864:	20202020 	addi	zero,at,8224
ffffffffa0807868:	20202020 	addi	zero,at,8224
ffffffffa080786c:	00002020 	add	a0,zero,zero
ffffffffa0807870:	75694c5b 	jalx	ffffffffa5a5316c <_gp+0x5242cec>
ffffffffa0807874:	5d696542 	0x5d696542
ffffffffa0807878:	29642528 	slti	a0,a7,9512
ffffffffa080787c:	2749203a 	addiu	a5,k0,8250
ffffffffa0807880:	6177206d 	daddi	s7,a7,8301
ffffffffa0807884:	6e697469 	ldr	a5,29801(s3)
ffffffffa0807888:	6f662067 	ldr	a2,8295(k1)
ffffffffa080788c:	75532072 	jalx	ffffffffa54c81c8 <_gp+0x4cb7d48>
ffffffffa0807890:	6175516e 	daddi	s5,a7,20846
ffffffffa0807894:	2528206e 	addiu	a4,a5,8302
ffffffffa0807898:	20202964 	addi	zero,at,10596
ffffffffa080789c:	00002020 	add	a0,zero,zero
ffffffffa08078a0:	75694c5b 	jalx	ffffffffa5a5316c <_gp+0x5242cec>
ffffffffa08078a4:	5d696542 	0x5d696542
ffffffffa08078a8:	29642528 	slti	a0,a7,9512
ffffffffa08078ac:	2749203a 	addiu	a5,k0,8250
ffffffffa08078b0:	6f63206d 	ldr	v1,8301(k1)
ffffffffa08078b4:	676e696d 	daddiu	t2,k1,26989
ffffffffa08078b8:	206f7420 	addi	t3,v1,29728
ffffffffa08078bc:	65766173 	daddiu	s6,a7,24947
ffffffffa08078c0:	756f7920 	jalx	ffffffffa5bde480 <_gp+0x53ce000>
ffffffffa08078c4:	7553202c 	jalx	ffffffffa54c80b0 <_gp+0x4cb7c30>
ffffffffa08078c8:	6175516e 	daddi	s5,a7,20846
ffffffffa08078cc:	0000216e 	0x216e
ffffffffa08078d0:	6f61435b 	ldr	at,17243(k1)
ffffffffa08078d4:	5d6f6143 	0x5d6f6143
ffffffffa08078d8:	29642528 	slti	a0,a7,9512
ffffffffa08078dc:	2049203a 	addi	a5,v0,8250
ffffffffa08078e0:	77206d61 	jalx	ffffffffac81b584 <_gp+0xc00b104>
ffffffffa08078e4:	696b726f 	ldl	a7,29295(a7)
ffffffffa08078e8:	2e2e676e 	sltiu	t2,s1,26478
ffffffffa08078ec:	756d202e 	jalx	ffffffffa5b480b8 <_gp+0x5337c38>
ffffffffa08078f0:	68616861 	ldl	at,26721(v1)
ffffffffa08078f4:	00002061 	0x2061
ffffffffa08078f8:	6f61435b 	ldr	at,17243(k1)
ffffffffa08078fc:	5d6f6143 	0x5d6f6143
ffffffffa0807900:	29642528 	slti	a0,a7,9512
ffffffffa0807904:	2049203a 	addi	a5,v0,8250
ffffffffa0807908:	65766168 	daddiu	s6,a7,24936
ffffffffa080790c:	20796d20 	addi	t9,v1,27936
ffffffffa0807910:	69636564 	ldl	v1,25956(a7)
ffffffffa0807914:	6e6f6973 	ldr	t3,26995(s3)
ffffffffa0807918:	00002021 	move	a0,zero
ffffffffa080791c:	00000000 	nop
ffffffffa0807920:	6f61435b 	ldr	at,17243(k1)
ffffffffa0807924:	5d6f6143 	0x5d6f6143
ffffffffa0807928:	29642528 	slti	a0,a7,9512
ffffffffa080792c:	2049203a 	addi	a5,v0,8250
ffffffffa0807930:	6c6c6977 	ldr	t0,26999(v1)
ffffffffa0807934:	6c696b20 	ldr	a5,27424(v1)
ffffffffa0807938:	7553206c 	jalx	ffffffffa54c81b0 <_gp+0x4cb7d30>
ffffffffa080793c:	6175516e 	daddi	s5,a7,20846
ffffffffa0807940:	2528206e 	addiu	a4,a5,8302
ffffffffa0807944:	20212964 	addi	at,at,10596
ffffffffa0807948:	00000020 	add	zero,zero,zero
ffffffffa080794c:	00000000 	nop
ffffffffa0807950:	6f61435b 	ldr	at,17243(k1)
ffffffffa0807954:	5d6f6143 	0x5d6f6143
ffffffffa0807958:	20756962 	addi	s5,v1,26978
ffffffffa080795c:	20756962 	addi	s5,v1,26978
ffffffffa0807960:	20756962 	addi	s5,v1,26978
ffffffffa0807964:	7e7e7e7e 	0x7e7e7e7e
ffffffffa0807968:	41207e7e 	0x41207e7e
ffffffffa080796c:	41414141 	0x41414141
ffffffffa0807970:	20414141 	addi	at,v0,16705
ffffffffa0807974:	516e7553 	beql	a7,t2,ffffffffa0824ec4 <_gp+0x14a44>
ffffffffa0807978:	206e6175 	addi	t2,v1,24949
ffffffffa080797c:	64207369 	daddiu	zero,at,29545
ffffffffa0807980:	20646165 	addi	a0,v1,24933
ffffffffa0807984:	2e514151 	sltiu	s1,s2,16721
	...
ffffffffa0807990:	6f61435b 	ldr	at,17243(k1)
ffffffffa0807994:	5d6f6143 	0x5d6f6143
ffffffffa0807998:	29642528 	slti	a0,a7,9512
ffffffffa080799c:	6f4f203a 	ldr	t3,8250(k0)
ffffffffa08079a0:	20217370 	addi	at,at,29552
ffffffffa08079a4:	516e7553 	beql	a7,t2,ffffffffa0824ef4 <_gp+0x14a74>
ffffffffa08079a8:	286e6175 	slti	t2,v1,24949
ffffffffa08079ac:	20296425 	addi	a5,at,25637
ffffffffa08079b0:	6576696c 	daddiu	s6,a7,26988
ffffffffa08079b4:	20202173 	addi	zero,at,8563
ffffffffa08079b8:	20202020 	addi	zero,at,8224
ffffffffa08079bc:	20202020 	addi	zero,at,8224
ffffffffa08079c0:	20202020 	addi	zero,at,8224
ffffffffa08079c4:	00202020 	add	a0,at,zero
ffffffffa08079c8:	6f61435b 	ldr	at,17243(k1)
ffffffffa08079cc:	5d6f6143 	0x5d6f6143
ffffffffa08079d0:	29642528 	slti	a0,a7,9512
ffffffffa08079d4:	2049203a 	addi	a5,v0,8250
ffffffffa08079d8:	6c6c6977 	ldr	t0,26999(v1)
ffffffffa08079dc:	6c696b20 	ldr	a5,27424(v1)
ffffffffa08079e0:	694c206c 	ldl	t0,8300(a6)
ffffffffa08079e4:	69654275 	ldl	a1,17013(a7)
ffffffffa08079e8:	29642528 	slti	a0,a7,9512
ffffffffa08079ec:	00002021 	move	a0,zero
ffffffffa08079f0:	6f61435b 	ldr	at,17243(k1)
ffffffffa08079f4:	5d6f6143 	0x5d6f6143
ffffffffa08079f8:	20756962 	addi	s5,v1,26978
ffffffffa08079fc:	20756962 	addi	s5,v1,26978
ffffffffa0807a00:	20756962 	addi	s5,v1,26978
ffffffffa0807a04:	7e7e7e7e 	0x7e7e7e7e
ffffffffa0807a08:	41207e7e 	0x41207e7e
ffffffffa0807a0c:	41414141 	0x41414141
ffffffffa0807a10:	20414141 	addi	at,v0,16705
ffffffffa0807a14:	6275694c 	daddi	s5,s3,26956
ffffffffa0807a18:	69206965 	ldl	zero,26981(a5)
ffffffffa0807a1c:	65642073 	daddiu	a0,a7,8307
ffffffffa0807a20:	51206461 	beqzl	a5,ffffffffa0820ba8 <_gp+0x10728>
ffffffffa0807a24:	002e5141 	0x2e5141
ffffffffa0807a28:	6f61435b 	ldr	at,17243(k1)
ffffffffa0807a2c:	5d6f6143 	0x5d6f6143
ffffffffa0807a30:	29642528 	slti	a0,a7,9512
ffffffffa0807a34:	6f4f203a 	ldr	t3,8250(k0)
ffffffffa0807a38:	20217370 	addi	at,at,29552
ffffffffa0807a3c:	4275694c 	c0	0x75694c
ffffffffa0807a40:	25286965 	addiu	a4,a5,26981
ffffffffa0807a44:	69202964 	ldl	zero,10596(a5)
ffffffffa0807a48:	6c612073 	ldr	at,8307(v1)
ffffffffa0807a4c:	20657669 	addi	a1,v1,30313
ffffffffa0807a50:	69616761 	ldl	at,26465(a7)
ffffffffa0807a54:	0020216e 	0x20216e
	...
